ARM GAS  C:\Users\jagumiel\AppData\Local\Temp\ccvaxLDl.s 			page 1


   1              		.syntax unified
   2              		.cpu cortex-m0
   3              		.fpu softvfp
   4              		.eabi_attribute 20, 1
   5              		.eabi_attribute 21, 1
   6              		.eabi_attribute 23, 3
   7              		.eabi_attribute 24, 1
   8              		.eabi_attribute 25, 1
   9              		.eabi_attribute 26, 1
  10              		.eabi_attribute 30, 1
  11              		.eabi_attribute 34, 0
  12              		.eabi_attribute 18, 4
  13              		.thumb
  14              		.syntax unified
  15              		.file	"main.c"
  16              		.text
  17              	.Ltext0:
  18              		.cfi_sections	.debug_frame
  19              		.section	.text.LIN_ID_Parity_Calculator,"ax",%progbits
  20              		.align	2
  21              		.global	LIN_ID_Parity_Calculator
  22              		.code	16
  23              		.thumb_func
  24              		.type	LIN_ID_Parity_Calculator, %function
  25              	LIN_ID_Parity_Calculator:
  26              	.LFB33:
  27              		.file 1 "LIN_Frame_Calculations.h"
   1:LIN_Frame_Calculations.h **** /* ========================================
   2:LIN_Frame_Calculations.h ****  *
   3:LIN_Frame_Calculations.h ****  * Copyright YOUR COMPANY, THE YEAR
   4:LIN_Frame_Calculations.h ****  * All Rights Reserved
   5:LIN_Frame_Calculations.h ****  * UNPUBLISHED, LICENSED SOFTWARE.
   6:LIN_Frame_Calculations.h ****  *
   7:LIN_Frame_Calculations.h ****  * CONFIDENTIAL AND PROPRIETARY INFORMATION
   8:LIN_Frame_Calculations.h ****  * WHICH IS THE PROPERTY OF your company.
   9:LIN_Frame_Calculations.h ****  *
  10:LIN_Frame_Calculations.h ****  * ========================================
  11:LIN_Frame_Calculations.h **** */
  12:LIN_Frame_Calculations.h **** 
  13:LIN_Frame_Calculations.h **** #include <stdint.h>
  14:LIN_Frame_Calculations.h **** #include <stdio.h>
  15:LIN_Frame_Calculations.h **** 
  16:LIN_Frame_Calculations.h **** #define PACKET_SIZE 4u
  17:LIN_Frame_Calculations.h **** 
  18:LIN_Frame_Calculations.h **** 
  19:LIN_Frame_Calculations.h **** uint8_t LIN_ID_Parity_Calculator(uint8_t data){
  28              		.loc 1 19 0
  29              		.cfi_startproc
  30              		@ args = 0, pretend = 0, frame = 0
  31              		@ frame_needed = 0, uses_anonymous_args = 0
  32              	.LVL0:
  33 0000 30B5     		push	{r4, r5, lr}
  34              		.cfi_def_cfa_offset 12
  35              		.cfi_offset 4, -12
  36              		.cfi_offset 5, -8
  37              		.cfi_offset 14, -4
  38              	.LVL1:
ARM GAS  C:\Users\jagumiel\AppData\Local\Temp\ccvaxLDl.s 			page 2


  20:LIN_Frame_Calculations.h **** 	uint8_t parity_bit_even = 0x00;
  21:LIN_Frame_Calculations.h **** 	uint8_t parity_bit_odd = 0x00;
  22:LIN_Frame_Calculations.h **** 	uint8_t result = 0x00;
  23:LIN_Frame_Calculations.h **** 
  24:LIN_Frame_Calculations.h **** 	parity_bit_even = ((data ^ (data>>1))^((data>>2)^(data>>4)));
  39              		.loc 1 24 0
  40 0002 4208     		lsrs	r2, r0, #1
  41 0004 0509     		lsrs	r5, r0, #4
  42 0006 8308     		lsrs	r3, r0, #2
  43 0008 6B40     		eors	r3, r5
  44 000a 0400     		movs	r4, r0
  45 000c 5440     		eors	r4, r2
  46 000e 6340     		eors	r3, r4
  47 0010 1900     		movs	r1, r3
  48              	.LVL2:
  25:LIN_Frame_Calculations.h **** 	parity_bit_odd = (~(((data>>1) ^ (data>>3))^((data>>4)^(data>>5))));
  49              		.loc 1 25 0
  50 0012 C408     		lsrs	r4, r0, #3
  51 0014 6240     		eors	r2, r4
  52 0016 4009     		lsrs	r0, r0, #5
  53              	.LVL3:
  54 0018 6840     		eors	r0, r5
  55 001a 4240     		eors	r2, r0
  56 001c D243     		mvns	r2, r2
  57 001e D3B2     		uxtb	r3, r2
  58              	.LVL4:
  26:LIN_Frame_Calculations.h **** 	result = (parity_bit_odd<<1)|(parity_bit_even);
  59              		.loc 1 26 0
  60 0020 5B00     		lsls	r3, r3, #1
  61              	.LVL5:
  62 0022 0B43     		orrs	r3, r1
  63 0024 D8B2     		uxtb	r0, r3
  64              	.LVL6:
  27:LIN_Frame_Calculations.h **** 	return result;
  28:LIN_Frame_Calculations.h **** }
  65              		.loc 1 28 0
  66              		@ sp needed
  67 0026 30BD     		pop	{r4, r5, pc}
  68              		.cfi_endproc
  69              	.LFE33:
  70              		.size	LIN_ID_Parity_Calculator, .-LIN_ID_Parity_Calculator
  71              		.section	.text.LIN_PID_Calculator,"ax",%progbits
  72              		.align	2
  73              		.global	LIN_PID_Calculator
  74              		.code	16
  75              		.thumb_func
  76              		.type	LIN_PID_Calculator, %function
  77              	LIN_PID_Calculator:
  78              	.LFB34:
  29:LIN_Frame_Calculations.h **** 
  30:LIN_Frame_Calculations.h **** int LIN_PID_Calculator(uint8_t id){
  79              		.loc 1 30 0
  80              		.cfi_startproc
  81              		@ args = 0, pretend = 0, frame = 8
  82              		@ frame_needed = 0, uses_anonymous_args = 0
  83              	.LVL7:
  84 0000 70B5     		push	{r4, r5, r6, lr}
ARM GAS  C:\Users\jagumiel\AppData\Local\Temp\ccvaxLDl.s 			page 3


  85              		.cfi_def_cfa_offset 16
  86              		.cfi_offset 4, -16
  87              		.cfi_offset 5, -12
  88              		.cfi_offset 6, -8
  89              		.cfi_offset 14, -4
  90 0002 82B0     		sub	sp, sp, #8
  91              		.cfi_def_cfa_offset 24
  92 0004 0400     		movs	r4, r0
  31:LIN_Frame_Calculations.h **** 	volatile uint8_t pid_tmp=0x00;
  93              		.loc 1 31 0
  94 0006 6B46     		mov	r3, sp
  95 0008 DE1D     		adds	r6, r3, #7
  96 000a 0023     		movs	r3, #0
  97 000c 3370     		strb	r3, [r6]
  32:LIN_Frame_Calculations.h **** 	volatile uint8_t pid=0x00;
  98              		.loc 1 32 0
  99 000e 6A46     		mov	r2, sp
 100 0010 951D     		adds	r5, r2, #6
 101 0012 9371     		strb	r3, [r2, #6]
  33:LIN_Frame_Calculations.h **** 	pid_tmp=(LIN_ID_Parity_Calculator(id));
 102              		.loc 1 33 0
 103 0014 FFF7FEFF 		bl	LIN_ID_Parity_Calculator
 104              	.LVL8:
 105 0018 3070     		strb	r0, [r6]
  34:LIN_Frame_Calculations.h **** 	pid=(uint8_t)((id)|(pid_tmp<<6));
 106              		.loc 1 34 0
 107 001a 3378     		ldrb	r3, [r6]
 108 001c 9B01     		lsls	r3, r3, #6
 109 001e 1C43     		orrs	r4, r3
 110 0020 E4B2     		uxtb	r4, r4
 111 0022 2C70     		strb	r4, [r5]
  35:LIN_Frame_Calculations.h **** 	return pid;
 112              		.loc 1 35 0
 113 0024 2878     		ldrb	r0, [r5]
 114 0026 C0B2     		uxtb	r0, r0
  36:LIN_Frame_Calculations.h **** }
 115              		.loc 1 36 0
 116 0028 02B0     		add	sp, sp, #8
 117              		@ sp needed
 118 002a 70BD     		pop	{r4, r5, r6, pc}
 119              		.cfi_endproc
 120              	.LFE34:
 121              		.size	LIN_PID_Calculator, .-LIN_PID_Calculator
 122              		.section	.text.LIN_Checksum_Calculation,"ax",%progbits
 123              		.align	2
 124              		.global	LIN_Checksum_Calculation
 125              		.code	16
 126              		.thumb_func
 127              		.type	LIN_Checksum_Calculation, %function
 128              	LIN_Checksum_Calculation:
 129              	.LFB35:
  37:LIN_Frame_Calculations.h **** 
  38:LIN_Frame_Calculations.h **** uint8_t LIN_Checksum_Calculation (uint8_t u8Header, uint8_t *packet){
 130              		.loc 1 38 0
 131              		.cfi_startproc
 132              		@ args = 0, pretend = 0, frame = 0
 133              		@ frame_needed = 0, uses_anonymous_args = 0
ARM GAS  C:\Users\jagumiel\AppData\Local\Temp\ccvaxLDl.s 			page 4


 134              		@ link register save eliminated.
 135              	.LVL9:
  39:LIN_Frame_Calculations.h **** 	uint16_t u16Checksum_Cal = u8Header;
 136              		.loc 1 39 0
 137 0000 83B2     		uxth	r3, r0
 138              	.LVL10:
  40:LIN_Frame_Calculations.h **** 	uint8_t u8Cnt = 0u;
  41:LIN_Frame_Calculations.h **** 	uint8_t u8Checksum = 0;
  42:LIN_Frame_Calculations.h **** 
  43:LIN_Frame_Calculations.h **** 	for(u8Cnt = 0u; u8Cnt < PACKET_SIZE; u8Cnt++){
 139              		.loc 1 43 0
 140 0002 0022     		movs	r2, #0
 141 0004 04E0     		b	.L4
 142              	.LVL11:
 143              	.L5:
  44:LIN_Frame_Calculations.h **** 		/* Sum of all bytes */
  45:LIN_Frame_Calculations.h **** 		u16Checksum_Cal += *(packet + u8Cnt);
 144              		.loc 1 45 0 discriminator 3
 145 0006 885C     		ldrb	r0, [r1, r2]
 146 0008 1B18     		adds	r3, r3, r0
 147              	.LVL12:
 148 000a 9BB2     		uxth	r3, r3
 149              	.LVL13:
  43:LIN_Frame_Calculations.h **** 		/* Sum of all bytes */
 150              		.loc 1 43 0 discriminator 3
 151 000c 0132     		adds	r2, r2, #1
 152              	.LVL14:
 153 000e D2B2     		uxtb	r2, r2
 154              	.LVL15:
 155              	.L4:
  43:LIN_Frame_Calculations.h **** 		/* Sum of all bytes */
 156              		.loc 1 43 0 is_stmt 0 discriminator 1
 157 0010 032A     		cmp	r2, #3
 158 0012 F8D9     		bls	.L5
  46:LIN_Frame_Calculations.h **** 	}
  47:LIN_Frame_Calculations.h **** 
  48:LIN_Frame_Calculations.h **** 	/* Add carry and XOR with FF to invert the bits */
  49:LIN_Frame_Calculations.h **** 	u8Checksum = (0xFF ^ ((u16Checksum_Cal & 0x00FF) + (u16Checksum_Cal >> 8)));
 159              		.loc 1 49 0 is_stmt 1
 160 0014 180A     		lsrs	r0, r3, #8
 161 0016 C318     		adds	r3, r0, r3
 162              	.LVL16:
 163 0018 D843     		mvns	r0, r3
 164 001a C0B2     		uxtb	r0, r0
 165              	.LVL17:
  50:LIN_Frame_Calculations.h **** 	return(u8Checksum);
  51:LIN_Frame_Calculations.h **** }
 166              		.loc 1 51 0
 167              		@ sp needed
 168 001c 7047     		bx	lr
 169              		.cfi_endproc
 170              	.LFE35:
 171              		.size	LIN_Checksum_Calculation, .-LIN_Checksum_Calculation
 172 001e C046     		.section	.text.sendFrame,"ax",%progbits
 173              		.align	2
 174              		.global	sendFrame
 175              		.code	16
ARM GAS  C:\Users\jagumiel\AppData\Local\Temp\ccvaxLDl.s 			page 5


 176              		.thumb_func
 177              		.type	sendFrame, %function
 178              	sendFrame:
 179              	.LFB36:
 180              		.file 2 "main.c"
   1:main.c        **** /* ===========================================
   2:main.c        ****  * ___________________________________________
   3:main.c        ****  *     LIN: Sonceboz Stepper Motor Control
   4:main.c        ****  * -------------------------------------------
   5:main.c        ****  * This is the first project using a real LIN
   6:main.c        ****  * slave. Sonceboz 5877R1007 stepper motor is
   7:main.c        ****  * used for this test. The aim is to calibrate
   8:main.c        ****  * and change the position of the motor.
   9:main.c        ****  *
  10:main.c        ****  * A LIN transceiver will be needed for
  11:main.c        ****  * this project.
  12:main.c        ****  *
  13:main.c        ****  * Cypress CY8CKIT-042 and CY8CKIT-026 are
  14:main.c        ****  * used in this project with Sonceboz motor.
  15:main.c        ****  *
  16:main.c        ****  * ===========================================
  17:main.c        **** */
  18:main.c        **** 
  19:main.c        **** #include <stdlib.h> /* Needed for "atoi()" function */
  20:main.c        **** #include "project.h"
  21:main.c        **** #include "LIN_Frame_Calculations.h"
  22:main.c        **** 
  23:main.c        **** volatile unsigned char sonceboz_ans[10];
  24:main.c        **** const uint8_t sync = 0x55;
  25:main.c        **** uint8_t id = 0x10;
  26:main.c        **** 
  27:main.c        **** uint8_t slaveResponse[10]={0x00, 0x00, 0x00, 0x00, 0x00, 0x00, 0x00, 0x00, 0x00, 0x00};;
  28:main.c        **** //uint8_t packet1[PACKET_SIZE] = {0x15, 0xAF, 0x80, 0x25, 0xFF, 0xFF, 0xFF, 0xFF};
  29:main.c        **** uint8_t pos_open[PACKET_SIZE]  = {0xF0, 0x01, 0x00, 0x00};
  30:main.c        **** uint8_t pos_close[PACKET_SIZE] = {0x00, 0x01, 0x00, 0x00};
  31:main.c        **** uint8_t pos_calib[PACKET_SIZE] = {0x00, 0x00, 0x00, 0x00};
  32:main.c        **** uint8_t sonceboz_pos=0x00;
  33:main.c        **** uint8_t sonceboz_status=0x00;
  34:main.c        **** _Bool sonceboz_vaneCalAct=0b1;
  35:main.c        **** 
  36:main.c        **** uint8_t pid = 0x00;
  37:main.c        **** uint8_t checksum = 0x00;
  38:main.c        **** uint8_t calibrationEnable[3]= {0x00, 0x00, 0x00};
  39:main.c        **** uint8_t parar=1;
  40:main.c        **** 
  41:main.c        **** 
  42:main.c        **** void sendFrame(uint8_t packet[]){
 181              		.loc 2 42 0
 182              		.cfi_startproc
 183              		@ args = 0, pretend = 0, frame = 0
 184              		@ frame_needed = 0, uses_anonymous_args = 0
 185              	.LVL18:
 186 0000 70B5     		push	{r4, r5, r6, lr}
 187              		.cfi_def_cfa_offset 16
 188              		.cfi_offset 4, -16
 189              		.cfi_offset 5, -12
 190              		.cfi_offset 6, -8
ARM GAS  C:\Users\jagumiel\AppData\Local\Temp\ccvaxLDl.s 			page 6


 191              		.cfi_offset 14, -4
 192 0002 0500     		movs	r5, r0
  43:main.c        ****     NSLP_Write(1);
 193              		.loc 2 43 0
 194 0004 0120     		movs	r0, #1
 195              	.LVL19:
 196 0006 FFF7FEFF 		bl	NSLP_Write
 197              	.LVL20:
  44:main.c        ****     id=0x32;
 198              		.loc 2 44 0
 199 000a 3222     		movs	r2, #50
 200 000c 134B     		ldr	r3, .L9
 201 000e 1A70     		strb	r2, [r3]
  45:main.c        ****     pid=LIN_PID_Calculator(id);
 202              		.loc 2 45 0
 203 0010 3220     		movs	r0, #50
 204 0012 FFF7FEFF 		bl	LIN_PID_Calculator
 205              	.LVL21:
 206 0016 124C     		ldr	r4, .L9+4
 207 0018 2070     		strb	r0, [r4]
  46:main.c        ****     checksum=LIN_Checksum_Calculation(0x00, packet);
 208              		.loc 2 46 0
 209 001a 2900     		movs	r1, r5
 210 001c 0020     		movs	r0, #0
 211 001e FFF7FEFF 		bl	LIN_Checksum_Calculation
 212              	.LVL22:
 213 0022 6070     		strb	r0, [r4, #1]
  47:main.c        ****     UART_MASTER_UartSendBreakBlocking(13);                          // Break
 214              		.loc 2 47 0
 215 0024 0D20     		movs	r0, #13
 216 0026 FFF7FEFF 		bl	UART_MASTER_UartSendBreakBlocking
 217              	.LVL23:
  48:main.c        ****     UART_MASTER_UartPutChar(sync);                                  // Sync (0x55)
 218              		.loc 2 48 0
 219 002a 5520     		movs	r0, #85
 220 002c FFF7FEFF 		bl	UART_MASTER_SpiUartWriteTxData
 221              	.LVL24:
  49:main.c        ****     UART_MASTER_UartPutChar(pid);                                   // Protected ID (PID). Se obtie
 222              		.loc 2 49 0
 223 0030 2078     		ldrb	r0, [r4]
 224 0032 FFF7FEFF 		bl	UART_MASTER_SpiUartWriteTxData
 225              	.LVL25:
 226              	.LBB2:
  50:main.c        ****     for(int i=0; i<4; i++){
 227              		.loc 2 50 0
 228 0036 0024     		movs	r4, #0
 229 0038 03E0     		b	.L7
 230              	.LVL26:
 231              	.L8:
  51:main.c        ****         UART_MASTER_UartPutChar(packet[i]);                         // Command Frame
 232              		.loc 2 51 0 discriminator 3
 233 003a 285D     		ldrb	r0, [r5, r4]
 234 003c FFF7FEFF 		bl	UART_MASTER_SpiUartWriteTxData
 235              	.LVL27:
  50:main.c        ****     for(int i=0; i<4; i++){
 236              		.loc 2 50 0 discriminator 3
 237 0040 0134     		adds	r4, r4, #1
ARM GAS  C:\Users\jagumiel\AppData\Local\Temp\ccvaxLDl.s 			page 7


 238              	.LVL28:
 239              	.L7:
  50:main.c        ****     for(int i=0; i<4; i++){
 240              		.loc 2 50 0 is_stmt 0 discriminator 1
 241 0042 032C     		cmp	r4, #3
 242 0044 F9DD     		ble	.L8
 243              	.LBE2:
  52:main.c        ****     }
  53:main.c        ****     UART_MASTER_UartPutChar(checksum);                              // Checksum. En LIN 2.2 se obti
 244              		.loc 2 53 0 is_stmt 1
 245 0046 064B     		ldr	r3, .L9+4
 246 0048 5878     		ldrb	r0, [r3, #1]
 247 004a FFF7FEFF 		bl	UART_MASTER_SpiUartWriteTxData
 248              	.LVL29:
  54:main.c        ****     /* Delay is needed before setting NSLP to 0. Minimum value is 7ms. If there is no delay the fra
  55:main.c        ****     CyDelay(7);
 249              		.loc 2 55 0
 250 004e 0720     		movs	r0, #7
 251 0050 FFF7FEFF 		bl	CyDelay
 252              	.LVL30:
  56:main.c        ****     NSLP_Write(0);
 253              		.loc 2 56 0
 254 0054 0020     		movs	r0, #0
 255 0056 FFF7FEFF 		bl	NSLP_Write
 256              	.LVL31:
  57:main.c        **** }
 257              		.loc 2 57 0
 258              		@ sp needed
 259              	.LVL32:
 260              	.LVL33:
 261 005a 70BD     		pop	{r4, r5, r6, pc}
 262              	.L10:
 263              		.align	2
 264              	.L9:
 265 005c 00000000 		.word	.LANCHOR0
 266 0060 00000000 		.word	.LANCHOR1
 267              		.cfi_endproc
 268              	.LFE36:
 269              		.size	sendFrame, .-sendFrame
 270              		.section	.text.getSlaveResponse,"ax",%progbits
 271              		.align	2
 272              		.global	getSlaveResponse
 273              		.code	16
 274              		.thumb_func
 275              		.type	getSlaveResponse, %function
 276              	getSlaveResponse:
 277              	.LFB37:
  58:main.c        **** 
  59:main.c        **** void getSlaveResponse(){
 278              		.loc 2 59 0
 279              		.cfi_startproc
 280              		@ args = 0, pretend = 0, frame = 0
 281              		@ frame_needed = 0, uses_anonymous_args = 0
 282 0000 10B5     		push	{r4, lr}
 283              		.cfi_def_cfa_offset 8
 284              		.cfi_offset 4, -8
 285              		.cfi_offset 14, -4
ARM GAS  C:\Users\jagumiel\AppData\Local\Temp\ccvaxLDl.s 			page 8


  60:main.c        ****     id=0x34;
 286              		.loc 2 60 0
 287 0002 3422     		movs	r2, #52
 288 0004 104B     		ldr	r3, .L14
 289 0006 1A70     		strb	r2, [r3]
  61:main.c        ****     pid=LIN_PID_Calculator(id);
 290              		.loc 2 61 0
 291 0008 3420     		movs	r0, #52
 292 000a FFF7FEFF 		bl	LIN_PID_Calculator
 293              	.LVL34:
 294 000e 0F4C     		ldr	r4, .L14+4
 295 0010 2070     		strb	r0, [r4]
  62:main.c        ****     NSLP_Write(1);
 296              		.loc 2 62 0
 297 0012 0120     		movs	r0, #1
 298 0014 FFF7FEFF 		bl	NSLP_Write
 299              	.LVL35:
  63:main.c        ****     UART_MASTER_UartSendBreakBlocking(13);                          // Break
 300              		.loc 2 63 0
 301 0018 0D20     		movs	r0, #13
 302 001a FFF7FEFF 		bl	UART_MASTER_UartSendBreakBlocking
 303              	.LVL36:
  64:main.c        ****     UART_MASTER_UartPutChar(sync);                                  // Sync (0x55)
 304              		.loc 2 64 0
 305 001e 5520     		movs	r0, #85
 306 0020 FFF7FEFF 		bl	UART_MASTER_SpiUartWriteTxData
 307              	.LVL37:
  65:main.c        ****     UART_MASTER_UartPutChar(pid);                                   // Protected ID (PID). Se obtie
 308              		.loc 2 65 0
 309 0024 2078     		ldrb	r0, [r4]
 310 0026 FFF7FEFF 		bl	UART_MASTER_SpiUartWriteTxData
 311              	.LVL38:
 312              	.LBB3:
  66:main.c        **** 
  67:main.c        ****     
  68:main.c        ****     for (int i=0; i<9; i++){
 313              		.loc 2 68 0
 314 002a 0024     		movs	r4, #0
 315 002c 05E0     		b	.L12
 316              	.LVL39:
 317              	.L13:
  69:main.c        ****         slaveResponse[i] = UART_MASTER_UartGetChar();
 318              		.loc 2 69 0 discriminator 3
 319 002e FFF7FEFF 		bl	UART_MASTER_UartGetChar
 320              	.LVL40:
 321 0032 064B     		ldr	r3, .L14+4
 322 0034 1B19     		adds	r3, r3, r4
 323 0036 1871     		strb	r0, [r3, #4]
  68:main.c        ****         slaveResponse[i] = UART_MASTER_UartGetChar();
 324              		.loc 2 68 0 discriminator 3
 325 0038 0134     		adds	r4, r4, #1
 326              	.LVL41:
 327              	.L12:
  68:main.c        ****         slaveResponse[i] = UART_MASTER_UartGetChar();
 328              		.loc 2 68 0 is_stmt 0 discriminator 1
 329 003a 082C     		cmp	r4, #8
 330 003c F7DD     		ble	.L13
ARM GAS  C:\Users\jagumiel\AppData\Local\Temp\ccvaxLDl.s 			page 9


 331              	.LBE3:
  70:main.c        ****     }
  71:main.c        ****     
  72:main.c        ****     //bitStatus = (num >> n) & 1;
  73:main.c        ****     /*sonceboz_pos=slaveResponse[2];
  74:main.c        ****     sonceboz_status=slaveResponse[3];
  75:main.c        ****     sonceboz_vaneCalAct=(sonceboz_status >> 7) & 1;
  76:main.c        ****     CyDelay(7);*/
  77:main.c        ****     NSLP_Write(0);
 332              		.loc 2 77 0 is_stmt 1
 333 003e 0020     		movs	r0, #0
 334 0040 FFF7FEFF 		bl	NSLP_Write
 335              	.LVL42:
  78:main.c        **** }
 336              		.loc 2 78 0
 337              		@ sp needed
 338              	.LVL43:
 339 0044 10BD     		pop	{r4, pc}
 340              	.L15:
 341 0046 C046     		.align	2
 342              	.L14:
 343 0048 00000000 		.word	.LANCHOR0
 344 004c 00000000 		.word	.LANCHOR1
 345              		.cfi_endproc
 346              	.LFE37:
 347              		.size	getSlaveResponse, .-getSlaveResponse
 348              		.section	.text.calibrate,"ax",%progbits
 349              		.align	2
 350              		.global	calibrate
 351              		.code	16
 352              		.thumb_func
 353              		.type	calibrate, %function
 354              	calibrate:
 355              	.LFB38:
  79:main.c        **** 
  80:main.c        **** void calibrate(){
 356              		.loc 2 80 0
 357              		.cfi_startproc
 358              		@ args = 0, pretend = 0, frame = 0
 359              		@ frame_needed = 0, uses_anonymous_args = 0
 360 0000 10B5     		push	{r4, lr}
 361              		.cfi_def_cfa_offset 8
 362              		.cfi_offset 4, -8
 363              		.cfi_offset 14, -4
  81:main.c        ****     sendFrame(pos_open);
 364              		.loc 2 81 0
 365 0002 2848     		ldr	r0, .L25
 366 0004 0430     		adds	r0, r0, #4
 367 0006 FFF7FEFF 		bl	sendFrame
 368              	.LVL44:
  82:main.c        ****     while(sonceboz_vaneCalAct!=0x00){
 369              		.loc 2 82 0
 370 000a 20E0     		b	.L17
 371              	.L20:
  83:main.c        ****         sendFrame(pos_open);
 372              		.loc 2 83 0
 373 000c 2548     		ldr	r0, .L25
ARM GAS  C:\Users\jagumiel\AppData\Local\Temp\ccvaxLDl.s 			page 10


 374 000e 0430     		adds	r0, r0, #4
 375 0010 FFF7FEFF 		bl	sendFrame
 376              	.LVL45:
 377              	.LBB4:
  84:main.c        ****         
  85:main.c        ****         for (int i=0; i<10; i++){  
 378              		.loc 2 85 0
 379 0014 0024     		movs	r4, #0
 380 0016 0CE0     		b	.L18
 381              	.LVL46:
 382              	.L19:
  86:main.c        ****             getSlaveResponse();
 383              		.loc 2 86 0 discriminator 3
 384 0018 FFF7FEFF 		bl	getSlaveResponse
 385              	.LVL47:
  87:main.c        ****             CyDelay(25);
 386              		.loc 2 87 0 discriminator 3
 387 001c 1920     		movs	r0, #25
 388 001e FFF7FEFF 		bl	CyDelay
 389              	.LVL48:
  88:main.c        ****             sendFrame(pos_open);
 390              		.loc 2 88 0 discriminator 3
 391 0022 2048     		ldr	r0, .L25
 392 0024 0430     		adds	r0, r0, #4
 393 0026 FFF7FEFF 		bl	sendFrame
 394              	.LVL49:
  89:main.c        ****             CyDelay(25);
 395              		.loc 2 89 0 discriminator 3
 396 002a 1920     		movs	r0, #25
 397 002c FFF7FEFF 		bl	CyDelay
 398              	.LVL50:
  85:main.c        ****             getSlaveResponse();
 399              		.loc 2 85 0 discriminator 3
 400 0030 0134     		adds	r4, r4, #1
 401              	.LVL51:
 402              	.L18:
  85:main.c        ****             getSlaveResponse();
 403              		.loc 2 85 0 is_stmt 0 discriminator 1
 404 0032 092C     		cmp	r4, #9
 405 0034 F0DD     		ble	.L19
 406              	.LBE4:
  90:main.c        ****         }
  91:main.c        ****         sonceboz_pos=slaveResponse[3];
 407              		.loc 2 91 0 is_stmt 1
 408 0036 1C4A     		ldr	r2, .L25+4
 409 0038 D379     		ldrb	r3, [r2, #7]
 410 003a 9373     		strb	r3, [r2, #14]
  92:main.c        ****         sonceboz_status=slaveResponse[4];
 411              		.loc 2 92 0
 412 003c 137A     		ldrb	r3, [r2, #8]
 413 003e D373     		strb	r3, [r2, #15]
  93:main.c        ****         sonceboz_vaneCalAct=(sonceboz_status >> 7) & 1;
 414              		.loc 2 93 0
 415 0040 DB09     		lsrs	r3, r3, #7
 416 0042 184A     		ldr	r2, .L25
 417 0044 1372     		strb	r3, [r2, #8]
  94:main.c        ****         CyDelay(500);
ARM GAS  C:\Users\jagumiel\AppData\Local\Temp\ccvaxLDl.s 			page 11


 418              		.loc 2 94 0
 419 0046 FA20     		movs	r0, #250
 420 0048 4000     		lsls	r0, r0, #1
 421 004a FFF7FEFF 		bl	CyDelay
 422              	.LVL52:
 423              	.L17:
  82:main.c        ****         sendFrame(pos_open);
 424              		.loc 2 82 0
 425 004e 154B     		ldr	r3, .L25
 426 0050 1B7A     		ldrb	r3, [r3, #8]
 427 0052 002B     		cmp	r3, #0
 428 0054 DAD1     		bne	.L20
 429 0056 0024     		movs	r4, #0
 430 0058 10E0     		b	.L21
 431              	.LVL53:
 432              	.L22:
 433              	.LBB5:
  95:main.c        ****     }
  96:main.c        ****     for (int i=0; i<10; i++){
  97:main.c        ****         getSlaveResponse();
 434              		.loc 2 97 0 discriminator 3
 435 005a FFF7FEFF 		bl	getSlaveResponse
 436              	.LVL54:
  98:main.c        ****         CyDelay(25);
 437              		.loc 2 98 0 discriminator 3
 438 005e 1920     		movs	r0, #25
 439 0060 FFF7FEFF 		bl	CyDelay
 440              	.LVL55:
  99:main.c        ****         sendFrame(pos_close);
 441              		.loc 2 99 0 discriminator 3
 442 0064 0F48     		ldr	r0, .L25
 443 0066 0C30     		adds	r0, r0, #12
 444 0068 FFF7FEFF 		bl	sendFrame
 445              	.LVL56:
 100:main.c        ****         CyDelay(25);
 446              		.loc 2 100 0 discriminator 3
 447 006c 1920     		movs	r0, #25
 448 006e FFF7FEFF 		bl	CyDelay
 449              	.LVL57:
 101:main.c        ****         CyDelay(500);
 450              		.loc 2 101 0 discriminator 3
 451 0072 FA20     		movs	r0, #250
 452 0074 4000     		lsls	r0, r0, #1
 453 0076 FFF7FEFF 		bl	CyDelay
 454              	.LVL58:
  96:main.c        ****         getSlaveResponse();
 455              		.loc 2 96 0 discriminator 3
 456 007a 0134     		adds	r4, r4, #1
 457              	.LVL59:
 458              	.L21:
  96:main.c        ****         getSlaveResponse();
 459              		.loc 2 96 0 is_stmt 0 discriminator 1
 460 007c 092C     		cmp	r4, #9
 461 007e ECDD     		ble	.L22
 462 0080 0024     		movs	r4, #0
 463              	.LVL60:
 464 0082 0CE0     		b	.L23
ARM GAS  C:\Users\jagumiel\AppData\Local\Temp\ccvaxLDl.s 			page 12


 465              	.LVL61:
 466              	.L24:
 467              	.LBE5:
 468              	.LBB6:
 102:main.c        ****     }
 103:main.c        ****     //CyDelay(500);
 104:main.c        ****     for (int i=0; i<10; i++){
 105:main.c        ****         getSlaveResponse();
 469              		.loc 2 105 0 is_stmt 1 discriminator 3
 470 0084 FFF7FEFF 		bl	getSlaveResponse
 471              	.LVL62:
 106:main.c        ****         CyDelay(25);
 472              		.loc 2 106 0 discriminator 3
 473 0088 1920     		movs	r0, #25
 474 008a FFF7FEFF 		bl	CyDelay
 475              	.LVL63:
 107:main.c        ****         sendFrame(pos_calib);
 476              		.loc 2 107 0 discriminator 3
 477 008e 0648     		ldr	r0, .L25+4
 478 0090 1030     		adds	r0, r0, #16
 479 0092 FFF7FEFF 		bl	sendFrame
 480              	.LVL64:
 108:main.c        ****         CyDelay(25);
 481              		.loc 2 108 0 discriminator 3
 482 0096 1920     		movs	r0, #25
 483 0098 FFF7FEFF 		bl	CyDelay
 484              	.LVL65:
 104:main.c        ****         getSlaveResponse();
 485              		.loc 2 104 0 discriminator 3
 486 009c 0134     		adds	r4, r4, #1
 487              	.LVL66:
 488              	.L23:
 104:main.c        ****         getSlaveResponse();
 489              		.loc 2 104 0 is_stmt 0 discriminator 1
 490 009e 092C     		cmp	r4, #9
 491 00a0 F0DD     		ble	.L24
 492              	.LBE6:
 109:main.c        ****     }
 110:main.c        **** }
 493              		.loc 2 110 0 is_stmt 1
 494              		@ sp needed
 495              	.LVL67:
 496 00a2 10BD     		pop	{r4, pc}
 497              	.L26:
 498              		.align	2
 499              	.L25:
 500 00a4 00000000 		.word	.LANCHOR0
 501 00a8 00000000 		.word	.LANCHOR1
 502              		.cfi_endproc
 503              	.LFE38:
 504              		.size	calibrate, .-calibrate
 505              		.section	.text.main,"ax",%progbits
 506              		.align	2
 507              		.global	main
 508              		.code	16
 509              		.thumb_func
 510              		.type	main, %function
ARM GAS  C:\Users\jagumiel\AppData\Local\Temp\ccvaxLDl.s 			page 13


 511              	main:
 512              	.LFB39:
 111:main.c        **** 
 112:main.c        **** 
 113:main.c        **** int main(void){
 513              		.loc 2 113 0
 514              		.cfi_startproc
 515              		@ args = 0, pretend = 0, frame = 8
 516              		@ frame_needed = 0, uses_anonymous_args = 0
 517 0000 30B5     		push	{r4, r5, lr}
 518              		.cfi_def_cfa_offset 12
 519              		.cfi_offset 4, -12
 520              		.cfi_offset 5, -8
 521              		.cfi_offset 14, -4
 522 0002 83B0     		sub	sp, sp, #12
 523              		.cfi_def_cfa_offset 24
 114:main.c        ****     
 115:main.c        ****     /* Enable global interrupts. */
 116:main.c        ****     CyGlobalIntEnable;
 524              		.loc 2 116 0
 525              		.syntax divided
 526              	@ 116 "main.c" 1
 527 0004 62B6     		CPSIE   i
 528              	@ 0 "" 2
 117:main.c        **** 
 118:main.c        ****     /* Start UART/LIN Master */
 119:main.c        ****     UART_MASTER_Start();
 529              		.loc 2 119 0
 530              		.thumb
 531              		.syntax unified
 532 0006 FFF7FEFF 		bl	UART_MASTER_Start
 533              	.LVL68:
 120:main.c        ****     calibrate();
 534              		.loc 2 120 0
 535 000a FFF7FEFF 		bl	calibrate
 536              	.LVL69:
 537              	.L28:
 538              	.LBB7:
 121:main.c        ****     
 122:main.c        ****     /*while(1){
 123:main.c        ****         getSlaveResponse();
 124:main.c        ****     }*/
 125:main.c        ****     
 126:main.c        ****     for (;;){
 127:main.c        ****         uint8_t trama1[4]={0x32, 0x00, 0x00, 0x00};
 539              		.loc 2 127 0 discriminator 1
 540 000e 3223     		movs	r3, #50
 541 0010 6A46     		mov	r2, sp
 542 0012 1370     		strb	r3, [r2]
 543 0014 0023     		movs	r3, #0
 544 0016 5370     		strb	r3, [r2, #1]
 545 0018 9370     		strb	r3, [r2, #2]
 546 001a D370     		strb	r3, [r2, #3]
 128:main.c        ****         uint8_t trama2[4]={0xc0, 0x00, 0x00, 0x00};
 547              		.loc 2 128 0 discriminator 1
 548 001c 01AC     		add	r4, sp, #4
 549 001e C022     		movs	r2, #192
ARM GAS  C:\Users\jagumiel\AppData\Local\Temp\ccvaxLDl.s 			page 14


 550 0020 2270     		strb	r2, [r4]
 551 0022 6370     		strb	r3, [r4, #1]
 552 0024 A370     		strb	r3, [r4, #2]
 553 0026 E370     		strb	r3, [r4, #3]
 129:main.c        ****         sendFrame(trama1);
 554              		.loc 2 129 0 discriminator 1
 555 0028 6846     		mov	r0, sp
 556 002a FFF7FEFF 		bl	sendFrame
 557              	.LVL70:
 130:main.c        ****         CyDelay(2500);
 558              		.loc 2 130 0 discriminator 1
 559 002e 054D     		ldr	r5, .L29
 560 0030 2800     		movs	r0, r5
 561 0032 FFF7FEFF 		bl	CyDelay
 562              	.LVL71:
 131:main.c        ****         sendFrame(trama2);
 563              		.loc 2 131 0 discriminator 1
 564 0036 2000     		movs	r0, r4
 565 0038 FFF7FEFF 		bl	sendFrame
 566              	.LVL72:
 132:main.c        ****         CyDelay(2500);
 567              		.loc 2 132 0 discriminator 1
 568 003c 2800     		movs	r0, r5
 569 003e FFF7FEFF 		bl	CyDelay
 570              	.LVL73:
 571 0042 E4E7     		b	.L28
 572              	.L30:
 573              		.align	2
 574              	.L29:
 575 0044 C4090000 		.word	2500
 576              	.LBE7:
 577              		.cfi_endproc
 578              	.LFE39:
 579              		.size	main, .-main
 580              		.global	parar
 581              		.global	calibrationEnable
 582              		.global	checksum
 583              		.global	pid
 584              		.global	sonceboz_vaneCalAct
 585              		.global	sonceboz_status
 586              		.global	sonceboz_pos
 587              		.global	pos_calib
 588              		.global	pos_close
 589              		.global	pos_open
 590              		.global	slaveResponse
 591              		.global	id
 592              		.global	sync
 593              		.comm	sonceboz_ans,10,4
 594              		.section	.rodata
 595              		.type	sync, %object
 596              		.size	sync, 1
 597              	sync:
 598 0000 55       		.byte	85
 599              		.data
 600              		.align	2
 601              		.set	.LANCHOR0,. + 0
 602              		.type	id, %object
ARM GAS  C:\Users\jagumiel\AppData\Local\Temp\ccvaxLDl.s 			page 15


 603              		.size	id, 1
 604              	id:
 605 0000 10       		.byte	16
 606 0001 000000   		.space	3
 607              		.type	pos_open, %object
 608              		.size	pos_open, 4
 609              	pos_open:
 610 0004 F0       		.byte	-16
 611 0005 01       		.byte	1
 612 0006 00       		.byte	0
 613 0007 00       		.byte	0
 614              		.type	sonceboz_vaneCalAct, %object
 615              		.size	sonceboz_vaneCalAct, 1
 616              	sonceboz_vaneCalAct:
 617 0008 01       		.byte	1
 618 0009 000000   		.space	3
 619              		.type	pos_close, %object
 620              		.size	pos_close, 4
 621              	pos_close:
 622 000c 00       		.byte	0
 623 000d 01       		.byte	1
 624 000e 00       		.byte	0
 625 000f 00       		.byte	0
 626              		.type	parar, %object
 627              		.size	parar, 1
 628              	parar:
 629 0010 01       		.byte	1
 630              		.bss
 631              		.align	2
 632              		.set	.LANCHOR1,. + 0
 633              		.type	pid, %object
 634              		.size	pid, 1
 635              	pid:
 636 0000 00       		.space	1
 637              		.type	checksum, %object
 638              		.size	checksum, 1
 639              	checksum:
 640 0001 00       		.space	1
 641 0002 0000     		.space	2
 642              		.type	slaveResponse, %object
 643              		.size	slaveResponse, 10
 644              	slaveResponse:
 645 0004 00000000 		.space	10
 645      00000000 
 645      0000
 646              		.type	sonceboz_pos, %object
 647              		.size	sonceboz_pos, 1
 648              	sonceboz_pos:
 649 000e 00       		.space	1
 650              		.type	sonceboz_status, %object
 651              		.size	sonceboz_status, 1
 652              	sonceboz_status:
 653 000f 00       		.space	1
 654              		.type	pos_calib, %object
 655              		.size	pos_calib, 4
 656              	pos_calib:
 657 0010 00000000 		.space	4
ARM GAS  C:\Users\jagumiel\AppData\Local\Temp\ccvaxLDl.s 			page 16


 658              		.type	calibrationEnable, %object
 659              		.size	calibrationEnable, 3
 660              	calibrationEnable:
 661 0014 000000   		.space	3
 662              		.text
 663              	.Letext0:
 664              		.file 3 "c:\\program files (x86)\\cypress\\psoc creator\\4.2\\psoc creator\\import\\gnu\\arm\\5.4.
 665              		.file 4 "c:\\program files (x86)\\cypress\\psoc creator\\4.2\\psoc creator\\import\\gnu\\arm\\5.4.
 666              		.file 5 "Generated_Source\\PSoC4/cytypes.h"
 667              		.file 6 "Generated_Source\\PSoC4/UART_MASTER_SPI_UART.h"
 668              		.file 7 "Generated_Source\\PSoC4/NSLP.h"
 669              		.file 8 "Generated_Source\\PSoC4/CyLib.h"
 670              		.file 9 "Generated_Source\\PSoC4/UART_MASTER.h"