ARM GAS  C:\Users\jagumiel\AppData\Local\Temp\ccBSd2SA.s 			page 1


   1              		.syntax unified
   2              		.cpu cortex-m0
   3              		.fpu softvfp
   4              		.eabi_attribute 20, 1
   5              		.eabi_attribute 21, 1
   6              		.eabi_attribute 23, 3
   7              		.eabi_attribute 24, 1
   8              		.eabi_attribute 25, 1
   9              		.eabi_attribute 26, 1
  10              		.eabi_attribute 30, 1
  11              		.eabi_attribute 34, 0
  12              		.eabi_attribute 18, 4
  13              		.thumb
  14              		.syntax unified
  15              		.file	"PWM_R.c"
  16              		.text
  17              	.Ltext0:
  18              		.cfi_sections	.debug_frame
  19              		.section	.text.PWM_R_Enable,"ax",%progbits
  20              		.align	2
  21              		.global	PWM_R_Enable
  22              		.code	16
  23              		.thumb_func
  24              		.type	PWM_R_Enable, %function
  25              	PWM_R_Enable:
  26              	.LFB2:
  27              		.file 1 "Generated_Source\\PSoC4\\PWM_R.c"
   1:Generated_Source\PSoC4/PWM_R.c **** /*******************************************************************************
   2:Generated_Source\PSoC4/PWM_R.c **** * File Name: PWM_R.c
   3:Generated_Source\PSoC4/PWM_R.c **** * Version 3.30
   4:Generated_Source\PSoC4/PWM_R.c **** *
   5:Generated_Source\PSoC4/PWM_R.c **** * Description:
   6:Generated_Source\PSoC4/PWM_R.c **** *  The PWM User Module consist of an 8 or 16-bit counter with two 8 or 16-bit
   7:Generated_Source\PSoC4/PWM_R.c **** *  comparitors. Each instance of this user module is capable of generating
   8:Generated_Source\PSoC4/PWM_R.c **** *  two PWM outputs with the same period. The pulse width is selectable between
   9:Generated_Source\PSoC4/PWM_R.c **** *  1 and 255/65535. The period is selectable between 2 and 255/65536 clocks.
  10:Generated_Source\PSoC4/PWM_R.c **** *  The compare value output may be configured to be active when the present
  11:Generated_Source\PSoC4/PWM_R.c **** *  counter is less than or less than/equal to the compare value.
  12:Generated_Source\PSoC4/PWM_R.c **** *  A terminal count output is also provided. It generates a pulse one clock
  13:Generated_Source\PSoC4/PWM_R.c **** *  width wide when the counter is equal to zero.
  14:Generated_Source\PSoC4/PWM_R.c **** *
  15:Generated_Source\PSoC4/PWM_R.c **** * Note:
  16:Generated_Source\PSoC4/PWM_R.c **** *
  17:Generated_Source\PSoC4/PWM_R.c **** *******************************************************************************
  18:Generated_Source\PSoC4/PWM_R.c **** * Copyright 2008-2014, Cypress Semiconductor Corporation.  All rights reserved.
  19:Generated_Source\PSoC4/PWM_R.c **** * You may use this file only in accordance with the license, terms, conditions,
  20:Generated_Source\PSoC4/PWM_R.c **** * disclaimers, and limitations in the end user license agreement accompanying
  21:Generated_Source\PSoC4/PWM_R.c **** * the software package with which this file was provided.
  22:Generated_Source\PSoC4/PWM_R.c **** ********************************************************************************/
  23:Generated_Source\PSoC4/PWM_R.c **** 
  24:Generated_Source\PSoC4/PWM_R.c **** #include "PWM_R.h"
  25:Generated_Source\PSoC4/PWM_R.c **** 
  26:Generated_Source\PSoC4/PWM_R.c **** /* Error message for removed <resource> through optimization */
  27:Generated_Source\PSoC4/PWM_R.c **** #ifdef PWM_R_PWMUDB_genblk1_ctrlreg__REMOVED
  28:Generated_Source\PSoC4/PWM_R.c ****     #error PWM_v3_30 detected with a constant 0 for the enable or \
  29:Generated_Source\PSoC4/PWM_R.c ****          constant 1 for reset. This will prevent the component from operating.
  30:Generated_Source\PSoC4/PWM_R.c **** #endif /* PWM_R_PWMUDB_genblk1_ctrlreg__REMOVED */
ARM GAS  C:\Users\jagumiel\AppData\Local\Temp\ccBSd2SA.s 			page 2


  31:Generated_Source\PSoC4/PWM_R.c **** 
  32:Generated_Source\PSoC4/PWM_R.c **** uint8 PWM_R_initVar = 0u;
  33:Generated_Source\PSoC4/PWM_R.c **** 
  34:Generated_Source\PSoC4/PWM_R.c **** 
  35:Generated_Source\PSoC4/PWM_R.c **** /*******************************************************************************
  36:Generated_Source\PSoC4/PWM_R.c **** * Function Name: PWM_R_Start
  37:Generated_Source\PSoC4/PWM_R.c **** ********************************************************************************
  38:Generated_Source\PSoC4/PWM_R.c **** *
  39:Generated_Source\PSoC4/PWM_R.c **** * Summary:
  40:Generated_Source\PSoC4/PWM_R.c **** *  The start function initializes the pwm with the default values, the
  41:Generated_Source\PSoC4/PWM_R.c **** *  enables the counter to begin counting.  It does not enable interrupts,
  42:Generated_Source\PSoC4/PWM_R.c **** *  the EnableInt command should be called if interrupt generation is required.
  43:Generated_Source\PSoC4/PWM_R.c **** *
  44:Generated_Source\PSoC4/PWM_R.c **** * Parameters:
  45:Generated_Source\PSoC4/PWM_R.c **** *  None
  46:Generated_Source\PSoC4/PWM_R.c **** *
  47:Generated_Source\PSoC4/PWM_R.c **** * Return:
  48:Generated_Source\PSoC4/PWM_R.c **** *  None
  49:Generated_Source\PSoC4/PWM_R.c **** *
  50:Generated_Source\PSoC4/PWM_R.c **** * Global variables:
  51:Generated_Source\PSoC4/PWM_R.c **** *  PWM_R_initVar: Is modified when this function is called for the
  52:Generated_Source\PSoC4/PWM_R.c **** *   first time. Is used to ensure that initialization happens only once.
  53:Generated_Source\PSoC4/PWM_R.c **** *
  54:Generated_Source\PSoC4/PWM_R.c **** *******************************************************************************/
  55:Generated_Source\PSoC4/PWM_R.c **** void PWM_R_Start(void) 
  56:Generated_Source\PSoC4/PWM_R.c **** {
  57:Generated_Source\PSoC4/PWM_R.c ****     /* If not Initialized then initialize all required hardware and software */
  58:Generated_Source\PSoC4/PWM_R.c ****     if(PWM_R_initVar == 0u)
  59:Generated_Source\PSoC4/PWM_R.c ****     {
  60:Generated_Source\PSoC4/PWM_R.c ****         PWM_R_Init();
  61:Generated_Source\PSoC4/PWM_R.c ****         PWM_R_initVar = 1u;
  62:Generated_Source\PSoC4/PWM_R.c ****     }
  63:Generated_Source\PSoC4/PWM_R.c ****     PWM_R_Enable();
  64:Generated_Source\PSoC4/PWM_R.c **** 
  65:Generated_Source\PSoC4/PWM_R.c **** }
  66:Generated_Source\PSoC4/PWM_R.c **** 
  67:Generated_Source\PSoC4/PWM_R.c **** 
  68:Generated_Source\PSoC4/PWM_R.c **** /*******************************************************************************
  69:Generated_Source\PSoC4/PWM_R.c **** * Function Name: PWM_R_Init
  70:Generated_Source\PSoC4/PWM_R.c **** ********************************************************************************
  71:Generated_Source\PSoC4/PWM_R.c **** *
  72:Generated_Source\PSoC4/PWM_R.c **** * Summary:
  73:Generated_Source\PSoC4/PWM_R.c **** *  Initialize component's parameters to the parameters set by user in the
  74:Generated_Source\PSoC4/PWM_R.c **** *  customizer of the component placed onto schematic. Usually called in
  75:Generated_Source\PSoC4/PWM_R.c **** *  PWM_R_Start().
  76:Generated_Source\PSoC4/PWM_R.c **** *
  77:Generated_Source\PSoC4/PWM_R.c **** * Parameters:
  78:Generated_Source\PSoC4/PWM_R.c **** *  None
  79:Generated_Source\PSoC4/PWM_R.c **** *
  80:Generated_Source\PSoC4/PWM_R.c **** * Return:
  81:Generated_Source\PSoC4/PWM_R.c **** *  None
  82:Generated_Source\PSoC4/PWM_R.c **** *
  83:Generated_Source\PSoC4/PWM_R.c **** *******************************************************************************/
  84:Generated_Source\PSoC4/PWM_R.c **** void PWM_R_Init(void) 
  85:Generated_Source\PSoC4/PWM_R.c **** {
  86:Generated_Source\PSoC4/PWM_R.c ****     #if (PWM_R_UsingFixedFunction || PWM_R_UseControl)
  87:Generated_Source\PSoC4/PWM_R.c ****         uint8 ctrl;
ARM GAS  C:\Users\jagumiel\AppData\Local\Temp\ccBSd2SA.s 			page 3


  88:Generated_Source\PSoC4/PWM_R.c ****     #endif /* (PWM_R_UsingFixedFunction || PWM_R_UseControl) */
  89:Generated_Source\PSoC4/PWM_R.c **** 
  90:Generated_Source\PSoC4/PWM_R.c ****     #if(!PWM_R_UsingFixedFunction)
  91:Generated_Source\PSoC4/PWM_R.c ****         #if(PWM_R_UseStatus)
  92:Generated_Source\PSoC4/PWM_R.c ****             /* Interrupt State Backup for Critical Region*/
  93:Generated_Source\PSoC4/PWM_R.c ****             uint8 PWM_R_interruptState;
  94:Generated_Source\PSoC4/PWM_R.c ****         #endif /* (PWM_R_UseStatus) */
  95:Generated_Source\PSoC4/PWM_R.c ****     #endif /* (!PWM_R_UsingFixedFunction) */
  96:Generated_Source\PSoC4/PWM_R.c **** 
  97:Generated_Source\PSoC4/PWM_R.c ****     #if (PWM_R_UsingFixedFunction)
  98:Generated_Source\PSoC4/PWM_R.c ****         /* You are allowed to write the compare value (FF only) */
  99:Generated_Source\PSoC4/PWM_R.c ****         PWM_R_CONTROL |= PWM_R_CFG0_MODE;
 100:Generated_Source\PSoC4/PWM_R.c ****         #if (PWM_R_DeadBand2_4)
 101:Generated_Source\PSoC4/PWM_R.c ****             PWM_R_CONTROL |= PWM_R_CFG0_DB;
 102:Generated_Source\PSoC4/PWM_R.c ****         #endif /* (PWM_R_DeadBand2_4) */
 103:Generated_Source\PSoC4/PWM_R.c **** 
 104:Generated_Source\PSoC4/PWM_R.c ****         ctrl = PWM_R_CONTROL3 & ((uint8 )(~PWM_R_CTRL_CMPMODE1_MASK));
 105:Generated_Source\PSoC4/PWM_R.c ****         PWM_R_CONTROL3 = ctrl | PWM_R_DEFAULT_COMPARE1_MODE;
 106:Generated_Source\PSoC4/PWM_R.c **** 
 107:Generated_Source\PSoC4/PWM_R.c ****          /* Clear and Set SYNCTC and SYNCCMP bits of RT1 register */
 108:Generated_Source\PSoC4/PWM_R.c ****         PWM_R_RT1 &= ((uint8)(~PWM_R_RT1_MASK));
 109:Generated_Source\PSoC4/PWM_R.c ****         PWM_R_RT1 |= PWM_R_SYNC;
 110:Generated_Source\PSoC4/PWM_R.c **** 
 111:Generated_Source\PSoC4/PWM_R.c ****         /*Enable DSI Sync all all inputs of the PWM*/
 112:Generated_Source\PSoC4/PWM_R.c ****         PWM_R_RT1 &= ((uint8)(~PWM_R_SYNCDSI_MASK));
 113:Generated_Source\PSoC4/PWM_R.c ****         PWM_R_RT1 |= PWM_R_SYNCDSI_EN;
 114:Generated_Source\PSoC4/PWM_R.c **** 
 115:Generated_Source\PSoC4/PWM_R.c ****     #elif (PWM_R_UseControl)
 116:Generated_Source\PSoC4/PWM_R.c ****         /* Set the default compare mode defined in the parameter */
 117:Generated_Source\PSoC4/PWM_R.c ****         ctrl = PWM_R_CONTROL & ((uint8)(~PWM_R_CTRL_CMPMODE2_MASK)) &
 118:Generated_Source\PSoC4/PWM_R.c ****                 ((uint8)(~PWM_R_CTRL_CMPMODE1_MASK));
 119:Generated_Source\PSoC4/PWM_R.c ****         PWM_R_CONTROL = ctrl | PWM_R_DEFAULT_COMPARE2_MODE |
 120:Generated_Source\PSoC4/PWM_R.c ****                                    PWM_R_DEFAULT_COMPARE1_MODE;
 121:Generated_Source\PSoC4/PWM_R.c ****     #endif /* (PWM_R_UsingFixedFunction) */
 122:Generated_Source\PSoC4/PWM_R.c **** 
 123:Generated_Source\PSoC4/PWM_R.c ****     #if (!PWM_R_UsingFixedFunction)
 124:Generated_Source\PSoC4/PWM_R.c ****         #if (PWM_R_Resolution == 8)
 125:Generated_Source\PSoC4/PWM_R.c ****             /* Set FIFO 0 to 1 byte register for period*/
 126:Generated_Source\PSoC4/PWM_R.c ****             PWM_R_AUX_CONTROLDP0 |= (PWM_R_AUX_CTRL_FIFO0_CLR);
 127:Generated_Source\PSoC4/PWM_R.c ****         #else /* (PWM_R_Resolution == 16)*/
 128:Generated_Source\PSoC4/PWM_R.c ****             /* Set FIFO 0 to 1 byte register for period */
 129:Generated_Source\PSoC4/PWM_R.c ****             PWM_R_AUX_CONTROLDP0 |= (PWM_R_AUX_CTRL_FIFO0_CLR);
 130:Generated_Source\PSoC4/PWM_R.c ****             PWM_R_AUX_CONTROLDP1 |= (PWM_R_AUX_CTRL_FIFO0_CLR);
 131:Generated_Source\PSoC4/PWM_R.c ****         #endif /* (PWM_R_Resolution == 8) */
 132:Generated_Source\PSoC4/PWM_R.c **** 
 133:Generated_Source\PSoC4/PWM_R.c ****         PWM_R_WriteCounter(PWM_R_INIT_PERIOD_VALUE);
 134:Generated_Source\PSoC4/PWM_R.c ****     #endif /* (!PWM_R_UsingFixedFunction) */
 135:Generated_Source\PSoC4/PWM_R.c **** 
 136:Generated_Source\PSoC4/PWM_R.c ****     PWM_R_WritePeriod(PWM_R_INIT_PERIOD_VALUE);
 137:Generated_Source\PSoC4/PWM_R.c **** 
 138:Generated_Source\PSoC4/PWM_R.c ****         #if (PWM_R_UseOneCompareMode)
 139:Generated_Source\PSoC4/PWM_R.c ****             PWM_R_WriteCompare(PWM_R_INIT_COMPARE_VALUE1);
 140:Generated_Source\PSoC4/PWM_R.c ****         #else
 141:Generated_Source\PSoC4/PWM_R.c ****             PWM_R_WriteCompare1(PWM_R_INIT_COMPARE_VALUE1);
 142:Generated_Source\PSoC4/PWM_R.c ****             PWM_R_WriteCompare2(PWM_R_INIT_COMPARE_VALUE2);
 143:Generated_Source\PSoC4/PWM_R.c ****         #endif /* (PWM_R_UseOneCompareMode) */
 144:Generated_Source\PSoC4/PWM_R.c **** 
ARM GAS  C:\Users\jagumiel\AppData\Local\Temp\ccBSd2SA.s 			page 4


 145:Generated_Source\PSoC4/PWM_R.c ****         #if (PWM_R_KillModeMinTime)
 146:Generated_Source\PSoC4/PWM_R.c ****             PWM_R_WriteKillTime(PWM_R_MinimumKillTime);
 147:Generated_Source\PSoC4/PWM_R.c ****         #endif /* (PWM_R_KillModeMinTime) */
 148:Generated_Source\PSoC4/PWM_R.c **** 
 149:Generated_Source\PSoC4/PWM_R.c ****         #if (PWM_R_DeadBandUsed)
 150:Generated_Source\PSoC4/PWM_R.c ****             PWM_R_WriteDeadTime(PWM_R_INIT_DEAD_TIME);
 151:Generated_Source\PSoC4/PWM_R.c ****         #endif /* (PWM_R_DeadBandUsed) */
 152:Generated_Source\PSoC4/PWM_R.c **** 
 153:Generated_Source\PSoC4/PWM_R.c ****     #if (PWM_R_UseStatus || PWM_R_UsingFixedFunction)
 154:Generated_Source\PSoC4/PWM_R.c ****         PWM_R_SetInterruptMode(PWM_R_INIT_INTERRUPTS_MODE);
 155:Generated_Source\PSoC4/PWM_R.c ****     #endif /* (PWM_R_UseStatus || PWM_R_UsingFixedFunction) */
 156:Generated_Source\PSoC4/PWM_R.c **** 
 157:Generated_Source\PSoC4/PWM_R.c ****     #if (PWM_R_UsingFixedFunction)
 158:Generated_Source\PSoC4/PWM_R.c ****         /* Globally Enable the Fixed Function Block chosen */
 159:Generated_Source\PSoC4/PWM_R.c ****         PWM_R_GLOBAL_ENABLE |= PWM_R_BLOCK_EN_MASK;
 160:Generated_Source\PSoC4/PWM_R.c ****         /* Set the Interrupt source to come from the status register */
 161:Generated_Source\PSoC4/PWM_R.c ****         PWM_R_CONTROL2 |= PWM_R_CTRL2_IRQ_SEL;
 162:Generated_Source\PSoC4/PWM_R.c ****     #else
 163:Generated_Source\PSoC4/PWM_R.c ****         #if(PWM_R_UseStatus)
 164:Generated_Source\PSoC4/PWM_R.c **** 
 165:Generated_Source\PSoC4/PWM_R.c ****             /* CyEnterCriticalRegion and CyExitCriticalRegion are used to mark following region cri
 166:Generated_Source\PSoC4/PWM_R.c ****             /* Enter Critical Region*/
 167:Generated_Source\PSoC4/PWM_R.c ****             PWM_R_interruptState = CyEnterCriticalSection();
 168:Generated_Source\PSoC4/PWM_R.c ****             /* Use the interrupt output of the status register for IRQ output */
 169:Generated_Source\PSoC4/PWM_R.c ****             PWM_R_STATUS_AUX_CTRL |= PWM_R_STATUS_ACTL_INT_EN_MASK;
 170:Generated_Source\PSoC4/PWM_R.c **** 
 171:Generated_Source\PSoC4/PWM_R.c ****              /* Exit Critical Region*/
 172:Generated_Source\PSoC4/PWM_R.c ****             CyExitCriticalSection(PWM_R_interruptState);
 173:Generated_Source\PSoC4/PWM_R.c **** 
 174:Generated_Source\PSoC4/PWM_R.c ****             /* Clear the FIFO to enable the PWM_R_STATUS_FIFOFULL
 175:Generated_Source\PSoC4/PWM_R.c ****                    bit to be set on FIFO full. */
 176:Generated_Source\PSoC4/PWM_R.c ****             PWM_R_ClearFIFO();
 177:Generated_Source\PSoC4/PWM_R.c ****         #endif /* (PWM_R_UseStatus) */
 178:Generated_Source\PSoC4/PWM_R.c ****     #endif /* (PWM_R_UsingFixedFunction) */
 179:Generated_Source\PSoC4/PWM_R.c **** }
 180:Generated_Source\PSoC4/PWM_R.c **** 
 181:Generated_Source\PSoC4/PWM_R.c **** 
 182:Generated_Source\PSoC4/PWM_R.c **** /*******************************************************************************
 183:Generated_Source\PSoC4/PWM_R.c **** * Function Name: PWM_R_Enable
 184:Generated_Source\PSoC4/PWM_R.c **** ********************************************************************************
 185:Generated_Source\PSoC4/PWM_R.c **** *
 186:Generated_Source\PSoC4/PWM_R.c **** * Summary:
 187:Generated_Source\PSoC4/PWM_R.c **** *  Enables the PWM block operation
 188:Generated_Source\PSoC4/PWM_R.c **** *
 189:Generated_Source\PSoC4/PWM_R.c **** * Parameters:
 190:Generated_Source\PSoC4/PWM_R.c **** *  None
 191:Generated_Source\PSoC4/PWM_R.c **** *
 192:Generated_Source\PSoC4/PWM_R.c **** * Return:
 193:Generated_Source\PSoC4/PWM_R.c **** *  None
 194:Generated_Source\PSoC4/PWM_R.c **** *
 195:Generated_Source\PSoC4/PWM_R.c **** * Side Effects:
 196:Generated_Source\PSoC4/PWM_R.c **** *  This works only if software enable mode is chosen
 197:Generated_Source\PSoC4/PWM_R.c **** *
 198:Generated_Source\PSoC4/PWM_R.c **** *******************************************************************************/
 199:Generated_Source\PSoC4/PWM_R.c **** void PWM_R_Enable(void) 
 200:Generated_Source\PSoC4/PWM_R.c **** {
  28              		.loc 1 200 0
ARM GAS  C:\Users\jagumiel\AppData\Local\Temp\ccBSd2SA.s 			page 5


  29              		.cfi_startproc
  30              		@ args = 0, pretend = 0, frame = 0
  31              		@ frame_needed = 0, uses_anonymous_args = 0
  32              		@ link register save eliminated.
 201:Generated_Source\PSoC4/PWM_R.c ****     /* Globally Enable the Fixed Function Block chosen */
 202:Generated_Source\PSoC4/PWM_R.c ****     #if (PWM_R_UsingFixedFunction)
 203:Generated_Source\PSoC4/PWM_R.c ****         PWM_R_GLOBAL_ENABLE |= PWM_R_BLOCK_EN_MASK;
 204:Generated_Source\PSoC4/PWM_R.c ****         PWM_R_GLOBAL_STBY_ENABLE |= PWM_R_BLOCK_STBY_EN_MASK;
 205:Generated_Source\PSoC4/PWM_R.c ****     #endif /* (PWM_R_UsingFixedFunction) */
 206:Generated_Source\PSoC4/PWM_R.c **** 
 207:Generated_Source\PSoC4/PWM_R.c ****     /* Enable the PWM from the control register  */
 208:Generated_Source\PSoC4/PWM_R.c ****     #if (PWM_R_UseControl || PWM_R_UsingFixedFunction)
 209:Generated_Source\PSoC4/PWM_R.c ****         PWM_R_CONTROL |= PWM_R_CTRL_ENABLE;
  33              		.loc 1 209 0
  34 0000 034A     		ldr	r2, .L2
  35 0002 1178     		ldrb	r1, [r2]
  36 0004 8023     		movs	r3, #128
  37 0006 5B42     		rsbs	r3, r3, #0
  38 0008 0B43     		orrs	r3, r1
  39 000a DBB2     		uxtb	r3, r3
  40 000c 1370     		strb	r3, [r2]
 210:Generated_Source\PSoC4/PWM_R.c ****     #endif /* (PWM_R_UseControl || PWM_R_UsingFixedFunction) */
 211:Generated_Source\PSoC4/PWM_R.c **** }
  41              		.loc 1 211 0
  42              		@ sp needed
  43 000e 7047     		bx	lr
  44              	.L3:
  45              		.align	2
  46              	.L2:
  47 0010 72000F40 		.word	1074724978
  48              		.cfi_endproc
  49              	.LFE2:
  50              		.size	PWM_R_Enable, .-PWM_R_Enable
  51              		.section	.text.PWM_R_Stop,"ax",%progbits
  52              		.align	2
  53              		.global	PWM_R_Stop
  54              		.code	16
  55              		.thumb_func
  56              		.type	PWM_R_Stop, %function
  57              	PWM_R_Stop:
  58              	.LFB3:
 212:Generated_Source\PSoC4/PWM_R.c **** 
 213:Generated_Source\PSoC4/PWM_R.c **** 
 214:Generated_Source\PSoC4/PWM_R.c **** /*******************************************************************************
 215:Generated_Source\PSoC4/PWM_R.c **** * Function Name: PWM_R_Stop
 216:Generated_Source\PSoC4/PWM_R.c **** ********************************************************************************
 217:Generated_Source\PSoC4/PWM_R.c **** *
 218:Generated_Source\PSoC4/PWM_R.c **** * Summary:
 219:Generated_Source\PSoC4/PWM_R.c **** *  The stop function halts the PWM, but does not change any modes or disable
 220:Generated_Source\PSoC4/PWM_R.c **** *  interrupts.
 221:Generated_Source\PSoC4/PWM_R.c **** *
 222:Generated_Source\PSoC4/PWM_R.c **** * Parameters:
 223:Generated_Source\PSoC4/PWM_R.c **** *  None
 224:Generated_Source\PSoC4/PWM_R.c **** *
 225:Generated_Source\PSoC4/PWM_R.c **** * Return:
 226:Generated_Source\PSoC4/PWM_R.c **** *  None
 227:Generated_Source\PSoC4/PWM_R.c **** *
ARM GAS  C:\Users\jagumiel\AppData\Local\Temp\ccBSd2SA.s 			page 6


 228:Generated_Source\PSoC4/PWM_R.c **** * Side Effects:
 229:Generated_Source\PSoC4/PWM_R.c **** *  If the Enable mode is set to Hardware only then this function
 230:Generated_Source\PSoC4/PWM_R.c **** *  has no effect on the operation of the PWM
 231:Generated_Source\PSoC4/PWM_R.c **** *
 232:Generated_Source\PSoC4/PWM_R.c **** *******************************************************************************/
 233:Generated_Source\PSoC4/PWM_R.c **** void PWM_R_Stop(void) 
 234:Generated_Source\PSoC4/PWM_R.c **** {
  59              		.loc 1 234 0
  60              		.cfi_startproc
  61              		@ args = 0, pretend = 0, frame = 0
  62              		@ frame_needed = 0, uses_anonymous_args = 0
  63              		@ link register save eliminated.
 235:Generated_Source\PSoC4/PWM_R.c ****     #if (PWM_R_UseControl || PWM_R_UsingFixedFunction)
 236:Generated_Source\PSoC4/PWM_R.c ****         PWM_R_CONTROL &= ((uint8)(~PWM_R_CTRL_ENABLE));
  64              		.loc 1 236 0
  65 0000 024A     		ldr	r2, .L5
  66 0002 1178     		ldrb	r1, [r2]
  67 0004 7F23     		movs	r3, #127
  68 0006 0B40     		ands	r3, r1
  69 0008 1370     		strb	r3, [r2]
 237:Generated_Source\PSoC4/PWM_R.c ****     #endif /* (PWM_R_UseControl || PWM_R_UsingFixedFunction) */
 238:Generated_Source\PSoC4/PWM_R.c **** 
 239:Generated_Source\PSoC4/PWM_R.c ****     /* Globally disable the Fixed Function Block chosen */
 240:Generated_Source\PSoC4/PWM_R.c ****     #if (PWM_R_UsingFixedFunction)
 241:Generated_Source\PSoC4/PWM_R.c ****         PWM_R_GLOBAL_ENABLE &= ((uint8)(~PWM_R_BLOCK_EN_MASK));
 242:Generated_Source\PSoC4/PWM_R.c ****         PWM_R_GLOBAL_STBY_ENABLE &= ((uint8)(~PWM_R_BLOCK_STBY_EN_MASK));
 243:Generated_Source\PSoC4/PWM_R.c ****     #endif /* (PWM_R_UsingFixedFunction) */
 244:Generated_Source\PSoC4/PWM_R.c **** }
  70              		.loc 1 244 0
  71              		@ sp needed
  72 000a 7047     		bx	lr
  73              	.L6:
  74              		.align	2
  75              	.L5:
  76 000c 72000F40 		.word	1074724978
  77              		.cfi_endproc
  78              	.LFE3:
  79              		.size	PWM_R_Stop, .-PWM_R_Stop
  80              		.section	.text.PWM_R_WriteCounter,"ax",%progbits
  81              		.align	2
  82              		.global	PWM_R_WriteCounter
  83              		.code	16
  84              		.thumb_func
  85              		.type	PWM_R_WriteCounter, %function
  86              	PWM_R_WriteCounter:
  87              	.LFB4:
 245:Generated_Source\PSoC4/PWM_R.c **** 
 246:Generated_Source\PSoC4/PWM_R.c **** #if (PWM_R_UseOneCompareMode)
 247:Generated_Source\PSoC4/PWM_R.c ****     #if (PWM_R_CompareMode1SW)
 248:Generated_Source\PSoC4/PWM_R.c **** 
 249:Generated_Source\PSoC4/PWM_R.c **** 
 250:Generated_Source\PSoC4/PWM_R.c ****         /*******************************************************************************
 251:Generated_Source\PSoC4/PWM_R.c ****         * Function Name: PWM_R_SetCompareMode
 252:Generated_Source\PSoC4/PWM_R.c ****         ********************************************************************************
 253:Generated_Source\PSoC4/PWM_R.c ****         *
 254:Generated_Source\PSoC4/PWM_R.c ****         * Summary:
 255:Generated_Source\PSoC4/PWM_R.c ****         *  This function writes the Compare Mode for the pwm output when in Dither mode,
ARM GAS  C:\Users\jagumiel\AppData\Local\Temp\ccBSd2SA.s 			page 7


 256:Generated_Source\PSoC4/PWM_R.c ****         *  Center Align Mode or One Output Mode.
 257:Generated_Source\PSoC4/PWM_R.c ****         *
 258:Generated_Source\PSoC4/PWM_R.c ****         * Parameters:
 259:Generated_Source\PSoC4/PWM_R.c ****         *  comparemode:  The new compare mode for the PWM output. Use the compare types
 260:Generated_Source\PSoC4/PWM_R.c ****         *                defined in the H file as input arguments.
 261:Generated_Source\PSoC4/PWM_R.c ****         *
 262:Generated_Source\PSoC4/PWM_R.c ****         * Return:
 263:Generated_Source\PSoC4/PWM_R.c ****         *  None
 264:Generated_Source\PSoC4/PWM_R.c ****         *
 265:Generated_Source\PSoC4/PWM_R.c ****         *******************************************************************************/
 266:Generated_Source\PSoC4/PWM_R.c ****         void PWM_R_SetCompareMode(uint8 comparemode) 
 267:Generated_Source\PSoC4/PWM_R.c ****         {
 268:Generated_Source\PSoC4/PWM_R.c ****             #if(PWM_R_UsingFixedFunction)
 269:Generated_Source\PSoC4/PWM_R.c **** 
 270:Generated_Source\PSoC4/PWM_R.c ****                 #if(0 != PWM_R_CTRL_CMPMODE1_SHIFT)
 271:Generated_Source\PSoC4/PWM_R.c ****                     uint8 comparemodemasked = ((uint8)((uint8)comparemode << PWM_R_CTRL_CMPMODE1_SH
 272:Generated_Source\PSoC4/PWM_R.c ****                 #else
 273:Generated_Source\PSoC4/PWM_R.c ****                     uint8 comparemodemasked = comparemode;
 274:Generated_Source\PSoC4/PWM_R.c ****                 #endif /* (0 != PWM_R_CTRL_CMPMODE1_SHIFT) */
 275:Generated_Source\PSoC4/PWM_R.c **** 
 276:Generated_Source\PSoC4/PWM_R.c ****                 PWM_R_CONTROL3 &= ((uint8)(~PWM_R_CTRL_CMPMODE1_MASK)); /*Clear Existing Data */
 277:Generated_Source\PSoC4/PWM_R.c ****                 PWM_R_CONTROL3 |= comparemodemasked;
 278:Generated_Source\PSoC4/PWM_R.c **** 
 279:Generated_Source\PSoC4/PWM_R.c ****             #elif (PWM_R_UseControl)
 280:Generated_Source\PSoC4/PWM_R.c **** 
 281:Generated_Source\PSoC4/PWM_R.c ****                 #if(0 != PWM_R_CTRL_CMPMODE1_SHIFT)
 282:Generated_Source\PSoC4/PWM_R.c ****                     uint8 comparemode1masked = ((uint8)((uint8)comparemode << PWM_R_CTRL_CMPMODE1_S
 283:Generated_Source\PSoC4/PWM_R.c ****                                                 PWM_R_CTRL_CMPMODE1_MASK;
 284:Generated_Source\PSoC4/PWM_R.c ****                 #else
 285:Generated_Source\PSoC4/PWM_R.c ****                     uint8 comparemode1masked = comparemode & PWM_R_CTRL_CMPMODE1_MASK;
 286:Generated_Source\PSoC4/PWM_R.c ****                 #endif /* (0 != PWM_R_CTRL_CMPMODE1_SHIFT) */
 287:Generated_Source\PSoC4/PWM_R.c **** 
 288:Generated_Source\PSoC4/PWM_R.c ****                 #if(0 != PWM_R_CTRL_CMPMODE2_SHIFT)
 289:Generated_Source\PSoC4/PWM_R.c ****                     uint8 comparemode2masked = ((uint8)((uint8)comparemode << PWM_R_CTRL_CMPMODE2_S
 290:Generated_Source\PSoC4/PWM_R.c ****                                                PWM_R_CTRL_CMPMODE2_MASK;
 291:Generated_Source\PSoC4/PWM_R.c ****                 #else
 292:Generated_Source\PSoC4/PWM_R.c ****                     uint8 comparemode2masked = comparemode & PWM_R_CTRL_CMPMODE2_MASK;
 293:Generated_Source\PSoC4/PWM_R.c ****                 #endif /* (0 != PWM_R_CTRL_CMPMODE2_SHIFT) */
 294:Generated_Source\PSoC4/PWM_R.c **** 
 295:Generated_Source\PSoC4/PWM_R.c ****                 /*Clear existing mode */
 296:Generated_Source\PSoC4/PWM_R.c ****                 PWM_R_CONTROL &= ((uint8)(~(PWM_R_CTRL_CMPMODE1_MASK |
 297:Generated_Source\PSoC4/PWM_R.c ****                                             PWM_R_CTRL_CMPMODE2_MASK)));
 298:Generated_Source\PSoC4/PWM_R.c ****                 PWM_R_CONTROL |= (comparemode1masked | comparemode2masked);
 299:Generated_Source\PSoC4/PWM_R.c **** 
 300:Generated_Source\PSoC4/PWM_R.c ****             #else
 301:Generated_Source\PSoC4/PWM_R.c ****                 uint8 temp = comparemode;
 302:Generated_Source\PSoC4/PWM_R.c ****             #endif /* (PWM_R_UsingFixedFunction) */
 303:Generated_Source\PSoC4/PWM_R.c ****         }
 304:Generated_Source\PSoC4/PWM_R.c ****     #endif /* PWM_R_CompareMode1SW */
 305:Generated_Source\PSoC4/PWM_R.c **** 
 306:Generated_Source\PSoC4/PWM_R.c **** #else /* UseOneCompareMode */
 307:Generated_Source\PSoC4/PWM_R.c **** 
 308:Generated_Source\PSoC4/PWM_R.c ****     #if (PWM_R_CompareMode1SW)
 309:Generated_Source\PSoC4/PWM_R.c **** 
 310:Generated_Source\PSoC4/PWM_R.c **** 
 311:Generated_Source\PSoC4/PWM_R.c ****         /*******************************************************************************
 312:Generated_Source\PSoC4/PWM_R.c ****         * Function Name: PWM_R_SetCompareMode1
ARM GAS  C:\Users\jagumiel\AppData\Local\Temp\ccBSd2SA.s 			page 8


 313:Generated_Source\PSoC4/PWM_R.c ****         ********************************************************************************
 314:Generated_Source\PSoC4/PWM_R.c ****         *
 315:Generated_Source\PSoC4/PWM_R.c ****         * Summary:
 316:Generated_Source\PSoC4/PWM_R.c ****         *  This function writes the Compare Mode for the pwm or pwm1 output
 317:Generated_Source\PSoC4/PWM_R.c ****         *
 318:Generated_Source\PSoC4/PWM_R.c ****         * Parameters:
 319:Generated_Source\PSoC4/PWM_R.c ****         *  comparemode:  The new compare mode for the PWM output. Use the compare types
 320:Generated_Source\PSoC4/PWM_R.c ****         *                defined in the H file as input arguments.
 321:Generated_Source\PSoC4/PWM_R.c ****         *
 322:Generated_Source\PSoC4/PWM_R.c ****         * Return:
 323:Generated_Source\PSoC4/PWM_R.c ****         *  None
 324:Generated_Source\PSoC4/PWM_R.c ****         *
 325:Generated_Source\PSoC4/PWM_R.c ****         *******************************************************************************/
 326:Generated_Source\PSoC4/PWM_R.c ****         void PWM_R_SetCompareMode1(uint8 comparemode) 
 327:Generated_Source\PSoC4/PWM_R.c ****         {
 328:Generated_Source\PSoC4/PWM_R.c ****             #if(0 != PWM_R_CTRL_CMPMODE1_SHIFT)
 329:Generated_Source\PSoC4/PWM_R.c ****                 uint8 comparemodemasked = ((uint8)((uint8)comparemode << PWM_R_CTRL_CMPMODE1_SHIFT)
 330:Generated_Source\PSoC4/PWM_R.c ****                                            PWM_R_CTRL_CMPMODE1_MASK;
 331:Generated_Source\PSoC4/PWM_R.c ****             #else
 332:Generated_Source\PSoC4/PWM_R.c ****                 uint8 comparemodemasked = comparemode & PWM_R_CTRL_CMPMODE1_MASK;
 333:Generated_Source\PSoC4/PWM_R.c ****             #endif /* (0 != PWM_R_CTRL_CMPMODE1_SHIFT) */
 334:Generated_Source\PSoC4/PWM_R.c **** 
 335:Generated_Source\PSoC4/PWM_R.c ****             #if (PWM_R_UseControl)
 336:Generated_Source\PSoC4/PWM_R.c ****                 PWM_R_CONTROL &= ((uint8)(~PWM_R_CTRL_CMPMODE1_MASK)); /*Clear existing mode */
 337:Generated_Source\PSoC4/PWM_R.c ****                 PWM_R_CONTROL |= comparemodemasked;
 338:Generated_Source\PSoC4/PWM_R.c ****             #endif /* (PWM_R_UseControl) */
 339:Generated_Source\PSoC4/PWM_R.c ****         }
 340:Generated_Source\PSoC4/PWM_R.c ****     #endif /* PWM_R_CompareMode1SW */
 341:Generated_Source\PSoC4/PWM_R.c **** 
 342:Generated_Source\PSoC4/PWM_R.c **** #if (PWM_R_CompareMode2SW)
 343:Generated_Source\PSoC4/PWM_R.c **** 
 344:Generated_Source\PSoC4/PWM_R.c **** 
 345:Generated_Source\PSoC4/PWM_R.c ****     /*******************************************************************************
 346:Generated_Source\PSoC4/PWM_R.c ****     * Function Name: PWM_R_SetCompareMode2
 347:Generated_Source\PSoC4/PWM_R.c ****     ********************************************************************************
 348:Generated_Source\PSoC4/PWM_R.c ****     *
 349:Generated_Source\PSoC4/PWM_R.c ****     * Summary:
 350:Generated_Source\PSoC4/PWM_R.c ****     *  This function writes the Compare Mode for the pwm or pwm2 output
 351:Generated_Source\PSoC4/PWM_R.c ****     *
 352:Generated_Source\PSoC4/PWM_R.c ****     * Parameters:
 353:Generated_Source\PSoC4/PWM_R.c ****     *  comparemode:  The new compare mode for the PWM output. Use the compare types
 354:Generated_Source\PSoC4/PWM_R.c ****     *                defined in the H file as input arguments.
 355:Generated_Source\PSoC4/PWM_R.c ****     *
 356:Generated_Source\PSoC4/PWM_R.c ****     * Return:
 357:Generated_Source\PSoC4/PWM_R.c ****     *  None
 358:Generated_Source\PSoC4/PWM_R.c ****     *
 359:Generated_Source\PSoC4/PWM_R.c ****     *******************************************************************************/
 360:Generated_Source\PSoC4/PWM_R.c ****     void PWM_R_SetCompareMode2(uint8 comparemode) 
 361:Generated_Source\PSoC4/PWM_R.c ****     {
 362:Generated_Source\PSoC4/PWM_R.c **** 
 363:Generated_Source\PSoC4/PWM_R.c ****         #if(0 != PWM_R_CTRL_CMPMODE2_SHIFT)
 364:Generated_Source\PSoC4/PWM_R.c ****             uint8 comparemodemasked = ((uint8)((uint8)comparemode << PWM_R_CTRL_CMPMODE2_SHIFT)) &
 365:Generated_Source\PSoC4/PWM_R.c ****                                                  PWM_R_CTRL_CMPMODE2_MASK;
 366:Generated_Source\PSoC4/PWM_R.c ****         #else
 367:Generated_Source\PSoC4/PWM_R.c ****             uint8 comparemodemasked = comparemode & PWM_R_CTRL_CMPMODE2_MASK;
 368:Generated_Source\PSoC4/PWM_R.c ****         #endif /* (0 != PWM_R_CTRL_CMPMODE2_SHIFT) */
 369:Generated_Source\PSoC4/PWM_R.c **** 
ARM GAS  C:\Users\jagumiel\AppData\Local\Temp\ccBSd2SA.s 			page 9


 370:Generated_Source\PSoC4/PWM_R.c ****         #if (PWM_R_UseControl)
 371:Generated_Source\PSoC4/PWM_R.c ****             PWM_R_CONTROL &= ((uint8)(~PWM_R_CTRL_CMPMODE2_MASK)); /*Clear existing mode */
 372:Generated_Source\PSoC4/PWM_R.c ****             PWM_R_CONTROL |= comparemodemasked;
 373:Generated_Source\PSoC4/PWM_R.c ****         #endif /* (PWM_R_UseControl) */
 374:Generated_Source\PSoC4/PWM_R.c ****     }
 375:Generated_Source\PSoC4/PWM_R.c ****     #endif /*PWM_R_CompareMode2SW */
 376:Generated_Source\PSoC4/PWM_R.c **** 
 377:Generated_Source\PSoC4/PWM_R.c **** #endif /* UseOneCompareMode */
 378:Generated_Source\PSoC4/PWM_R.c **** 
 379:Generated_Source\PSoC4/PWM_R.c **** 
 380:Generated_Source\PSoC4/PWM_R.c **** #if (!PWM_R_UsingFixedFunction)
 381:Generated_Source\PSoC4/PWM_R.c **** 
 382:Generated_Source\PSoC4/PWM_R.c **** 
 383:Generated_Source\PSoC4/PWM_R.c ****     /*******************************************************************************
 384:Generated_Source\PSoC4/PWM_R.c ****     * Function Name: PWM_R_WriteCounter
 385:Generated_Source\PSoC4/PWM_R.c ****     ********************************************************************************
 386:Generated_Source\PSoC4/PWM_R.c ****     *
 387:Generated_Source\PSoC4/PWM_R.c ****     * Summary:
 388:Generated_Source\PSoC4/PWM_R.c ****     *  Writes a new counter value directly to the counter register. This will be
 389:Generated_Source\PSoC4/PWM_R.c ****     *  implemented for that currently running period and only that period. This API
 390:Generated_Source\PSoC4/PWM_R.c ****     *  is valid only for UDB implementation and not available for fixed function
 391:Generated_Source\PSoC4/PWM_R.c ****     *  PWM implementation.
 392:Generated_Source\PSoC4/PWM_R.c ****     *
 393:Generated_Source\PSoC4/PWM_R.c ****     * Parameters:
 394:Generated_Source\PSoC4/PWM_R.c ****     *  counter:  The period new period counter value.
 395:Generated_Source\PSoC4/PWM_R.c ****     *
 396:Generated_Source\PSoC4/PWM_R.c ****     * Return:
 397:Generated_Source\PSoC4/PWM_R.c ****     *  None
 398:Generated_Source\PSoC4/PWM_R.c ****     *
 399:Generated_Source\PSoC4/PWM_R.c ****     * Side Effects:
 400:Generated_Source\PSoC4/PWM_R.c ****     *  The PWM Period will be reloaded when a counter value will be a zero
 401:Generated_Source\PSoC4/PWM_R.c ****     *
 402:Generated_Source\PSoC4/PWM_R.c ****     *******************************************************************************/
 403:Generated_Source\PSoC4/PWM_R.c ****     void PWM_R_WriteCounter(uint8 counter) \
 404:Generated_Source\PSoC4/PWM_R.c ****                                        
 405:Generated_Source\PSoC4/PWM_R.c ****     {
  88              		.loc 1 405 0
  89              		.cfi_startproc
  90              		@ args = 0, pretend = 0, frame = 0
  91              		@ frame_needed = 0, uses_anonymous_args = 0
  92              		@ link register save eliminated.
  93              	.LVL0:
 406:Generated_Source\PSoC4/PWM_R.c ****         CY_SET_REG8(PWM_R_COUNTER_LSB_PTR, counter);
  94              		.loc 1 406 0
  95 0000 014B     		ldr	r3, .L8
  96 0002 1870     		strb	r0, [r3]
 407:Generated_Source\PSoC4/PWM_R.c ****     }
  97              		.loc 1 407 0
  98              		@ sp needed
  99 0004 7047     		bx	lr
 100              	.L9:
 101 0006 C046     		.align	2
 102              	.L8:
 103 0008 02000F40 		.word	1074724866
 104              		.cfi_endproc
 105              	.LFE4:
 106              		.size	PWM_R_WriteCounter, .-PWM_R_WriteCounter
ARM GAS  C:\Users\jagumiel\AppData\Local\Temp\ccBSd2SA.s 			page 10


 107              		.section	.text.PWM_R_ReadCounter,"ax",%progbits
 108              		.align	2
 109              		.global	PWM_R_ReadCounter
 110              		.code	16
 111              		.thumb_func
 112              		.type	PWM_R_ReadCounter, %function
 113              	PWM_R_ReadCounter:
 114              	.LFB5:
 408:Generated_Source\PSoC4/PWM_R.c **** 
 409:Generated_Source\PSoC4/PWM_R.c **** 
 410:Generated_Source\PSoC4/PWM_R.c ****     /*******************************************************************************
 411:Generated_Source\PSoC4/PWM_R.c ****     * Function Name: PWM_R_ReadCounter
 412:Generated_Source\PSoC4/PWM_R.c ****     ********************************************************************************
 413:Generated_Source\PSoC4/PWM_R.c ****     *
 414:Generated_Source\PSoC4/PWM_R.c ****     * Summary:
 415:Generated_Source\PSoC4/PWM_R.c ****     *  This function returns the current value of the counter.  It doesn't matter
 416:Generated_Source\PSoC4/PWM_R.c ****     *  if the counter is enabled or running.
 417:Generated_Source\PSoC4/PWM_R.c ****     *
 418:Generated_Source\PSoC4/PWM_R.c ****     * Parameters:
 419:Generated_Source\PSoC4/PWM_R.c ****     *  None
 420:Generated_Source\PSoC4/PWM_R.c ****     *
 421:Generated_Source\PSoC4/PWM_R.c ****     * Return:
 422:Generated_Source\PSoC4/PWM_R.c ****     *  The current value of the counter.
 423:Generated_Source\PSoC4/PWM_R.c ****     *
 424:Generated_Source\PSoC4/PWM_R.c ****     *******************************************************************************/
 425:Generated_Source\PSoC4/PWM_R.c ****     uint8 PWM_R_ReadCounter(void) 
 426:Generated_Source\PSoC4/PWM_R.c ****     {
 115              		.loc 1 426 0
 116              		.cfi_startproc
 117              		@ args = 0, pretend = 0, frame = 0
 118              		@ frame_needed = 0, uses_anonymous_args = 0
 119              		@ link register save eliminated.
 427:Generated_Source\PSoC4/PWM_R.c ****         /* Force capture by reading Accumulator */
 428:Generated_Source\PSoC4/PWM_R.c ****         /* Must first do a software capture to be able to read the counter */
 429:Generated_Source\PSoC4/PWM_R.c ****         /* It is up to the user code to make sure there isn't already captured data in the FIFO */
 430:Generated_Source\PSoC4/PWM_R.c ****           (void)CY_GET_REG8(PWM_R_COUNTERCAP_LSB_PTR_8BIT);
 120              		.loc 1 430 0
 121 0000 024B     		ldr	r3, .L11
 122 0002 1B78     		ldrb	r3, [r3]
 431:Generated_Source\PSoC4/PWM_R.c **** 
 432:Generated_Source\PSoC4/PWM_R.c ****         /* Read the data from the FIFO */
 433:Generated_Source\PSoC4/PWM_R.c ****         return (CY_GET_REG8(PWM_R_CAPTURE_LSB_PTR));
 123              		.loc 1 433 0
 124 0004 024B     		ldr	r3, .L11+4
 125 0006 1878     		ldrb	r0, [r3]
 126 0008 C0B2     		uxtb	r0, r0
 434:Generated_Source\PSoC4/PWM_R.c ****     }
 127              		.loc 1 434 0
 128              		@ sp needed
 129 000a 7047     		bx	lr
 130              	.L12:
 131              		.align	2
 132              	.L11:
 133 000c 12000F40 		.word	1074724882
 134 0010 52000F40 		.word	1074724946
 135              		.cfi_endproc
 136              	.LFE5:
ARM GAS  C:\Users\jagumiel\AppData\Local\Temp\ccBSd2SA.s 			page 11


 137              		.size	PWM_R_ReadCounter, .-PWM_R_ReadCounter
 138              		.section	.text.PWM_R_WritePeriod,"ax",%progbits
 139              		.align	2
 140              		.global	PWM_R_WritePeriod
 141              		.code	16
 142              		.thumb_func
 143              		.type	PWM_R_WritePeriod, %function
 144              	PWM_R_WritePeriod:
 145              	.LFB7:
 435:Generated_Source\PSoC4/PWM_R.c **** 
 436:Generated_Source\PSoC4/PWM_R.c ****     #if (PWM_R_UseStatus)
 437:Generated_Source\PSoC4/PWM_R.c **** 
 438:Generated_Source\PSoC4/PWM_R.c **** 
 439:Generated_Source\PSoC4/PWM_R.c ****         /*******************************************************************************
 440:Generated_Source\PSoC4/PWM_R.c ****         * Function Name: PWM_R_ClearFIFO
 441:Generated_Source\PSoC4/PWM_R.c ****         ********************************************************************************
 442:Generated_Source\PSoC4/PWM_R.c ****         *
 443:Generated_Source\PSoC4/PWM_R.c ****         * Summary:
 444:Generated_Source\PSoC4/PWM_R.c ****         *  This function clears all capture data from the capture FIFO
 445:Generated_Source\PSoC4/PWM_R.c ****         *
 446:Generated_Source\PSoC4/PWM_R.c ****         * Parameters:
 447:Generated_Source\PSoC4/PWM_R.c ****         *  None
 448:Generated_Source\PSoC4/PWM_R.c ****         *
 449:Generated_Source\PSoC4/PWM_R.c ****         * Return:
 450:Generated_Source\PSoC4/PWM_R.c ****         *  None
 451:Generated_Source\PSoC4/PWM_R.c ****         *
 452:Generated_Source\PSoC4/PWM_R.c ****         *******************************************************************************/
 453:Generated_Source\PSoC4/PWM_R.c ****         void PWM_R_ClearFIFO(void) 
 454:Generated_Source\PSoC4/PWM_R.c ****         {
 455:Generated_Source\PSoC4/PWM_R.c ****             while(0u != (PWM_R_ReadStatusRegister() & PWM_R_STATUS_FIFONEMPTY))
 456:Generated_Source\PSoC4/PWM_R.c ****             {
 457:Generated_Source\PSoC4/PWM_R.c ****                 (void)PWM_R_ReadCapture();
 458:Generated_Source\PSoC4/PWM_R.c ****             }
 459:Generated_Source\PSoC4/PWM_R.c ****         }
 460:Generated_Source\PSoC4/PWM_R.c **** 
 461:Generated_Source\PSoC4/PWM_R.c ****     #endif /* PWM_R_UseStatus */
 462:Generated_Source\PSoC4/PWM_R.c **** 
 463:Generated_Source\PSoC4/PWM_R.c **** #endif /* !PWM_R_UsingFixedFunction */
 464:Generated_Source\PSoC4/PWM_R.c **** 
 465:Generated_Source\PSoC4/PWM_R.c **** 
 466:Generated_Source\PSoC4/PWM_R.c **** /*******************************************************************************
 467:Generated_Source\PSoC4/PWM_R.c **** * Function Name: PWM_R_WritePeriod
 468:Generated_Source\PSoC4/PWM_R.c **** ********************************************************************************
 469:Generated_Source\PSoC4/PWM_R.c **** *
 470:Generated_Source\PSoC4/PWM_R.c **** * Summary:
 471:Generated_Source\PSoC4/PWM_R.c **** *  This function is used to change the period of the counter.  The new period
 472:Generated_Source\PSoC4/PWM_R.c **** *  will be loaded the next time terminal count is detected.
 473:Generated_Source\PSoC4/PWM_R.c **** *
 474:Generated_Source\PSoC4/PWM_R.c **** * Parameters:
 475:Generated_Source\PSoC4/PWM_R.c **** *  period:  Period value. May be between 1 and (2^Resolution)-1.  A value of 0
 476:Generated_Source\PSoC4/PWM_R.c **** *           will result in the counter remaining at zero.
 477:Generated_Source\PSoC4/PWM_R.c **** *
 478:Generated_Source\PSoC4/PWM_R.c **** * Return:
 479:Generated_Source\PSoC4/PWM_R.c **** *  None
 480:Generated_Source\PSoC4/PWM_R.c **** *
 481:Generated_Source\PSoC4/PWM_R.c **** *******************************************************************************/
 482:Generated_Source\PSoC4/PWM_R.c **** void PWM_R_WritePeriod(uint8 period) 
ARM GAS  C:\Users\jagumiel\AppData\Local\Temp\ccBSd2SA.s 			page 12


 483:Generated_Source\PSoC4/PWM_R.c **** {
 146              		.loc 1 483 0
 147              		.cfi_startproc
 148              		@ args = 0, pretend = 0, frame = 0
 149              		@ frame_needed = 0, uses_anonymous_args = 0
 150              		@ link register save eliminated.
 151              	.LVL1:
 484:Generated_Source\PSoC4/PWM_R.c ****     #if(PWM_R_UsingFixedFunction)
 485:Generated_Source\PSoC4/PWM_R.c ****         CY_SET_REG16(PWM_R_PERIOD_LSB_PTR, (uint16)period);
 486:Generated_Source\PSoC4/PWM_R.c ****     #else
 487:Generated_Source\PSoC4/PWM_R.c ****         CY_SET_REG8(PWM_R_PERIOD_LSB_PTR, period);
 152              		.loc 1 487 0
 153 0000 014B     		ldr	r3, .L14
 154 0002 1870     		strb	r0, [r3]
 488:Generated_Source\PSoC4/PWM_R.c ****     #endif /* (PWM_R_UsingFixedFunction) */
 489:Generated_Source\PSoC4/PWM_R.c **** }
 155              		.loc 1 489 0
 156              		@ sp needed
 157 0004 7047     		bx	lr
 158              	.L15:
 159 0006 C046     		.align	2
 160              	.L14:
 161 0008 42000F40 		.word	1074724930
 162              		.cfi_endproc
 163              	.LFE7:
 164              		.size	PWM_R_WritePeriod, .-PWM_R_WritePeriod
 165              		.section	.text.PWM_R_WriteCompare,"ax",%progbits
 166              		.align	2
 167              		.global	PWM_R_WriteCompare
 168              		.code	16
 169              		.thumb_func
 170              		.type	PWM_R_WriteCompare, %function
 171              	PWM_R_WriteCompare:
 172              	.LFB8:
 490:Generated_Source\PSoC4/PWM_R.c **** 
 491:Generated_Source\PSoC4/PWM_R.c **** #if (PWM_R_UseOneCompareMode)
 492:Generated_Source\PSoC4/PWM_R.c **** 
 493:Generated_Source\PSoC4/PWM_R.c **** 
 494:Generated_Source\PSoC4/PWM_R.c ****     /*******************************************************************************
 495:Generated_Source\PSoC4/PWM_R.c ****     * Function Name: PWM_R_WriteCompare
 496:Generated_Source\PSoC4/PWM_R.c ****     ********************************************************************************
 497:Generated_Source\PSoC4/PWM_R.c ****     *
 498:Generated_Source\PSoC4/PWM_R.c ****     * Summary:
 499:Generated_Source\PSoC4/PWM_R.c ****     *  This funtion is used to change the compare1 value when the PWM is in Dither
 500:Generated_Source\PSoC4/PWM_R.c ****     *  mode. The compare output will reflect the new value on the next UDB clock.
 501:Generated_Source\PSoC4/PWM_R.c ****     *  The compare output will be driven high when the present counter value is
 502:Generated_Source\PSoC4/PWM_R.c ****     *  compared to the compare value based on the compare mode defined in
 503:Generated_Source\PSoC4/PWM_R.c ****     *  Dither Mode.
 504:Generated_Source\PSoC4/PWM_R.c ****     *
 505:Generated_Source\PSoC4/PWM_R.c ****     * Parameters:
 506:Generated_Source\PSoC4/PWM_R.c ****     *  compare:  New compare value.
 507:Generated_Source\PSoC4/PWM_R.c ****     *
 508:Generated_Source\PSoC4/PWM_R.c ****     * Return:
 509:Generated_Source\PSoC4/PWM_R.c ****     *  None
 510:Generated_Source\PSoC4/PWM_R.c ****     *
 511:Generated_Source\PSoC4/PWM_R.c ****     * Side Effects:
 512:Generated_Source\PSoC4/PWM_R.c ****     *  This function is only available if the PWM mode parameter is set to
ARM GAS  C:\Users\jagumiel\AppData\Local\Temp\ccBSd2SA.s 			page 13


 513:Generated_Source\PSoC4/PWM_R.c ****     *  Dither Mode, Center Aligned Mode or One Output Mode
 514:Generated_Source\PSoC4/PWM_R.c ****     *
 515:Generated_Source\PSoC4/PWM_R.c ****     *******************************************************************************/
 516:Generated_Source\PSoC4/PWM_R.c ****     void PWM_R_WriteCompare(uint8 compare) \
 517:Generated_Source\PSoC4/PWM_R.c ****                                        
 518:Generated_Source\PSoC4/PWM_R.c ****     {
 173              		.loc 1 518 0
 174              		.cfi_startproc
 175              		@ args = 0, pretend = 0, frame = 0
 176              		@ frame_needed = 0, uses_anonymous_args = 0
 177              		@ link register save eliminated.
 178              	.LVL2:
 519:Generated_Source\PSoC4/PWM_R.c ****         #if(PWM_R_UsingFixedFunction)
 520:Generated_Source\PSoC4/PWM_R.c ****             CY_SET_REG16(PWM_R_COMPARE1_LSB_PTR, (uint16)compare);
 521:Generated_Source\PSoC4/PWM_R.c ****         #else
 522:Generated_Source\PSoC4/PWM_R.c ****             CY_SET_REG8(PWM_R_COMPARE1_LSB_PTR, compare);
 179              		.loc 1 522 0
 180 0000 014B     		ldr	r3, .L17
 181 0002 1870     		strb	r0, [r3]
 523:Generated_Source\PSoC4/PWM_R.c ****         #endif /* (PWM_R_UsingFixedFunction) */
 524:Generated_Source\PSoC4/PWM_R.c **** 
 525:Generated_Source\PSoC4/PWM_R.c ****         #if (PWM_R_PWMMode == PWM_R__B_PWM__DITHER)
 526:Generated_Source\PSoC4/PWM_R.c ****             #if(PWM_R_UsingFixedFunction)
 527:Generated_Source\PSoC4/PWM_R.c ****                 CY_SET_REG16(PWM_R_COMPARE2_LSB_PTR, (uint16)(compare + 1u));
 528:Generated_Source\PSoC4/PWM_R.c ****             #else
 529:Generated_Source\PSoC4/PWM_R.c ****                 CY_SET_REG8(PWM_R_COMPARE2_LSB_PTR, (compare + 1u));
 530:Generated_Source\PSoC4/PWM_R.c ****             #endif /* (PWM_R_UsingFixedFunction) */
 531:Generated_Source\PSoC4/PWM_R.c ****         #endif /* (PWM_R_PWMMode == PWM_R__B_PWM__DITHER) */
 532:Generated_Source\PSoC4/PWM_R.c ****     }
 182              		.loc 1 532 0
 183              		@ sp needed
 184 0004 7047     		bx	lr
 185              	.L18:
 186 0006 C046     		.align	2
 187              	.L17:
 188 0008 22000F40 		.word	1074724898
 189              		.cfi_endproc
 190              	.LFE8:
 191              		.size	PWM_R_WriteCompare, .-PWM_R_WriteCompare
 192              		.section	.text.PWM_R_SetInterruptMode,"ax",%progbits
 193              		.align	2
 194              		.global	PWM_R_SetInterruptMode
 195              		.code	16
 196              		.thumb_func
 197              		.type	PWM_R_SetInterruptMode, %function
 198              	PWM_R_SetInterruptMode:
 199              	.LFB9:
 533:Generated_Source\PSoC4/PWM_R.c **** 
 534:Generated_Source\PSoC4/PWM_R.c **** 
 535:Generated_Source\PSoC4/PWM_R.c **** #else
 536:Generated_Source\PSoC4/PWM_R.c **** 
 537:Generated_Source\PSoC4/PWM_R.c **** 
 538:Generated_Source\PSoC4/PWM_R.c ****     /*******************************************************************************
 539:Generated_Source\PSoC4/PWM_R.c ****     * Function Name: PWM_R_WriteCompare1
 540:Generated_Source\PSoC4/PWM_R.c ****     ********************************************************************************
 541:Generated_Source\PSoC4/PWM_R.c ****     *
 542:Generated_Source\PSoC4/PWM_R.c ****     * Summary:
ARM GAS  C:\Users\jagumiel\AppData\Local\Temp\ccBSd2SA.s 			page 14


 543:Generated_Source\PSoC4/PWM_R.c ****     *  This funtion is used to change the compare1 value.  The compare output will
 544:Generated_Source\PSoC4/PWM_R.c ****     *  reflect the new value on the next UDB clock.  The compare output will be
 545:Generated_Source\PSoC4/PWM_R.c ****     *  driven high when the present counter value is less than or less than or
 546:Generated_Source\PSoC4/PWM_R.c ****     *  equal to the compare register, depending on the mode.
 547:Generated_Source\PSoC4/PWM_R.c ****     *
 548:Generated_Source\PSoC4/PWM_R.c ****     * Parameters:
 549:Generated_Source\PSoC4/PWM_R.c ****     *  compare:  New compare value.
 550:Generated_Source\PSoC4/PWM_R.c ****     *
 551:Generated_Source\PSoC4/PWM_R.c ****     * Return:
 552:Generated_Source\PSoC4/PWM_R.c ****     *  None
 553:Generated_Source\PSoC4/PWM_R.c ****     *
 554:Generated_Source\PSoC4/PWM_R.c ****     *******************************************************************************/
 555:Generated_Source\PSoC4/PWM_R.c ****     void PWM_R_WriteCompare1(uint8 compare) \
 556:Generated_Source\PSoC4/PWM_R.c ****                                         
 557:Generated_Source\PSoC4/PWM_R.c ****     {
 558:Generated_Source\PSoC4/PWM_R.c ****         #if(PWM_R_UsingFixedFunction)
 559:Generated_Source\PSoC4/PWM_R.c ****             CY_SET_REG16(PWM_R_COMPARE1_LSB_PTR, (uint16)compare);
 560:Generated_Source\PSoC4/PWM_R.c ****         #else
 561:Generated_Source\PSoC4/PWM_R.c ****             CY_SET_REG8(PWM_R_COMPARE1_LSB_PTR, compare);
 562:Generated_Source\PSoC4/PWM_R.c ****         #endif /* (PWM_R_UsingFixedFunction) */
 563:Generated_Source\PSoC4/PWM_R.c ****     }
 564:Generated_Source\PSoC4/PWM_R.c **** 
 565:Generated_Source\PSoC4/PWM_R.c **** 
 566:Generated_Source\PSoC4/PWM_R.c ****     /*******************************************************************************
 567:Generated_Source\PSoC4/PWM_R.c ****     * Function Name: PWM_R_WriteCompare2
 568:Generated_Source\PSoC4/PWM_R.c ****     ********************************************************************************
 569:Generated_Source\PSoC4/PWM_R.c ****     *
 570:Generated_Source\PSoC4/PWM_R.c ****     * Summary:
 571:Generated_Source\PSoC4/PWM_R.c ****     *  This funtion is used to change the compare value, for compare1 output.
 572:Generated_Source\PSoC4/PWM_R.c ****     *  The compare output will reflect the new value on the next UDB clock.
 573:Generated_Source\PSoC4/PWM_R.c ****     *  The compare output will be driven high when the present counter value is
 574:Generated_Source\PSoC4/PWM_R.c ****     *  less than or less than or equal to the compare register, depending on the
 575:Generated_Source\PSoC4/PWM_R.c ****     *  mode.
 576:Generated_Source\PSoC4/PWM_R.c ****     *
 577:Generated_Source\PSoC4/PWM_R.c ****     * Parameters:
 578:Generated_Source\PSoC4/PWM_R.c ****     *  compare:  New compare value.
 579:Generated_Source\PSoC4/PWM_R.c ****     *
 580:Generated_Source\PSoC4/PWM_R.c ****     * Return:
 581:Generated_Source\PSoC4/PWM_R.c ****     *  None
 582:Generated_Source\PSoC4/PWM_R.c ****     *
 583:Generated_Source\PSoC4/PWM_R.c ****     *******************************************************************************/
 584:Generated_Source\PSoC4/PWM_R.c ****     void PWM_R_WriteCompare2(uint8 compare) \
 585:Generated_Source\PSoC4/PWM_R.c ****                                         
 586:Generated_Source\PSoC4/PWM_R.c ****     {
 587:Generated_Source\PSoC4/PWM_R.c ****         #if(PWM_R_UsingFixedFunction)
 588:Generated_Source\PSoC4/PWM_R.c ****             CY_SET_REG16(PWM_R_COMPARE2_LSB_PTR, compare);
 589:Generated_Source\PSoC4/PWM_R.c ****         #else
 590:Generated_Source\PSoC4/PWM_R.c ****             CY_SET_REG8(PWM_R_COMPARE2_LSB_PTR, compare);
 591:Generated_Source\PSoC4/PWM_R.c ****         #endif /* (PWM_R_UsingFixedFunction) */
 592:Generated_Source\PSoC4/PWM_R.c ****     }
 593:Generated_Source\PSoC4/PWM_R.c **** #endif /* UseOneCompareMode */
 594:Generated_Source\PSoC4/PWM_R.c **** 
 595:Generated_Source\PSoC4/PWM_R.c **** #if (PWM_R_DeadBandUsed)
 596:Generated_Source\PSoC4/PWM_R.c **** 
 597:Generated_Source\PSoC4/PWM_R.c **** 
 598:Generated_Source\PSoC4/PWM_R.c ****     /*******************************************************************************
 599:Generated_Source\PSoC4/PWM_R.c ****     * Function Name: PWM_R_WriteDeadTime
ARM GAS  C:\Users\jagumiel\AppData\Local\Temp\ccBSd2SA.s 			page 15


 600:Generated_Source\PSoC4/PWM_R.c ****     ********************************************************************************
 601:Generated_Source\PSoC4/PWM_R.c ****     *
 602:Generated_Source\PSoC4/PWM_R.c ****     * Summary:
 603:Generated_Source\PSoC4/PWM_R.c ****     *  This function writes the dead-band counts to the corresponding register
 604:Generated_Source\PSoC4/PWM_R.c ****     *
 605:Generated_Source\PSoC4/PWM_R.c ****     * Parameters:
 606:Generated_Source\PSoC4/PWM_R.c ****     *  deadtime:  Number of counts for dead time
 607:Generated_Source\PSoC4/PWM_R.c ****     *
 608:Generated_Source\PSoC4/PWM_R.c ****     * Return:
 609:Generated_Source\PSoC4/PWM_R.c ****     *  None
 610:Generated_Source\PSoC4/PWM_R.c ****     *
 611:Generated_Source\PSoC4/PWM_R.c ****     *******************************************************************************/
 612:Generated_Source\PSoC4/PWM_R.c ****     void PWM_R_WriteDeadTime(uint8 deadtime) 
 613:Generated_Source\PSoC4/PWM_R.c ****     {
 614:Generated_Source\PSoC4/PWM_R.c ****         /* If using the Dead Band 1-255 mode then just write the register */
 615:Generated_Source\PSoC4/PWM_R.c ****         #if(!PWM_R_DeadBand2_4)
 616:Generated_Source\PSoC4/PWM_R.c ****             CY_SET_REG8(PWM_R_DEADBAND_COUNT_PTR, deadtime);
 617:Generated_Source\PSoC4/PWM_R.c ****         #else
 618:Generated_Source\PSoC4/PWM_R.c ****             /* Otherwise the data has to be masked and offset */
 619:Generated_Source\PSoC4/PWM_R.c ****             /* Clear existing data */
 620:Generated_Source\PSoC4/PWM_R.c ****             PWM_R_DEADBAND_COUNT &= ((uint8)(~PWM_R_DEADBAND_COUNT_MASK));
 621:Generated_Source\PSoC4/PWM_R.c **** 
 622:Generated_Source\PSoC4/PWM_R.c ****             /* Set new dead time */
 623:Generated_Source\PSoC4/PWM_R.c ****             #if(PWM_R_DEADBAND_COUNT_SHIFT)
 624:Generated_Source\PSoC4/PWM_R.c ****                 PWM_R_DEADBAND_COUNT |= ((uint8)((uint8)deadtime << PWM_R_DEADBAND_COUNT_SHIFT)) &
 625:Generated_Source\PSoC4/PWM_R.c ****                                                     PWM_R_DEADBAND_COUNT_MASK;
 626:Generated_Source\PSoC4/PWM_R.c ****             #else
 627:Generated_Source\PSoC4/PWM_R.c ****                 PWM_R_DEADBAND_COUNT |= deadtime & PWM_R_DEADBAND_COUNT_MASK;
 628:Generated_Source\PSoC4/PWM_R.c ****             #endif /* (PWM_R_DEADBAND_COUNT_SHIFT) */
 629:Generated_Source\PSoC4/PWM_R.c **** 
 630:Generated_Source\PSoC4/PWM_R.c ****         #endif /* (!PWM_R_DeadBand2_4) */
 631:Generated_Source\PSoC4/PWM_R.c ****     }
 632:Generated_Source\PSoC4/PWM_R.c **** 
 633:Generated_Source\PSoC4/PWM_R.c **** 
 634:Generated_Source\PSoC4/PWM_R.c ****     /*******************************************************************************
 635:Generated_Source\PSoC4/PWM_R.c ****     * Function Name: PWM_R_ReadDeadTime
 636:Generated_Source\PSoC4/PWM_R.c ****     ********************************************************************************
 637:Generated_Source\PSoC4/PWM_R.c ****     *
 638:Generated_Source\PSoC4/PWM_R.c ****     * Summary:
 639:Generated_Source\PSoC4/PWM_R.c ****     *  This function reads the dead-band counts from the corresponding register
 640:Generated_Source\PSoC4/PWM_R.c ****     *
 641:Generated_Source\PSoC4/PWM_R.c ****     * Parameters:
 642:Generated_Source\PSoC4/PWM_R.c ****     *  None
 643:Generated_Source\PSoC4/PWM_R.c ****     *
 644:Generated_Source\PSoC4/PWM_R.c ****     * Return:
 645:Generated_Source\PSoC4/PWM_R.c ****     *  Dead Band Counts
 646:Generated_Source\PSoC4/PWM_R.c ****     *
 647:Generated_Source\PSoC4/PWM_R.c ****     *******************************************************************************/
 648:Generated_Source\PSoC4/PWM_R.c ****     uint8 PWM_R_ReadDeadTime(void) 
 649:Generated_Source\PSoC4/PWM_R.c ****     {
 650:Generated_Source\PSoC4/PWM_R.c ****         /* If using the Dead Band 1-255 mode then just read the register */
 651:Generated_Source\PSoC4/PWM_R.c ****         #if(!PWM_R_DeadBand2_4)
 652:Generated_Source\PSoC4/PWM_R.c ****             return (CY_GET_REG8(PWM_R_DEADBAND_COUNT_PTR));
 653:Generated_Source\PSoC4/PWM_R.c ****         #else
 654:Generated_Source\PSoC4/PWM_R.c **** 
 655:Generated_Source\PSoC4/PWM_R.c ****             /* Otherwise the data has to be masked and offset */
 656:Generated_Source\PSoC4/PWM_R.c ****             #if(PWM_R_DEADBAND_COUNT_SHIFT)
ARM GAS  C:\Users\jagumiel\AppData\Local\Temp\ccBSd2SA.s 			page 16


 657:Generated_Source\PSoC4/PWM_R.c ****                 return ((uint8)(((uint8)(PWM_R_DEADBAND_COUNT & PWM_R_DEADBAND_COUNT_MASK)) >>
 658:Generated_Source\PSoC4/PWM_R.c ****                                                                            PWM_R_DEADBAND_COUNT_SHI
 659:Generated_Source\PSoC4/PWM_R.c ****             #else
 660:Generated_Source\PSoC4/PWM_R.c ****                 return (PWM_R_DEADBAND_COUNT & PWM_R_DEADBAND_COUNT_MASK);
 661:Generated_Source\PSoC4/PWM_R.c ****             #endif /* (PWM_R_DEADBAND_COUNT_SHIFT) */
 662:Generated_Source\PSoC4/PWM_R.c ****         #endif /* (!PWM_R_DeadBand2_4) */
 663:Generated_Source\PSoC4/PWM_R.c ****     }
 664:Generated_Source\PSoC4/PWM_R.c **** #endif /* DeadBandUsed */
 665:Generated_Source\PSoC4/PWM_R.c **** 
 666:Generated_Source\PSoC4/PWM_R.c **** #if (PWM_R_UseStatus || PWM_R_UsingFixedFunction)
 667:Generated_Source\PSoC4/PWM_R.c **** 
 668:Generated_Source\PSoC4/PWM_R.c **** 
 669:Generated_Source\PSoC4/PWM_R.c ****     /*******************************************************************************
 670:Generated_Source\PSoC4/PWM_R.c ****     * Function Name: PWM_R_SetInterruptMode
 671:Generated_Source\PSoC4/PWM_R.c ****     ********************************************************************************
 672:Generated_Source\PSoC4/PWM_R.c ****     *
 673:Generated_Source\PSoC4/PWM_R.c ****     * Summary:
 674:Generated_Source\PSoC4/PWM_R.c ****     *  This function configures the interrupts mask control of theinterrupt
 675:Generated_Source\PSoC4/PWM_R.c ****     *  source status register.
 676:Generated_Source\PSoC4/PWM_R.c ****     *
 677:Generated_Source\PSoC4/PWM_R.c ****     * Parameters:
 678:Generated_Source\PSoC4/PWM_R.c ****     *  uint8 interruptMode: Bit field containing the interrupt sources enabled
 679:Generated_Source\PSoC4/PWM_R.c ****     *
 680:Generated_Source\PSoC4/PWM_R.c ****     * Return:
 681:Generated_Source\PSoC4/PWM_R.c ****     *  None
 682:Generated_Source\PSoC4/PWM_R.c ****     *
 683:Generated_Source\PSoC4/PWM_R.c ****     *******************************************************************************/
 684:Generated_Source\PSoC4/PWM_R.c ****     void PWM_R_SetInterruptMode(uint8 interruptMode) 
 685:Generated_Source\PSoC4/PWM_R.c ****     {
 200              		.loc 1 685 0
 201              		.cfi_startproc
 202              		@ args = 0, pretend = 0, frame = 0
 203              		@ frame_needed = 0, uses_anonymous_args = 0
 204              		@ link register save eliminated.
 205              	.LVL3:
 686:Generated_Source\PSoC4/PWM_R.c ****         CY_SET_REG8(PWM_R_STATUS_MASK_PTR, interruptMode);
 206              		.loc 1 686 0
 207 0000 014B     		ldr	r3, .L20
 208 0002 1870     		strb	r0, [r3]
 687:Generated_Source\PSoC4/PWM_R.c ****     }
 209              		.loc 1 687 0
 210              		@ sp needed
 211 0004 7047     		bx	lr
 212              	.L21:
 213 0006 C046     		.align	2
 214              	.L20:
 215 0008 82000F40 		.word	1074724994
 216              		.cfi_endproc
 217              	.LFE9:
 218              		.size	PWM_R_SetInterruptMode, .-PWM_R_SetInterruptMode
 219              		.section	.text.PWM_R_ReadStatusRegister,"ax",%progbits
 220              		.align	2
 221              		.global	PWM_R_ReadStatusRegister
 222              		.code	16
 223              		.thumb_func
 224              		.type	PWM_R_ReadStatusRegister, %function
 225              	PWM_R_ReadStatusRegister:
ARM GAS  C:\Users\jagumiel\AppData\Local\Temp\ccBSd2SA.s 			page 17


 226              	.LFB10:
 688:Generated_Source\PSoC4/PWM_R.c **** 
 689:Generated_Source\PSoC4/PWM_R.c **** 
 690:Generated_Source\PSoC4/PWM_R.c ****     /*******************************************************************************
 691:Generated_Source\PSoC4/PWM_R.c ****     * Function Name: PWM_R_ReadStatusRegister
 692:Generated_Source\PSoC4/PWM_R.c ****     ********************************************************************************
 693:Generated_Source\PSoC4/PWM_R.c ****     *
 694:Generated_Source\PSoC4/PWM_R.c ****     * Summary:
 695:Generated_Source\PSoC4/PWM_R.c ****     *  This function returns the current state of the status register.
 696:Generated_Source\PSoC4/PWM_R.c ****     *
 697:Generated_Source\PSoC4/PWM_R.c ****     * Parameters:
 698:Generated_Source\PSoC4/PWM_R.c ****     *  None
 699:Generated_Source\PSoC4/PWM_R.c ****     *
 700:Generated_Source\PSoC4/PWM_R.c ****     * Return:
 701:Generated_Source\PSoC4/PWM_R.c ****     *  uint8 : Current status register value. The status register bits are:
 702:Generated_Source\PSoC4/PWM_R.c ****     *  [7:6] : Unused(0)
 703:Generated_Source\PSoC4/PWM_R.c ****     *  [5]   : Kill event output
 704:Generated_Source\PSoC4/PWM_R.c ****     *  [4]   : FIFO not empty
 705:Generated_Source\PSoC4/PWM_R.c ****     *  [3]   : FIFO full
 706:Generated_Source\PSoC4/PWM_R.c ****     *  [2]   : Terminal count
 707:Generated_Source\PSoC4/PWM_R.c ****     *  [1]   : Compare output 2
 708:Generated_Source\PSoC4/PWM_R.c ****     *  [0]   : Compare output 1
 709:Generated_Source\PSoC4/PWM_R.c ****     *
 710:Generated_Source\PSoC4/PWM_R.c ****     *******************************************************************************/
 711:Generated_Source\PSoC4/PWM_R.c ****     uint8 PWM_R_ReadStatusRegister(void) 
 712:Generated_Source\PSoC4/PWM_R.c ****     {
 227              		.loc 1 712 0
 228              		.cfi_startproc
 229              		@ args = 0, pretend = 0, frame = 0
 230              		@ frame_needed = 0, uses_anonymous_args = 0
 231              		@ link register save eliminated.
 713:Generated_Source\PSoC4/PWM_R.c ****         return (CY_GET_REG8(PWM_R_STATUS_PTR));
 232              		.loc 1 713 0
 233 0000 014B     		ldr	r3, .L23
 234 0002 1878     		ldrb	r0, [r3]
 235 0004 C0B2     		uxtb	r0, r0
 714:Generated_Source\PSoC4/PWM_R.c ****     }
 236              		.loc 1 714 0
 237              		@ sp needed
 238 0006 7047     		bx	lr
 239              	.L24:
 240              		.align	2
 241              	.L23:
 242 0008 62000F40 		.word	1074724962
 243              		.cfi_endproc
 244              	.LFE10:
 245              		.size	PWM_R_ReadStatusRegister, .-PWM_R_ReadStatusRegister
 246              		.section	.text.PWM_R_ReadControlRegister,"ax",%progbits
 247              		.align	2
 248              		.global	PWM_R_ReadControlRegister
 249              		.code	16
 250              		.thumb_func
 251              		.type	PWM_R_ReadControlRegister, %function
 252              	PWM_R_ReadControlRegister:
 253              	.LFB11:
 715:Generated_Source\PSoC4/PWM_R.c **** 
 716:Generated_Source\PSoC4/PWM_R.c **** #endif /* (PWM_R_UseStatus || PWM_R_UsingFixedFunction) */
ARM GAS  C:\Users\jagumiel\AppData\Local\Temp\ccBSd2SA.s 			page 18


 717:Generated_Source\PSoC4/PWM_R.c **** 
 718:Generated_Source\PSoC4/PWM_R.c **** 
 719:Generated_Source\PSoC4/PWM_R.c **** #if (PWM_R_UseControl)
 720:Generated_Source\PSoC4/PWM_R.c **** 
 721:Generated_Source\PSoC4/PWM_R.c **** 
 722:Generated_Source\PSoC4/PWM_R.c ****     /*******************************************************************************
 723:Generated_Source\PSoC4/PWM_R.c ****     * Function Name: PWM_R_ReadControlRegister
 724:Generated_Source\PSoC4/PWM_R.c ****     ********************************************************************************
 725:Generated_Source\PSoC4/PWM_R.c ****     *
 726:Generated_Source\PSoC4/PWM_R.c ****     * Summary:
 727:Generated_Source\PSoC4/PWM_R.c ****     *  Returns the current state of the control register. This API is available
 728:Generated_Source\PSoC4/PWM_R.c ****     *  only if the control register is not removed.
 729:Generated_Source\PSoC4/PWM_R.c ****     *
 730:Generated_Source\PSoC4/PWM_R.c ****     * Parameters:
 731:Generated_Source\PSoC4/PWM_R.c ****     *  None
 732:Generated_Source\PSoC4/PWM_R.c ****     *
 733:Generated_Source\PSoC4/PWM_R.c ****     * Return:
 734:Generated_Source\PSoC4/PWM_R.c ****     *  uint8 : Current control register value
 735:Generated_Source\PSoC4/PWM_R.c ****     *
 736:Generated_Source\PSoC4/PWM_R.c ****     *******************************************************************************/
 737:Generated_Source\PSoC4/PWM_R.c ****     uint8 PWM_R_ReadControlRegister(void) 
 738:Generated_Source\PSoC4/PWM_R.c ****     {
 254              		.loc 1 738 0
 255              		.cfi_startproc
 256              		@ args = 0, pretend = 0, frame = 0
 257              		@ frame_needed = 0, uses_anonymous_args = 0
 258              		@ link register save eliminated.
 739:Generated_Source\PSoC4/PWM_R.c ****         uint8 result;
 740:Generated_Source\PSoC4/PWM_R.c **** 
 741:Generated_Source\PSoC4/PWM_R.c ****         result = CY_GET_REG8(PWM_R_CONTROL_PTR);
 259              		.loc 1 741 0
 260 0000 014B     		ldr	r3, .L26
 261 0002 1878     		ldrb	r0, [r3]
 262 0004 C0B2     		uxtb	r0, r0
 263              	.LVL4:
 742:Generated_Source\PSoC4/PWM_R.c ****         return (result);
 743:Generated_Source\PSoC4/PWM_R.c ****     }
 264              		.loc 1 743 0
 265              		@ sp needed
 266 0006 7047     		bx	lr
 267              	.L27:
 268              		.align	2
 269              	.L26:
 270 0008 72000F40 		.word	1074724978
 271              		.cfi_endproc
 272              	.LFE11:
 273              		.size	PWM_R_ReadControlRegister, .-PWM_R_ReadControlRegister
 274              		.section	.text.PWM_R_WriteControlRegister,"ax",%progbits
 275              		.align	2
 276              		.global	PWM_R_WriteControlRegister
 277              		.code	16
 278              		.thumb_func
 279              		.type	PWM_R_WriteControlRegister, %function
 280              	PWM_R_WriteControlRegister:
 281              	.LFB12:
 744:Generated_Source\PSoC4/PWM_R.c **** 
 745:Generated_Source\PSoC4/PWM_R.c **** 
ARM GAS  C:\Users\jagumiel\AppData\Local\Temp\ccBSd2SA.s 			page 19


 746:Generated_Source\PSoC4/PWM_R.c ****     /*******************************************************************************
 747:Generated_Source\PSoC4/PWM_R.c ****     * Function Name: PWM_R_WriteControlRegister
 748:Generated_Source\PSoC4/PWM_R.c ****     ********************************************************************************
 749:Generated_Source\PSoC4/PWM_R.c ****     *
 750:Generated_Source\PSoC4/PWM_R.c ****     * Summary:
 751:Generated_Source\PSoC4/PWM_R.c ****     *  Sets the bit field of the control register. This API is available only if
 752:Generated_Source\PSoC4/PWM_R.c ****     *  the control register is not removed.
 753:Generated_Source\PSoC4/PWM_R.c ****     *
 754:Generated_Source\PSoC4/PWM_R.c ****     * Parameters:
 755:Generated_Source\PSoC4/PWM_R.c ****     *  uint8 control: Control register bit field, The status register bits are:
 756:Generated_Source\PSoC4/PWM_R.c ****     *  [7]   : PWM Enable
 757:Generated_Source\PSoC4/PWM_R.c ****     *  [6]   : Reset
 758:Generated_Source\PSoC4/PWM_R.c ****     *  [5:3] : Compare Mode2
 759:Generated_Source\PSoC4/PWM_R.c ****     *  [2:0] : Compare Mode2
 760:Generated_Source\PSoC4/PWM_R.c ****     *
 761:Generated_Source\PSoC4/PWM_R.c ****     * Return:
 762:Generated_Source\PSoC4/PWM_R.c ****     *  None
 763:Generated_Source\PSoC4/PWM_R.c ****     *
 764:Generated_Source\PSoC4/PWM_R.c ****     *******************************************************************************/
 765:Generated_Source\PSoC4/PWM_R.c ****     void PWM_R_WriteControlRegister(uint8 control) 
 766:Generated_Source\PSoC4/PWM_R.c ****     {
 282              		.loc 1 766 0
 283              		.cfi_startproc
 284              		@ args = 0, pretend = 0, frame = 0
 285              		@ frame_needed = 0, uses_anonymous_args = 0
 286              		@ link register save eliminated.
 287              	.LVL5:
 767:Generated_Source\PSoC4/PWM_R.c ****         CY_SET_REG8(PWM_R_CONTROL_PTR, control);
 288              		.loc 1 767 0
 289 0000 014B     		ldr	r3, .L29
 290 0002 1870     		strb	r0, [r3]
 768:Generated_Source\PSoC4/PWM_R.c ****     }
 291              		.loc 1 768 0
 292              		@ sp needed
 293 0004 7047     		bx	lr
 294              	.L30:
 295 0006 C046     		.align	2
 296              	.L29:
 297 0008 72000F40 		.word	1074724978
 298              		.cfi_endproc
 299              	.LFE12:
 300              		.size	PWM_R_WriteControlRegister, .-PWM_R_WriteControlRegister
 301              		.section	.text.PWM_R_ReadCapture,"ax",%progbits
 302              		.align	2
 303              		.global	PWM_R_ReadCapture
 304              		.code	16
 305              		.thumb_func
 306              		.type	PWM_R_ReadCapture, %function
 307              	PWM_R_ReadCapture:
 308              	.LFB13:
 769:Generated_Source\PSoC4/PWM_R.c **** 
 770:Generated_Source\PSoC4/PWM_R.c **** #endif /* (PWM_R_UseControl) */
 771:Generated_Source\PSoC4/PWM_R.c **** 
 772:Generated_Source\PSoC4/PWM_R.c **** 
 773:Generated_Source\PSoC4/PWM_R.c **** #if (!PWM_R_UsingFixedFunction)
 774:Generated_Source\PSoC4/PWM_R.c **** 
 775:Generated_Source\PSoC4/PWM_R.c **** 
ARM GAS  C:\Users\jagumiel\AppData\Local\Temp\ccBSd2SA.s 			page 20


 776:Generated_Source\PSoC4/PWM_R.c ****     /*******************************************************************************
 777:Generated_Source\PSoC4/PWM_R.c ****     * Function Name: PWM_R_ReadCapture
 778:Generated_Source\PSoC4/PWM_R.c ****     ********************************************************************************
 779:Generated_Source\PSoC4/PWM_R.c ****     *
 780:Generated_Source\PSoC4/PWM_R.c ****     * Summary:
 781:Generated_Source\PSoC4/PWM_R.c ****     *  Reads the capture value from the capture FIFO.
 782:Generated_Source\PSoC4/PWM_R.c ****     *
 783:Generated_Source\PSoC4/PWM_R.c ****     * Parameters:
 784:Generated_Source\PSoC4/PWM_R.c ****     *  None
 785:Generated_Source\PSoC4/PWM_R.c ****     *
 786:Generated_Source\PSoC4/PWM_R.c ****     * Return:
 787:Generated_Source\PSoC4/PWM_R.c ****     *  uint8/uint16: The current capture value
 788:Generated_Source\PSoC4/PWM_R.c ****     *
 789:Generated_Source\PSoC4/PWM_R.c ****     *******************************************************************************/
 790:Generated_Source\PSoC4/PWM_R.c ****     uint8 PWM_R_ReadCapture(void) 
 791:Generated_Source\PSoC4/PWM_R.c ****     {
 309              		.loc 1 791 0
 310              		.cfi_startproc
 311              		@ args = 0, pretend = 0, frame = 0
 312              		@ frame_needed = 0, uses_anonymous_args = 0
 313              		@ link register save eliminated.
 792:Generated_Source\PSoC4/PWM_R.c ****         return (CY_GET_REG8(PWM_R_CAPTURE_LSB_PTR));
 314              		.loc 1 792 0
 315 0000 014B     		ldr	r3, .L32
 316 0002 1878     		ldrb	r0, [r3]
 317 0004 C0B2     		uxtb	r0, r0
 793:Generated_Source\PSoC4/PWM_R.c ****     }
 318              		.loc 1 793 0
 319              		@ sp needed
 320 0006 7047     		bx	lr
 321              	.L33:
 322              		.align	2
 323              	.L32:
 324 0008 52000F40 		.word	1074724946
 325              		.cfi_endproc
 326              	.LFE13:
 327              		.size	PWM_R_ReadCapture, .-PWM_R_ReadCapture
 328              		.section	.text.PWM_R_ClearFIFO,"ax",%progbits
 329              		.align	2
 330              		.global	PWM_R_ClearFIFO
 331              		.code	16
 332              		.thumb_func
 333              		.type	PWM_R_ClearFIFO, %function
 334              	PWM_R_ClearFIFO:
 335              	.LFB6:
 454:Generated_Source\PSoC4/PWM_R.c ****             while(0u != (PWM_R_ReadStatusRegister() & PWM_R_STATUS_FIFONEMPTY))
 336              		.loc 1 454 0
 337              		.cfi_startproc
 338              		@ args = 0, pretend = 0, frame = 0
 339              		@ frame_needed = 0, uses_anonymous_args = 0
 340 0000 10B5     		push	{r4, lr}
 341              		.cfi_def_cfa_offset 8
 342              		.cfi_offset 4, -8
 343              		.cfi_offset 14, -4
 455:Generated_Source\PSoC4/PWM_R.c ****             {
 344              		.loc 1 455 0
 345 0002 01E0     		b	.L35
ARM GAS  C:\Users\jagumiel\AppData\Local\Temp\ccBSd2SA.s 			page 21


 346              	.L36:
 457:Generated_Source\PSoC4/PWM_R.c ****             }
 347              		.loc 1 457 0
 348 0004 FFF7FEFF 		bl	PWM_R_ReadCapture
 349              	.LVL6:
 350              	.L35:
 455:Generated_Source\PSoC4/PWM_R.c ****             {
 351              		.loc 1 455 0
 352 0008 FFF7FEFF 		bl	PWM_R_ReadStatusRegister
 353              	.LVL7:
 354 000c C306     		lsls	r3, r0, #27
 355 000e F9D4     		bmi	.L36
 459:Generated_Source\PSoC4/PWM_R.c **** 
 356              		.loc 1 459 0
 357              		@ sp needed
 358 0010 10BD     		pop	{r4, pc}
 359              		.cfi_endproc
 360              	.LFE6:
 361              		.size	PWM_R_ClearFIFO, .-PWM_R_ClearFIFO
 362 0012 C046     		.section	.text.PWM_R_Init,"ax",%progbits
 363              		.align	2
 364              		.global	PWM_R_Init
 365              		.code	16
 366              		.thumb_func
 367              		.type	PWM_R_Init, %function
 368              	PWM_R_Init:
 369              	.LFB1:
  85:Generated_Source\PSoC4/PWM_R.c ****     #if (PWM_R_UsingFixedFunction || PWM_R_UseControl)
 370              		.loc 1 85 0
 371              		.cfi_startproc
 372              		@ args = 0, pretend = 0, frame = 0
 373              		@ frame_needed = 0, uses_anonymous_args = 0
 374 0000 10B5     		push	{r4, lr}
 375              		.cfi_def_cfa_offset 8
 376              		.cfi_offset 4, -8
 377              		.cfi_offset 14, -4
 117:Generated_Source\PSoC4/PWM_R.c ****                 ((uint8)(~PWM_R_CTRL_CMPMODE1_MASK));
 378              		.loc 1 117 0
 379 0002 1349     		ldr	r1, .L38
 380 0004 0B78     		ldrb	r3, [r1]
 381 0006 3F22     		movs	r2, #63
 382 0008 9343     		bics	r3, r2
 383              	.LVL8:
 119:Generated_Source\PSoC4/PWM_R.c ****                                    PWM_R_DEFAULT_COMPARE1_MODE;
 384              		.loc 1 119 0
 385 000a 0C22     		movs	r2, #12
 386 000c 1343     		orrs	r3, r2
 387              	.LVL9:
 388 000e DBB2     		uxtb	r3, r3
 389 0010 0B70     		strb	r3, [r1]
 126:Generated_Source\PSoC4/PWM_R.c ****         #else /* (PWM_R_Resolution == 16)*/
 390              		.loc 1 126 0
 391 0012 104C     		ldr	r4, .L38+4
 392 0014 2278     		ldrb	r2, [r4]
 393 0016 0123     		movs	r3, #1
 394 0018 1343     		orrs	r3, r2
 395 001a DBB2     		uxtb	r3, r3
ARM GAS  C:\Users\jagumiel\AppData\Local\Temp\ccBSd2SA.s 			page 22


 396 001c 2370     		strb	r3, [r4]
 133:Generated_Source\PSoC4/PWM_R.c ****     #endif /* (!PWM_R_UsingFixedFunction) */
 397              		.loc 1 133 0
 398 001e FF20     		movs	r0, #255
 399 0020 FFF7FEFF 		bl	PWM_R_WriteCounter
 400              	.LVL10:
 136:Generated_Source\PSoC4/PWM_R.c **** 
 401              		.loc 1 136 0
 402 0024 FF20     		movs	r0, #255
 403 0026 FFF7FEFF 		bl	PWM_R_WritePeriod
 404              	.LVL11:
 139:Generated_Source\PSoC4/PWM_R.c ****         #else
 405              		.loc 1 139 0
 406 002a 7F20     		movs	r0, #127
 407 002c FFF7FEFF 		bl	PWM_R_WriteCompare
 408              	.LVL12:
 154:Generated_Source\PSoC4/PWM_R.c ****     #endif /* (PWM_R_UseStatus || PWM_R_UsingFixedFunction) */
 409              		.loc 1 154 0
 410 0030 0020     		movs	r0, #0
 411 0032 FFF7FEFF 		bl	PWM_R_SetInterruptMode
 412              	.LVL13:
 167:Generated_Source\PSoC4/PWM_R.c ****             /* Use the interrupt output of the status register for IRQ output */
 413              		.loc 1 167 0
 414 0036 FFF7FEFF 		bl	CyEnterCriticalSection
 415              	.LVL14:
 169:Generated_Source\PSoC4/PWM_R.c **** 
 416              		.loc 1 169 0
 417 003a 2278     		ldrb	r2, [r4]
 418 003c 1023     		movs	r3, #16
 419 003e 1343     		orrs	r3, r2
 420 0040 DBB2     		uxtb	r3, r3
 421 0042 2370     		strb	r3, [r4]
 172:Generated_Source\PSoC4/PWM_R.c **** 
 422              		.loc 1 172 0
 423 0044 FFF7FEFF 		bl	CyExitCriticalSection
 424              	.LVL15:
 176:Generated_Source\PSoC4/PWM_R.c ****         #endif /* (PWM_R_UseStatus) */
 425              		.loc 1 176 0
 426 0048 FFF7FEFF 		bl	PWM_R_ClearFIFO
 427              	.LVL16:
 179:Generated_Source\PSoC4/PWM_R.c **** 
 428              		.loc 1 179 0
 429              		@ sp needed
 430 004c 10BD     		pop	{r4, pc}
 431              	.L39:
 432 004e C046     		.align	2
 433              	.L38:
 434 0050 72000F40 		.word	1074724978
 435 0054 92000F40 		.word	1074725010
 436              		.cfi_endproc
 437              	.LFE1:
 438              		.size	PWM_R_Init, .-PWM_R_Init
 439              		.section	.text.PWM_R_Start,"ax",%progbits
 440              		.align	2
 441              		.global	PWM_R_Start
 442              		.code	16
 443              		.thumb_func
ARM GAS  C:\Users\jagumiel\AppData\Local\Temp\ccBSd2SA.s 			page 23


 444              		.type	PWM_R_Start, %function
 445              	PWM_R_Start:
 446              	.LFB0:
  56:Generated_Source\PSoC4/PWM_R.c ****     /* If not Initialized then initialize all required hardware and software */
 447              		.loc 1 56 0
 448              		.cfi_startproc
 449              		@ args = 0, pretend = 0, frame = 0
 450              		@ frame_needed = 0, uses_anonymous_args = 0
 451 0000 10B5     		push	{r4, lr}
 452              		.cfi_def_cfa_offset 8
 453              		.cfi_offset 4, -8
 454              		.cfi_offset 14, -4
  58:Generated_Source\PSoC4/PWM_R.c ****     {
 455              		.loc 1 58 0
 456 0002 064B     		ldr	r3, .L42
 457 0004 1B78     		ldrb	r3, [r3]
 458 0006 002B     		cmp	r3, #0
 459 0008 04D1     		bne	.L41
  60:Generated_Source\PSoC4/PWM_R.c ****         PWM_R_initVar = 1u;
 460              		.loc 1 60 0
 461 000a FFF7FEFF 		bl	PWM_R_Init
 462              	.LVL17:
  61:Generated_Source\PSoC4/PWM_R.c ****     }
 463              		.loc 1 61 0
 464 000e 0122     		movs	r2, #1
 465 0010 024B     		ldr	r3, .L42
 466 0012 1A70     		strb	r2, [r3]
 467              	.L41:
  63:Generated_Source\PSoC4/PWM_R.c **** 
 468              		.loc 1 63 0
 469 0014 FFF7FEFF 		bl	PWM_R_Enable
 470              	.LVL18:
  65:Generated_Source\PSoC4/PWM_R.c **** 
 471              		.loc 1 65 0
 472              		@ sp needed
 473 0018 10BD     		pop	{r4, pc}
 474              	.L43:
 475 001a C046     		.align	2
 476              	.L42:
 477 001c 00000000 		.word	.LANCHOR0
 478              		.cfi_endproc
 479              	.LFE0:
 480              		.size	PWM_R_Start, .-PWM_R_Start
 481              		.section	.text.PWM_R_ReadCompare,"ax",%progbits
 482              		.align	2
 483              		.global	PWM_R_ReadCompare
 484              		.code	16
 485              		.thumb_func
 486              		.type	PWM_R_ReadCompare, %function
 487              	PWM_R_ReadCompare:
 488              	.LFB14:
 794:Generated_Source\PSoC4/PWM_R.c **** 
 795:Generated_Source\PSoC4/PWM_R.c **** #endif /* (!PWM_R_UsingFixedFunction) */
 796:Generated_Source\PSoC4/PWM_R.c **** 
 797:Generated_Source\PSoC4/PWM_R.c **** 
 798:Generated_Source\PSoC4/PWM_R.c **** #if (PWM_R_UseOneCompareMode)
 799:Generated_Source\PSoC4/PWM_R.c **** 
ARM GAS  C:\Users\jagumiel\AppData\Local\Temp\ccBSd2SA.s 			page 24


 800:Generated_Source\PSoC4/PWM_R.c **** 
 801:Generated_Source\PSoC4/PWM_R.c ****     /*******************************************************************************
 802:Generated_Source\PSoC4/PWM_R.c ****     * Function Name: PWM_R_ReadCompare
 803:Generated_Source\PSoC4/PWM_R.c ****     ********************************************************************************
 804:Generated_Source\PSoC4/PWM_R.c ****     *
 805:Generated_Source\PSoC4/PWM_R.c ****     * Summary:
 806:Generated_Source\PSoC4/PWM_R.c ****     *  Reads the compare value for the compare output when the PWM Mode parameter is
 807:Generated_Source\PSoC4/PWM_R.c ****     *  set to Dither mode, Center Aligned mode, or One Output mode.
 808:Generated_Source\PSoC4/PWM_R.c ****     *
 809:Generated_Source\PSoC4/PWM_R.c ****     * Parameters:
 810:Generated_Source\PSoC4/PWM_R.c ****     *  None
 811:Generated_Source\PSoC4/PWM_R.c ****     *
 812:Generated_Source\PSoC4/PWM_R.c ****     * Return:
 813:Generated_Source\PSoC4/PWM_R.c ****     *  uint8/uint16: Current compare value
 814:Generated_Source\PSoC4/PWM_R.c ****     *
 815:Generated_Source\PSoC4/PWM_R.c ****     *******************************************************************************/
 816:Generated_Source\PSoC4/PWM_R.c ****     uint8 PWM_R_ReadCompare(void) 
 817:Generated_Source\PSoC4/PWM_R.c ****     {
 489              		.loc 1 817 0
 490              		.cfi_startproc
 491              		@ args = 0, pretend = 0, frame = 0
 492              		@ frame_needed = 0, uses_anonymous_args = 0
 493              		@ link register save eliminated.
 818:Generated_Source\PSoC4/PWM_R.c ****         #if(PWM_R_UsingFixedFunction)
 819:Generated_Source\PSoC4/PWM_R.c ****             return ((uint8)CY_GET_REG16(PWM_R_COMPARE1_LSB_PTR));
 820:Generated_Source\PSoC4/PWM_R.c ****         #else
 821:Generated_Source\PSoC4/PWM_R.c ****             return (CY_GET_REG8(PWM_R_COMPARE1_LSB_PTR));
 494              		.loc 1 821 0
 495 0000 014B     		ldr	r3, .L45
 496 0002 1878     		ldrb	r0, [r3]
 497 0004 C0B2     		uxtb	r0, r0
 822:Generated_Source\PSoC4/PWM_R.c ****         #endif /* (PWM_R_UsingFixedFunction) */
 823:Generated_Source\PSoC4/PWM_R.c ****     }
 498              		.loc 1 823 0
 499              		@ sp needed
 500 0006 7047     		bx	lr
 501              	.L46:
 502              		.align	2
 503              	.L45:
 504 0008 22000F40 		.word	1074724898
 505              		.cfi_endproc
 506              	.LFE14:
 507              		.size	PWM_R_ReadCompare, .-PWM_R_ReadCompare
 508              		.section	.text.PWM_R_ReadPeriod,"ax",%progbits
 509              		.align	2
 510              		.global	PWM_R_ReadPeriod
 511              		.code	16
 512              		.thumb_func
 513              		.type	PWM_R_ReadPeriod, %function
 514              	PWM_R_ReadPeriod:
 515              	.LFB15:
 824:Generated_Source\PSoC4/PWM_R.c **** 
 825:Generated_Source\PSoC4/PWM_R.c **** #else
 826:Generated_Source\PSoC4/PWM_R.c **** 
 827:Generated_Source\PSoC4/PWM_R.c **** 
 828:Generated_Source\PSoC4/PWM_R.c ****     /*******************************************************************************
 829:Generated_Source\PSoC4/PWM_R.c ****     * Function Name: PWM_R_ReadCompare1
ARM GAS  C:\Users\jagumiel\AppData\Local\Temp\ccBSd2SA.s 			page 25


 830:Generated_Source\PSoC4/PWM_R.c ****     ********************************************************************************
 831:Generated_Source\PSoC4/PWM_R.c ****     *
 832:Generated_Source\PSoC4/PWM_R.c ****     * Summary:
 833:Generated_Source\PSoC4/PWM_R.c ****     *  Reads the compare value for the compare1 output.
 834:Generated_Source\PSoC4/PWM_R.c ****     *
 835:Generated_Source\PSoC4/PWM_R.c ****     * Parameters:
 836:Generated_Source\PSoC4/PWM_R.c ****     *  None
 837:Generated_Source\PSoC4/PWM_R.c ****     *
 838:Generated_Source\PSoC4/PWM_R.c ****     * Return:
 839:Generated_Source\PSoC4/PWM_R.c ****     *  uint8/uint16: Current compare value.
 840:Generated_Source\PSoC4/PWM_R.c ****     *
 841:Generated_Source\PSoC4/PWM_R.c ****     *******************************************************************************/
 842:Generated_Source\PSoC4/PWM_R.c ****     uint8 PWM_R_ReadCompare1(void) 
 843:Generated_Source\PSoC4/PWM_R.c ****     {
 844:Generated_Source\PSoC4/PWM_R.c ****         return (CY_GET_REG8(PWM_R_COMPARE1_LSB_PTR));
 845:Generated_Source\PSoC4/PWM_R.c ****     }
 846:Generated_Source\PSoC4/PWM_R.c **** 
 847:Generated_Source\PSoC4/PWM_R.c **** 
 848:Generated_Source\PSoC4/PWM_R.c ****     /*******************************************************************************
 849:Generated_Source\PSoC4/PWM_R.c ****     * Function Name: PWM_R_ReadCompare2
 850:Generated_Source\PSoC4/PWM_R.c ****     ********************************************************************************
 851:Generated_Source\PSoC4/PWM_R.c ****     *
 852:Generated_Source\PSoC4/PWM_R.c ****     * Summary:
 853:Generated_Source\PSoC4/PWM_R.c ****     *  Reads the compare value for the compare2 output.
 854:Generated_Source\PSoC4/PWM_R.c ****     *
 855:Generated_Source\PSoC4/PWM_R.c ****     * Parameters:
 856:Generated_Source\PSoC4/PWM_R.c ****     *  None
 857:Generated_Source\PSoC4/PWM_R.c ****     *
 858:Generated_Source\PSoC4/PWM_R.c ****     * Return:
 859:Generated_Source\PSoC4/PWM_R.c ****     *  uint8/uint16: Current compare value.
 860:Generated_Source\PSoC4/PWM_R.c ****     *
 861:Generated_Source\PSoC4/PWM_R.c ****     *******************************************************************************/
 862:Generated_Source\PSoC4/PWM_R.c ****     uint8 PWM_R_ReadCompare2(void) 
 863:Generated_Source\PSoC4/PWM_R.c ****     {
 864:Generated_Source\PSoC4/PWM_R.c ****         return (CY_GET_REG8(PWM_R_COMPARE2_LSB_PTR));
 865:Generated_Source\PSoC4/PWM_R.c ****     }
 866:Generated_Source\PSoC4/PWM_R.c **** 
 867:Generated_Source\PSoC4/PWM_R.c **** #endif /* (PWM_R_UseOneCompareMode) */
 868:Generated_Source\PSoC4/PWM_R.c **** 
 869:Generated_Source\PSoC4/PWM_R.c **** 
 870:Generated_Source\PSoC4/PWM_R.c **** /*******************************************************************************
 871:Generated_Source\PSoC4/PWM_R.c **** * Function Name: PWM_R_ReadPeriod
 872:Generated_Source\PSoC4/PWM_R.c **** ********************************************************************************
 873:Generated_Source\PSoC4/PWM_R.c **** *
 874:Generated_Source\PSoC4/PWM_R.c **** * Summary:
 875:Generated_Source\PSoC4/PWM_R.c **** *  Reads the period value used by the PWM hardware.
 876:Generated_Source\PSoC4/PWM_R.c **** *
 877:Generated_Source\PSoC4/PWM_R.c **** * Parameters:
 878:Generated_Source\PSoC4/PWM_R.c **** *  None
 879:Generated_Source\PSoC4/PWM_R.c **** *
 880:Generated_Source\PSoC4/PWM_R.c **** * Return:
 881:Generated_Source\PSoC4/PWM_R.c **** *  uint8/16: Period value
 882:Generated_Source\PSoC4/PWM_R.c **** *
 883:Generated_Source\PSoC4/PWM_R.c **** *******************************************************************************/
 884:Generated_Source\PSoC4/PWM_R.c **** uint8 PWM_R_ReadPeriod(void) 
 885:Generated_Source\PSoC4/PWM_R.c **** {
 516              		.loc 1 885 0
ARM GAS  C:\Users\jagumiel\AppData\Local\Temp\ccBSd2SA.s 			page 26


 517              		.cfi_startproc
 518              		@ args = 0, pretend = 0, frame = 0
 519              		@ frame_needed = 0, uses_anonymous_args = 0
 520              		@ link register save eliminated.
 886:Generated_Source\PSoC4/PWM_R.c ****     #if(PWM_R_UsingFixedFunction)
 887:Generated_Source\PSoC4/PWM_R.c ****         return ((uint8)CY_GET_REG16(PWM_R_PERIOD_LSB_PTR));
 888:Generated_Source\PSoC4/PWM_R.c ****     #else
 889:Generated_Source\PSoC4/PWM_R.c ****         return (CY_GET_REG8(PWM_R_PERIOD_LSB_PTR));
 521              		.loc 1 889 0
 522 0000 014B     		ldr	r3, .L48
 523 0002 1878     		ldrb	r0, [r3]
 524 0004 C0B2     		uxtb	r0, r0
 890:Generated_Source\PSoC4/PWM_R.c ****     #endif /* (PWM_R_UsingFixedFunction) */
 891:Generated_Source\PSoC4/PWM_R.c **** }
 525              		.loc 1 891 0
 526              		@ sp needed
 527 0006 7047     		bx	lr
 528              	.L49:
 529              		.align	2
 530              	.L48:
 531 0008 42000F40 		.word	1074724930
 532              		.cfi_endproc
 533              	.LFE15:
 534              		.size	PWM_R_ReadPeriod, .-PWM_R_ReadPeriod
 535              		.global	PWM_R_initVar
 536              		.bss
 537              		.set	.LANCHOR0,. + 0
 538              		.type	PWM_R_initVar, %object
 539              		.size	PWM_R_initVar, 1
 540              	PWM_R_initVar:
 541 0000 00       		.space	1
 542              		.text
 543              	.Letext0:
 544              		.file 2 "Generated_Source\\PSoC4\\cytypes.h"
 545              		.file 3 "Generated_Source\\PSoC4\\CyLib.h"