ARM GAS  C:\Users\jagumiel\AppData\Local\Temp\cch6g2lI.s 			page 1


   1              		.syntax unified
   2              		.cpu cortex-m0
   3              		.fpu softvfp
   4              		.eabi_attribute 20, 1
   5              		.eabi_attribute 21, 1
   6              		.eabi_attribute 23, 3
   7              		.eabi_attribute 24, 1
   8              		.eabi_attribute 25, 1
   9              		.eabi_attribute 26, 1
  10              		.eabi_attribute 30, 1
  11              		.eabi_attribute 34, 0
  12              		.eabi_attribute 18, 4
  13              		.thumb
  14              		.syntax unified
  15              		.file	"main.c"
  16              		.text
  17              	.Ltext0:
  18              		.cfi_sections	.debug_frame
  19              		.section	.text.LIN_ID_Parity_Calculator,"ax",%progbits
  20              		.align	2
  21              		.global	LIN_ID_Parity_Calculator
  22              		.code	16
  23              		.thumb_func
  24              		.type	LIN_ID_Parity_Calculator, %function
  25              	LIN_ID_Parity_Calculator:
  26              	.LFB33:
  27              		.file 1 "LIN_Frame_Calculations.h"
   1:LIN_Frame_Calculations.h **** /* ========================================
   2:LIN_Frame_Calculations.h ****  *
   3:LIN_Frame_Calculations.h ****  * Copyright YOUR COMPANY, THE YEAR
   4:LIN_Frame_Calculations.h ****  * All Rights Reserved
   5:LIN_Frame_Calculations.h ****  * UNPUBLISHED, LICENSED SOFTWARE.
   6:LIN_Frame_Calculations.h ****  *
   7:LIN_Frame_Calculations.h ****  * CONFIDENTIAL AND PROPRIETARY INFORMATION
   8:LIN_Frame_Calculations.h ****  * WHICH IS THE PROPERTY OF your company.
   9:LIN_Frame_Calculations.h ****  *
  10:LIN_Frame_Calculations.h ****  * ========================================
  11:LIN_Frame_Calculations.h **** */
  12:LIN_Frame_Calculations.h **** 
  13:LIN_Frame_Calculations.h **** #include <stdint.h>
  14:LIN_Frame_Calculations.h **** #include <stdio.h>
  15:LIN_Frame_Calculations.h **** 
  16:LIN_Frame_Calculations.h **** #define PACKET_SIZE 8u
  17:LIN_Frame_Calculations.h **** 
  18:LIN_Frame_Calculations.h **** 
  19:LIN_Frame_Calculations.h **** uint8_t LIN_ID_Parity_Calculator(uint8_t data){
  28              		.loc 1 19 0
  29              		.cfi_startproc
  30              		@ args = 0, pretend = 0, frame = 0
  31              		@ frame_needed = 0, uses_anonymous_args = 0
  32              	.LVL0:
  33 0000 30B5     		push	{r4, r5, lr}
  34              		.cfi_def_cfa_offset 12
  35              		.cfi_offset 4, -12
  36              		.cfi_offset 5, -8
  37              		.cfi_offset 14, -4
  38              	.LVL1:
ARM GAS  C:\Users\jagumiel\AppData\Local\Temp\cch6g2lI.s 			page 2


  20:LIN_Frame_Calculations.h **** 	uint8_t parity_bit_even = 0x00;
  21:LIN_Frame_Calculations.h **** 	uint8_t parity_bit_odd = 0x00;
  22:LIN_Frame_Calculations.h **** 	uint8_t result = 0x00;
  23:LIN_Frame_Calculations.h **** 
  24:LIN_Frame_Calculations.h **** 	parity_bit_even = ((data ^ (data>>1))^((data>>2)^(data>>4)));
  39              		.loc 1 24 0
  40 0002 4208     		lsrs	r2, r0, #1
  41 0004 0509     		lsrs	r5, r0, #4
  42 0006 8308     		lsrs	r3, r0, #2
  43 0008 6B40     		eors	r3, r5
  44 000a 0400     		movs	r4, r0
  45 000c 5440     		eors	r4, r2
  46 000e 6340     		eors	r3, r4
  47 0010 1900     		movs	r1, r3
  48              	.LVL2:
  25:LIN_Frame_Calculations.h **** 	parity_bit_odd = (~(((data>>1) ^ (data>>3))^((data>>4)^(data>>5))));
  49              		.loc 1 25 0
  50 0012 C408     		lsrs	r4, r0, #3
  51 0014 6240     		eors	r2, r4
  52 0016 4009     		lsrs	r0, r0, #5
  53              	.LVL3:
  54 0018 6840     		eors	r0, r5
  55 001a 4240     		eors	r2, r0
  56 001c D243     		mvns	r2, r2
  57 001e D3B2     		uxtb	r3, r2
  58              	.LVL4:
  26:LIN_Frame_Calculations.h **** 	result = (parity_bit_odd<<1)|(parity_bit_even);
  59              		.loc 1 26 0
  60 0020 5B00     		lsls	r3, r3, #1
  61              	.LVL5:
  62 0022 0B43     		orrs	r3, r1
  63 0024 D8B2     		uxtb	r0, r3
  64              	.LVL6:
  27:LIN_Frame_Calculations.h **** 	return result;
  28:LIN_Frame_Calculations.h **** }
  65              		.loc 1 28 0
  66              		@ sp needed
  67 0026 30BD     		pop	{r4, r5, pc}
  68              		.cfi_endproc
  69              	.LFE33:
  70              		.size	LIN_ID_Parity_Calculator, .-LIN_ID_Parity_Calculator
  71              		.section	.text.LIN_PID_Calculator,"ax",%progbits
  72              		.align	2
  73              		.global	LIN_PID_Calculator
  74              		.code	16
  75              		.thumb_func
  76              		.type	LIN_PID_Calculator, %function
  77              	LIN_PID_Calculator:
  78              	.LFB34:
  29:LIN_Frame_Calculations.h **** 
  30:LIN_Frame_Calculations.h **** int LIN_PID_Calculator(uint8_t id){
  79              		.loc 1 30 0
  80              		.cfi_startproc
  81              		@ args = 0, pretend = 0, frame = 8
  82              		@ frame_needed = 0, uses_anonymous_args = 0
  83              	.LVL7:
  84 0000 70B5     		push	{r4, r5, r6, lr}
ARM GAS  C:\Users\jagumiel\AppData\Local\Temp\cch6g2lI.s 			page 3


  85              		.cfi_def_cfa_offset 16
  86              		.cfi_offset 4, -16
  87              		.cfi_offset 5, -12
  88              		.cfi_offset 6, -8
  89              		.cfi_offset 14, -4
  90 0002 82B0     		sub	sp, sp, #8
  91              		.cfi_def_cfa_offset 24
  92 0004 0400     		movs	r4, r0
  31:LIN_Frame_Calculations.h **** 	volatile uint8_t pid_tmp=0x00;
  93              		.loc 1 31 0
  94 0006 6B46     		mov	r3, sp
  95 0008 DE1D     		adds	r6, r3, #7
  96 000a 0023     		movs	r3, #0
  97 000c 3370     		strb	r3, [r6]
  32:LIN_Frame_Calculations.h **** 	volatile uint8_t pid=0x00;
  98              		.loc 1 32 0
  99 000e 6A46     		mov	r2, sp
 100 0010 951D     		adds	r5, r2, #6
 101 0012 9371     		strb	r3, [r2, #6]
  33:LIN_Frame_Calculations.h **** 	pid_tmp=(LIN_ID_Parity_Calculator(id));
 102              		.loc 1 33 0
 103 0014 FFF7FEFF 		bl	LIN_ID_Parity_Calculator
 104              	.LVL8:
 105 0018 3070     		strb	r0, [r6]
  34:LIN_Frame_Calculations.h **** 	pid=(uint8_t)((id)|(pid_tmp<<6));
 106              		.loc 1 34 0
 107 001a 3378     		ldrb	r3, [r6]
 108 001c 9B01     		lsls	r3, r3, #6
 109 001e 1C43     		orrs	r4, r3
 110 0020 E4B2     		uxtb	r4, r4
 111 0022 2C70     		strb	r4, [r5]
  35:LIN_Frame_Calculations.h **** 	return pid;
 112              		.loc 1 35 0
 113 0024 2878     		ldrb	r0, [r5]
 114 0026 C0B2     		uxtb	r0, r0
  36:LIN_Frame_Calculations.h **** }
 115              		.loc 1 36 0
 116 0028 02B0     		add	sp, sp, #8
 117              		@ sp needed
 118 002a 70BD     		pop	{r4, r5, r6, pc}
 119              		.cfi_endproc
 120              	.LFE34:
 121              		.size	LIN_PID_Calculator, .-LIN_PID_Calculator
 122              		.section	.text.LIN_Checksum_Calculation,"ax",%progbits
 123              		.align	2
 124              		.global	LIN_Checksum_Calculation
 125              		.code	16
 126              		.thumb_func
 127              		.type	LIN_Checksum_Calculation, %function
 128              	LIN_Checksum_Calculation:
 129              	.LFB35:
  37:LIN_Frame_Calculations.h **** 
  38:LIN_Frame_Calculations.h **** uint8_t LIN_Checksum_Calculation (uint8_t u8Header, uint8_t *packet){
 130              		.loc 1 38 0
 131              		.cfi_startproc
 132              		@ args = 0, pretend = 0, frame = 0
 133              		@ frame_needed = 0, uses_anonymous_args = 0
ARM GAS  C:\Users\jagumiel\AppData\Local\Temp\cch6g2lI.s 			page 4


 134              		@ link register save eliminated.
 135              	.LVL9:
  39:LIN_Frame_Calculations.h **** 	uint16_t u16Checksum_Cal = u8Header;
 136              		.loc 1 39 0
 137 0000 82B2     		uxth	r2, r0
 138              	.LVL10:
  40:LIN_Frame_Calculations.h **** 	uint8_t u8Cnt = 0u;
  41:LIN_Frame_Calculations.h **** 	uint8_t u8Checksum = 0;
  42:LIN_Frame_Calculations.h **** 
  43:LIN_Frame_Calculations.h **** 	for(u8Cnt = 0u; u8Cnt < PACKET_SIZE; u8Cnt++){
 139              		.loc 1 43 0
 140 0002 0023     		movs	r3, #0
 141 0004 04E0     		b	.L4
 142              	.LVL11:
 143              	.L5:
  44:LIN_Frame_Calculations.h **** 		/* Sum of all bytes */
  45:LIN_Frame_Calculations.h **** 		u16Checksum_Cal += *(packet + u8Cnt);
 144              		.loc 1 45 0 discriminator 3
 145 0006 C85C     		ldrb	r0, [r1, r3]
 146 0008 1218     		adds	r2, r2, r0
 147              	.LVL12:
 148 000a 92B2     		uxth	r2, r2
 149              	.LVL13:
  43:LIN_Frame_Calculations.h **** 		/* Sum of all bytes */
 150              		.loc 1 43 0 discriminator 3
 151 000c 0133     		adds	r3, r3, #1
 152              	.LVL14:
 153 000e DBB2     		uxtb	r3, r3
 154              	.LVL15:
 155              	.L4:
  43:LIN_Frame_Calculations.h **** 		/* Sum of all bytes */
 156              		.loc 1 43 0 is_stmt 0 discriminator 1
 157 0010 072B     		cmp	r3, #7
 158 0012 F8D9     		bls	.L5
  46:LIN_Frame_Calculations.h **** 	}
  47:LIN_Frame_Calculations.h **** 
  48:LIN_Frame_Calculations.h **** 	/* Add carry and XOR with FF to invert the bits */
  49:LIN_Frame_Calculations.h **** 	u8Checksum = (0xFF ^ ((u16Checksum_Cal & 0x00FF) + (u16Checksum_Cal >> 8)));
 159              		.loc 1 49 0 is_stmt 1
 160 0014 100A     		lsrs	r0, r2, #8
 161 0016 8218     		adds	r2, r0, r2
 162              	.LVL16:
 163 0018 D043     		mvns	r0, r2
 164 001a C0B2     		uxtb	r0, r0
 165              	.LVL17:
  50:LIN_Frame_Calculations.h **** 	return(u8Checksum);
  51:LIN_Frame_Calculations.h **** }
 166              		.loc 1 51 0
 167              		@ sp needed
 168 001c 7047     		bx	lr
 169              		.cfi_endproc
 170              	.LFE35:
 171              		.size	LIN_Checksum_Calculation, .-LIN_Checksum_Calculation
 172 001e C046     		.section	.text.sendFrame,"ax",%progbits
 173              		.align	2
 174              		.global	sendFrame
 175              		.code	16
ARM GAS  C:\Users\jagumiel\AppData\Local\Temp\cch6g2lI.s 			page 5


 176              		.thumb_func
 177              		.type	sendFrame, %function
 178              	sendFrame:
 179              	.LFB36:
 180              		.file 2 "main.c"
   1:main.c        **** /* ========================================
   2:main.c        ****  * _______________
   3:main.c        ****  * LIN-Master-UART
   4:main.c        ****  * ---------------
   5:main.c        ****  * This is a first approach to send a LIN
   6:main.c        ****  * frame as Master to the Slave. For this
   7:main.c        ****  * porpouse a UART communication is used.
   8:main.c        ****  * A LIN transceiver will be needed for
   9:main.c        ****  * this project.
  10:main.c        ****  *
  11:main.c        ****  * This program just send a prepared frame
  12:main.c        ****  * every second. It is just a test.
  13:main.c        ****  *
  14:main.c        ****  * Cypress CY8CKIT-042 and CY8CKIT-026 are
  15:main.c        ****  * used in this project.
  16:main.c        ****  *
  17:main.c        ****  * ========================================
  18:main.c        **** */
  19:main.c        **** 
  20:main.c        **** #include "project.h"
  21:main.c        **** #include "LIN_Frame_Calculations.h"
  22:main.c        **** #include "ledControl.h"
  23:main.c        **** 
  24:main.c        **** volatile unsigned char Sensor_data[8];
  25:main.c        **** const uint8_t sync = 0x55;
  26:main.c        **** uint8_t id = 0x10;
  27:main.c        **** uint8_t packet[PACKET_SIZE] = {0x00, 0xFF, 0xFF, 0xFF, 0xFF, 0xFF, 0xFF, 0xFF};
  28:main.c        **** uint8_t pid = 0x00;
  29:main.c        **** uint8_t checksum = 0x00;
  30:main.c        **** 
  31:main.c        **** void sendFrame(void){
 181              		.loc 2 31 0
 182              		.cfi_startproc
 183              		@ args = 0, pretend = 0, frame = 0
 184              		@ frame_needed = 0, uses_anonymous_args = 0
 185 0000 70B5     		push	{r4, r5, r6, lr}
 186              		.cfi_def_cfa_offset 16
 187              		.cfi_offset 4, -16
 188              		.cfi_offset 5, -12
 189              		.cfi_offset 6, -8
 190              		.cfi_offset 14, -4
  32:main.c        ****     UART_MASTER_UartSendBreakBlocking(13);                          // Break
 191              		.loc 2 32 0
 192 0002 0D20     		movs	r0, #13
 193 0004 FFF7FEFF 		bl	UART_MASTER_UartSendBreakBlocking
 194              	.LVL18:
  33:main.c        ****     UART_MASTER_UartPutChar(sync);                                  // Sync (0x55)
 195              		.loc 2 33 0
 196 0008 5520     		movs	r0, #85
 197 000a FFF7FEFF 		bl	UART_MASTER_SpiUartWriteTxData
 198              	.LVL19:
  34:main.c        ****     UART_MASTER_UartPutChar(pid);                                   // Protected ID (PID). Se obtie
ARM GAS  C:\Users\jagumiel\AppData\Local\Temp\cch6g2lI.s 			page 6


 199              		.loc 2 34 0
 200 000e 284D     		ldr	r5, .L7
 201 0010 2878     		ldrb	r0, [r5]
 202 0012 FFF7FEFF 		bl	UART_MASTER_SpiUartWriteTxData
 203              	.LVL20:
  35:main.c        ****     UART_MASTER_UartPutChar(packet[0]);                             // Command
 204              		.loc 2 35 0
 205 0016 274C     		ldr	r4, .L7+4
 206 0018 2078     		ldrb	r0, [r4]
 207 001a FFF7FEFF 		bl	UART_MASTER_SpiUartWriteTxData
 208              	.LVL21:
  36:main.c        ****     UART_MASTER_UartPutChar(packet[1]);                             // Fill. Relleno para completar
 209              		.loc 2 36 0
 210 001e 6078     		ldrb	r0, [r4, #1]
 211 0020 FFF7FEFF 		bl	UART_MASTER_SpiUartWriteTxData
 212              	.LVL22:
  37:main.c        ****     UART_MASTER_UartPutChar(packet[2]);
 213              		.loc 2 37 0
 214 0024 A078     		ldrb	r0, [r4, #2]
 215 0026 FFF7FEFF 		bl	UART_MASTER_SpiUartWriteTxData
 216              	.LVL23:
  38:main.c        ****     UART_MASTER_UartPutChar(packet[3]);
 217              		.loc 2 38 0
 218 002a E078     		ldrb	r0, [r4, #3]
 219 002c FFF7FEFF 		bl	UART_MASTER_SpiUartWriteTxData
 220              	.LVL24:
  39:main.c        ****     UART_MASTER_UartPutChar(packet[4]);
 221              		.loc 2 39 0
 222 0030 2079     		ldrb	r0, [r4, #4]
 223 0032 FFF7FEFF 		bl	UART_MASTER_SpiUartWriteTxData
 224              	.LVL25:
  40:main.c        ****     UART_MASTER_UartPutChar(packet[5]);
 225              		.loc 2 40 0
 226 0036 6079     		ldrb	r0, [r4, #5]
 227 0038 FFF7FEFF 		bl	UART_MASTER_SpiUartWriteTxData
 228              	.LVL26:
  41:main.c        ****     UART_MASTER_UartPutChar(packet[6]);
 229              		.loc 2 41 0
 230 003c A079     		ldrb	r0, [r4, #6]
 231 003e FFF7FEFF 		bl	UART_MASTER_SpiUartWriteTxData
 232              	.LVL27:
  42:main.c        ****     UART_MASTER_UartPutChar(packet[7]);
 233              		.loc 2 42 0
 234 0042 E079     		ldrb	r0, [r4, #7]
 235 0044 FFF7FEFF 		bl	UART_MASTER_SpiUartWriteTxData
 236              	.LVL28:
  43:main.c        ****     UART_MASTER_UartPutChar(checksum);                              // Checksum. En LIN 2.2 se obti
 237              		.loc 2 43 0
 238 0048 6878     		ldrb	r0, [r5, #1]
 239 004a FFF7FEFF 		bl	UART_MASTER_SpiUartWriteTxData
 240              	.LVL29:
  44:main.c        ****     
  45:main.c        ****     Sensor_data[0] = UART_MASTER_UartGetChar();                         // 1. Byte
 241              		.loc 2 45 0
 242 004e FFF7FEFF 		bl	UART_MASTER_UartGetChar
 243              	.LVL30:
 244 0052 C0B2     		uxtb	r0, r0
ARM GAS  C:\Users\jagumiel\AppData\Local\Temp\cch6g2lI.s 			page 7


 245 0054 184C     		ldr	r4, .L7+8
 246 0056 2070     		strb	r0, [r4]
  46:main.c        ****     Sensor_data[1] = UART_MASTER_UartGetChar();                         // 2. Byte
 247              		.loc 2 46 0
 248 0058 FFF7FEFF 		bl	UART_MASTER_UartGetChar
 249              	.LVL31:
 250 005c C0B2     		uxtb	r0, r0
 251 005e 6070     		strb	r0, [r4, #1]
  47:main.c        ****     Sensor_data[2] = UART_MASTER_UartGetChar();                         // 3. Byte
 252              		.loc 2 47 0
 253 0060 FFF7FEFF 		bl	UART_MASTER_UartGetChar
 254              	.LVL32:
 255 0064 C0B2     		uxtb	r0, r0
 256 0066 A070     		strb	r0, [r4, #2]
  48:main.c        ****     Sensor_data[3] = UART_MASTER_UartGetChar();                         // 4. Byte
 257              		.loc 2 48 0
 258 0068 FFF7FEFF 		bl	UART_MASTER_UartGetChar
 259              	.LVL33:
 260 006c C0B2     		uxtb	r0, r0
 261 006e E070     		strb	r0, [r4, #3]
  49:main.c        ****     Sensor_data[4] = UART_MASTER_UartGetChar();                         // 5. Byte
 262              		.loc 2 49 0
 263 0070 FFF7FEFF 		bl	UART_MASTER_UartGetChar
 264              	.LVL34:
 265 0074 C0B2     		uxtb	r0, r0
 266 0076 2071     		strb	r0, [r4, #4]
  50:main.c        ****     Sensor_data[5] = UART_MASTER_UartGetChar();                         // 6. Byte
 267              		.loc 2 50 0
 268 0078 FFF7FEFF 		bl	UART_MASTER_UartGetChar
 269              	.LVL35:
 270 007c C0B2     		uxtb	r0, r0
 271 007e 6071     		strb	r0, [r4, #5]
  51:main.c        ****     Sensor_data[6] = UART_MASTER_UartGetChar();                         // 7. Byte
 272              		.loc 2 51 0
 273 0080 FFF7FEFF 		bl	UART_MASTER_UartGetChar
 274              	.LVL36:
 275 0084 C0B2     		uxtb	r0, r0
 276 0086 A071     		strb	r0, [r4, #6]
  52:main.c        ****     Sensor_data[7] = UART_MASTER_UartGetChar();                         // 8. Byte
 277              		.loc 2 52 0
 278 0088 FFF7FEFF 		bl	UART_MASTER_UartGetChar
 279              	.LVL37:
 280 008c C0B2     		uxtb	r0, r0
 281 008e E071     		strb	r0, [r4, #7]
  53:main.c        ****     
  54:main.c        ****     LedRed_Write(1);
 282              		.loc 2 54 0
 283 0090 0120     		movs	r0, #1
 284 0092 FFF7FEFF 		bl	LedRed_Write
 285              	.LVL38:
  55:main.c        ****     CyDelay(500);
 286              		.loc 2 55 0
 287 0096 FA24     		movs	r4, #250
 288 0098 6400     		lsls	r4, r4, #1
 289 009a 2000     		movs	r0, r4
 290 009c FFF7FEFF 		bl	CyDelay
 291              	.LVL39:
ARM GAS  C:\Users\jagumiel\AppData\Local\Temp\cch6g2lI.s 			page 8


  56:main.c        ****     LedRed_Write(0);
 292              		.loc 2 56 0
 293 00a0 0020     		movs	r0, #0
 294 00a2 FFF7FEFF 		bl	LedRed_Write
 295              	.LVL40:
  57:main.c        ****     CyDelay(500);
 296              		.loc 2 57 0
 297 00a6 2000     		movs	r0, r4
 298 00a8 FFF7FEFF 		bl	CyDelay
 299              	.LVL41:
  58:main.c        ****     
  59:main.c        **** }
 300              		.loc 2 59 0
 301              		@ sp needed
 302 00ac 70BD     		pop	{r4, r5, r6, pc}
 303              	.L8:
 304 00ae C046     		.align	2
 305              	.L7:
 306 00b0 00000000 		.word	.LANCHOR0
 307 00b4 00000000 		.word	.LANCHOR1
 308 00b8 00000000 		.word	Sensor_data
 309              		.cfi_endproc
 310              	.LFE36:
 311              		.size	sendFrame, .-sendFrame
 312              		.section	.text.leftDoorEvent,"ax",%progbits
 313              		.align	2
 314              		.global	leftDoorEvent
 315              		.code	16
 316              		.thumb_func
 317              		.type	leftDoorEvent, %function
 318              	leftDoorEvent:
 319              	.LFB37:
  60:main.c        **** 
  61:main.c        **** void leftDoorEvent(){
 320              		.loc 2 61 0
 321              		.cfi_startproc
 322              		@ args = 0, pretend = 0, frame = 0
 323              		@ frame_needed = 0, uses_anonymous_args = 0
 324 0000 70B5     		push	{r4, r5, r6, lr}
 325              		.cfi_def_cfa_offset 16
 326              		.cfi_offset 4, -16
 327              		.cfi_offset 5, -12
 328              		.cfi_offset 6, -8
 329              		.cfi_offset 14, -4
  62:main.c        ****     if(Button_Left_Read()==1){
 330              		.loc 2 62 0
 331 0002 FFF7FEFF 		bl	Button_Left_Read
 332              	.LVL42:
 333 0006 0128     		cmp	r0, #1
 334 0008 03D1     		bne	.L10
  63:main.c        ****         /* Left Door Opened*/
  64:main.c        ****         packet[0]=0x01;
 335              		.loc 2 64 0
 336 000a 0122     		movs	r2, #1
 337 000c 094B     		ldr	r3, .L12
 338 000e 1A70     		strb	r2, [r3]
 339 0010 02E0     		b	.L11
ARM GAS  C:\Users\jagumiel\AppData\Local\Temp\cch6g2lI.s 			page 9


 340              	.L10:
  65:main.c        ****     }else{
  66:main.c        ****         /* Left Door closed*/
  67:main.c        ****         packet[0]=0x00;
 341              		.loc 2 67 0
 342 0012 0022     		movs	r2, #0
 343 0014 074B     		ldr	r3, .L12
 344 0016 1A70     		strb	r2, [r3]
 345              	.L11:
  68:main.c        ****     }
  69:main.c        ****     pid=LIN_PID_Calculator(id);
 346              		.loc 2 69 0
 347 0018 064D     		ldr	r5, .L12
 348 001a 287A     		ldrb	r0, [r5, #8]
 349 001c FFF7FEFF 		bl	LIN_PID_Calculator
 350              	.LVL43:
 351 0020 C0B2     		uxtb	r0, r0
 352 0022 054C     		ldr	r4, .L12+4
 353 0024 2070     		strb	r0, [r4]
  70:main.c        ****     checksum=LIN_Checksum_Calculation(pid, packet);
 354              		.loc 2 70 0
 355 0026 2900     		movs	r1, r5
 356 0028 FFF7FEFF 		bl	LIN_Checksum_Calculation
 357              	.LVL44:
 358 002c 6070     		strb	r0, [r4, #1]
  71:main.c        ****     sendFrame();
 359              		.loc 2 71 0
 360 002e FFF7FEFF 		bl	sendFrame
 361              	.LVL45:
  72:main.c        **** }
 362              		.loc 2 72 0
 363              		@ sp needed
 364 0032 70BD     		pop	{r4, r5, r6, pc}
 365              	.L13:
 366              		.align	2
 367              	.L12:
 368 0034 00000000 		.word	.LANCHOR1
 369 0038 00000000 		.word	.LANCHOR0
 370              		.cfi_endproc
 371              	.LFE37:
 372              		.size	leftDoorEvent, .-leftDoorEvent
 373              		.section	.text.Button_Left_ISR_Handler,"ax",%progbits
 374              		.align	2
 375              		.global	Button_Left_ISR_Handler
 376              		.code	16
 377              		.thumb_func
 378              		.type	Button_Left_ISR_Handler, %function
 379              	Button_Left_ISR_Handler:
 380              	.LFB39:
  73:main.c        **** 
  74:main.c        **** void rightDoorEvent(){
  75:main.c        ****     if(Button_Right_Read()==1){
  76:main.c        ****         /* Right Door Opened*/
  77:main.c        ****         packet[0]=0x11;
  78:main.c        ****     }else{
  79:main.c        ****         /* Right Door Closed*/
  80:main.c        ****         packet[0]=0x10;
ARM GAS  C:\Users\jagumiel\AppData\Local\Temp\cch6g2lI.s 			page 10


  81:main.c        ****     }
  82:main.c        ****     pid=LIN_PID_Calculator(id);
  83:main.c        ****     checksum=LIN_Checksum_Calculation(pid, packet);
  84:main.c        ****     sendFrame();
  85:main.c        **** }
  86:main.c        **** 
  87:main.c        **** 
  88:main.c        **** CY_ISR(Button_Left_ISR_Handler){
 381              		.loc 2 88 0
 382              		.cfi_startproc
 383              		@ args = 0, pretend = 0, frame = 0
 384              		@ frame_needed = 0, uses_anonymous_args = 0
 385 0000 10B5     		push	{r4, lr}
 386              		.cfi_def_cfa_offset 8
 387              		.cfi_offset 4, -8
 388              		.cfi_offset 14, -4
  89:main.c        ****     leftDoorEvent();
 389              		.loc 2 89 0
 390 0002 FFF7FEFF 		bl	leftDoorEvent
 391              	.LVL46:
  90:main.c        ****     Button_Left_ClearInterrupt();
 392              		.loc 2 90 0
 393 0006 FFF7FEFF 		bl	Button_Left_ClearInterrupt
 394              	.LVL47:
  91:main.c        **** }
 395              		.loc 2 91 0
 396              		@ sp needed
 397 000a 10BD     		pop	{r4, pc}
 398              		.cfi_endproc
 399              	.LFE39:
 400              		.size	Button_Left_ISR_Handler, .-Button_Left_ISR_Handler
 401              		.section	.text.rightDoorEvent,"ax",%progbits
 402              		.align	2
 403              		.global	rightDoorEvent
 404              		.code	16
 405              		.thumb_func
 406              		.type	rightDoorEvent, %function
 407              	rightDoorEvent:
 408              	.LFB38:
  74:main.c        ****     if(Button_Right_Read()==1){
 409              		.loc 2 74 0
 410              		.cfi_startproc
 411              		@ args = 0, pretend = 0, frame = 0
 412              		@ frame_needed = 0, uses_anonymous_args = 0
 413 0000 70B5     		push	{r4, r5, r6, lr}
 414              		.cfi_def_cfa_offset 16
 415              		.cfi_offset 4, -16
 416              		.cfi_offset 5, -12
 417              		.cfi_offset 6, -8
 418              		.cfi_offset 14, -4
  75:main.c        ****         /* Right Door Opened*/
 419              		.loc 2 75 0
 420 0002 FFF7FEFF 		bl	Button_Right_Read
 421              	.LVL48:
 422 0006 0128     		cmp	r0, #1
 423 0008 03D1     		bne	.L16
  77:main.c        ****     }else{
ARM GAS  C:\Users\jagumiel\AppData\Local\Temp\cch6g2lI.s 			page 11


 424              		.loc 2 77 0
 425 000a 1122     		movs	r2, #17
 426 000c 094B     		ldr	r3, .L18
 427 000e 1A70     		strb	r2, [r3]
 428 0010 02E0     		b	.L17
 429              	.L16:
  80:main.c        ****     }
 430              		.loc 2 80 0
 431 0012 1022     		movs	r2, #16
 432 0014 074B     		ldr	r3, .L18
 433 0016 1A70     		strb	r2, [r3]
 434              	.L17:
  82:main.c        ****     checksum=LIN_Checksum_Calculation(pid, packet);
 435              		.loc 2 82 0
 436 0018 064D     		ldr	r5, .L18
 437 001a 287A     		ldrb	r0, [r5, #8]
 438 001c FFF7FEFF 		bl	LIN_PID_Calculator
 439              	.LVL49:
 440 0020 C0B2     		uxtb	r0, r0
 441 0022 054C     		ldr	r4, .L18+4
 442 0024 2070     		strb	r0, [r4]
  83:main.c        ****     sendFrame();
 443              		.loc 2 83 0
 444 0026 2900     		movs	r1, r5
 445 0028 FFF7FEFF 		bl	LIN_Checksum_Calculation
 446              	.LVL50:
 447 002c 6070     		strb	r0, [r4, #1]
  84:main.c        **** }
 448              		.loc 2 84 0
 449 002e FFF7FEFF 		bl	sendFrame
 450              	.LVL51:
  85:main.c        **** 
 451              		.loc 2 85 0
 452              		@ sp needed
 453 0032 70BD     		pop	{r4, r5, r6, pc}
 454              	.L19:
 455              		.align	2
 456              	.L18:
 457 0034 00000000 		.word	.LANCHOR1
 458 0038 00000000 		.word	.LANCHOR0
 459              		.cfi_endproc
 460              	.LFE38:
 461              		.size	rightDoorEvent, .-rightDoorEvent
 462              		.section	.text.Button_Right_ISR_Handler,"ax",%progbits
 463              		.align	2
 464              		.global	Button_Right_ISR_Handler
 465              		.code	16
 466              		.thumb_func
 467              		.type	Button_Right_ISR_Handler, %function
 468              	Button_Right_ISR_Handler:
 469              	.LFB40:
  92:main.c        **** 
  93:main.c        **** CY_ISR(Button_Right_ISR_Handler){
 470              		.loc 2 93 0
 471              		.cfi_startproc
 472              		@ args = 0, pretend = 0, frame = 0
 473              		@ frame_needed = 0, uses_anonymous_args = 0
ARM GAS  C:\Users\jagumiel\AppData\Local\Temp\cch6g2lI.s 			page 12


 474 0000 10B5     		push	{r4, lr}
 475              		.cfi_def_cfa_offset 8
 476              		.cfi_offset 4, -8
 477              		.cfi_offset 14, -4
  94:main.c        ****     rightDoorEvent();
 478              		.loc 2 94 0
 479 0002 FFF7FEFF 		bl	rightDoorEvent
 480              	.LVL52:
  95:main.c        ****     Button_Right_ClearInterrupt();
 481              		.loc 2 95 0
 482 0006 FFF7FEFF 		bl	Button_Right_ClearInterrupt
 483              	.LVL53:
  96:main.c        **** }
 484              		.loc 2 96 0
 485              		@ sp needed
 486 000a 10BD     		pop	{r4, pc}
 487              		.cfi_endproc
 488              	.LFE40:
 489              		.size	Button_Right_ISR_Handler, .-Button_Right_ISR_Handler
 490              		.section	.text.main,"ax",%progbits
 491              		.align	2
 492              		.global	main
 493              		.code	16
 494              		.thumb_func
 495              		.type	main, %function
 496              	main:
 497              	.LFB41:
  97:main.c        **** 
  98:main.c        **** 
  99:main.c        **** int main(void){
 498              		.loc 2 99 0
 499              		.cfi_startproc
 500              		@ Volatile: function does not return.
 501              		@ args = 0, pretend = 0, frame = 0
 502              		@ frame_needed = 0, uses_anonymous_args = 0
 503 0000 10B5     		push	{r4, lr}
 504              		.cfi_def_cfa_offset 8
 505              		.cfi_offset 4, -8
 506              		.cfi_offset 14, -4
 100:main.c        ****     
 101:main.c        ****     CyGlobalIntEnable; /* Enable global interrupts. */
 507              		.loc 2 101 0
 508              		.syntax divided
 509              	@ 101 "main.c" 1
 510 0002 62B6     		CPSIE   i
 511              	@ 0 "" 2
 102:main.c        **** 
 103:main.c        ****     /* Start UART/LIN Master */
 104:main.c        ****     UART_MASTER_Start();
 512              		.loc 2 104 0
 513              		.thumb
 514              		.syntax unified
 515 0004 FFF7FEFF 		bl	UART_MASTER_Start
 516              	.LVL54:
 105:main.c        ****     
 106:main.c        ****     /* Start ISRs */
 107:main.c        ****     Button_Left_ISR_StartEx(Button_Left_ISR_Handler);
ARM GAS  C:\Users\jagumiel\AppData\Local\Temp\cch6g2lI.s 			page 13


 517              		.loc 2 107 0
 518 0008 0348     		ldr	r0, .L23
 519 000a FFF7FEFF 		bl	Button_Left_ISR_StartEx
 520              	.LVL55:
 108:main.c        ****     Button_Right_ISR_StartEx(Button_Right_ISR_Handler);
 521              		.loc 2 108 0
 522 000e 0348     		ldr	r0, .L23+4
 523 0010 FFF7FEFF 		bl	Button_Right_ISR_StartEx
 524              	.LVL56:
 525              	.L22:
 526 0014 FEE7     		b	.L22
 527              	.L24:
 528 0016 C046     		.align	2
 529              	.L23:
 530 0018 00000000 		.word	Button_Left_ISR_Handler
 531 001c 00000000 		.word	Button_Right_ISR_Handler
 532              		.cfi_endproc
 533              	.LFE41:
 534              		.size	main, .-main
 535              		.global	checksum
 536              		.global	pid
 537              		.global	packet
 538              		.global	id
 539              		.global	sync
 540              		.comm	Sensor_data,8,4
 541              		.section	.rodata
 542              		.type	sync, %object
 543              		.size	sync, 1
 544              	sync:
 545 0000 55       		.byte	85
 546              		.data
 547              		.align	2
 548              		.set	.LANCHOR1,. + 0
 549              		.type	packet, %object
 550              		.size	packet, 8
 551              	packet:
 552 0000 00       		.byte	0
 553 0001 FF       		.byte	-1
 554 0002 FF       		.byte	-1
 555 0003 FF       		.byte	-1
 556 0004 FF       		.byte	-1
 557 0005 FF       		.byte	-1
 558 0006 FF       		.byte	-1
 559 0007 FF       		.byte	-1
 560              		.type	id, %object
 561              		.size	id, 1
 562              	id:
 563 0008 10       		.byte	16
 564              		.bss
 565              		.set	.LANCHOR0,. + 0
 566              		.type	pid, %object
 567              		.size	pid, 1
 568              	pid:
 569 0000 00       		.space	1
 570              		.type	checksum, %object
 571              		.size	checksum, 1
 572              	checksum:
ARM GAS  C:\Users\jagumiel\AppData\Local\Temp\cch6g2lI.s 			page 14


 573 0001 00       		.space	1
 574              		.text
 575              	.Letext0:
 576              		.file 3 "c:\\program files (x86)\\cypress\\psoc creator\\4.2\\psoc creator\\import\\gnu\\arm\\5.4.
 577              		.file 4 "c:\\program files (x86)\\cypress\\psoc creator\\4.2\\psoc creator\\import\\gnu\\arm\\5.4.
 578              		.file 5 "Generated_Source\\PSoC4/cytypes.h"
 579              		.file 6 "Generated_Source\\PSoC4/UART_MASTER_SPI_UART.h"
 580              		.file 7 "Generated_Source\\PSoC4/LedRed.h"
 581              		.file 8 "Generated_Source\\PSoC4/CyLib.h"
 582              		.file 9 "Generated_Source\\PSoC4/Button_Left.h"
 583              		.file 10 "Generated_Source\\PSoC4/Button_Right.h"
 584              		.file 11 "Generated_Source\\PSoC4/UART_MASTER.h"
 585              		.file 12 "Generated_Source\\PSoC4/Button_Left_ISR.h"
 586              		.file 13 "Generated_Source\\PSoC4/Button_Right_ISR.h"