ARM GAS  C:\Users\jagumiel\AppData\Local\Temp\ccMGRXqB.s 			page 1


   1              		.syntax unified
   2              		.cpu cortex-m0
   3              		.fpu softvfp
   4              		.eabi_attribute 20, 1
   5              		.eabi_attribute 21, 1
   6              		.eabi_attribute 23, 3
   7              		.eabi_attribute 24, 1
   8              		.eabi_attribute 25, 1
   9              		.eabi_attribute 26, 1
  10              		.eabi_attribute 30, 1
  11              		.eabi_attribute 34, 0
  12              		.eabi_attribute 18, 4
  13              		.thumb
  14              		.syntax unified
  15              		.file	"main.c"
  16              		.text
  17              	.Ltext0:
  18              		.cfi_sections	.debug_frame
  19              		.section	.text.LIN_ID_Parity_Calculator,"ax",%progbits
  20              		.align	2
  21              		.global	LIN_ID_Parity_Calculator
  22              		.code	16
  23              		.thumb_func
  24              		.type	LIN_ID_Parity_Calculator, %function
  25              	LIN_ID_Parity_Calculator:
  26              	.LFB33:
  27              		.file 1 "LIN_Frame_Calculations.h"
   1:LIN_Frame_Calculations.h **** /* ========================================
   2:LIN_Frame_Calculations.h ****  *
   3:LIN_Frame_Calculations.h ****  * Copyright YOUR COMPANY, THE YEAR
   4:LIN_Frame_Calculations.h ****  * All Rights Reserved
   5:LIN_Frame_Calculations.h ****  * UNPUBLISHED, LICENSED SOFTWARE.
   6:LIN_Frame_Calculations.h ****  *
   7:LIN_Frame_Calculations.h ****  * CONFIDENTIAL AND PROPRIETARY INFORMATION
   8:LIN_Frame_Calculations.h ****  * WHICH IS THE PROPERTY OF your company.
   9:LIN_Frame_Calculations.h ****  *
  10:LIN_Frame_Calculations.h ****  * ========================================
  11:LIN_Frame_Calculations.h **** */
  12:LIN_Frame_Calculations.h **** 
  13:LIN_Frame_Calculations.h **** #include <stdint.h>
  14:LIN_Frame_Calculations.h **** #include <stdio.h>
  15:LIN_Frame_Calculations.h **** 
  16:LIN_Frame_Calculations.h **** #define PACKET_SIZE 8u
  17:LIN_Frame_Calculations.h **** 
  18:LIN_Frame_Calculations.h **** 
  19:LIN_Frame_Calculations.h **** uint8_t LIN_ID_Parity_Calculator(uint8_t data){
  28              		.loc 1 19 0
  29              		.cfi_startproc
  30              		@ args = 0, pretend = 0, frame = 0
  31              		@ frame_needed = 0, uses_anonymous_args = 0
  32              	.LVL0:
  33 0000 30B5     		push	{r4, r5, lr}
  34              		.cfi_def_cfa_offset 12
  35              		.cfi_offset 4, -12
  36              		.cfi_offset 5, -8
  37              		.cfi_offset 14, -4
  38              	.LVL1:
ARM GAS  C:\Users\jagumiel\AppData\Local\Temp\ccMGRXqB.s 			page 2


  20:LIN_Frame_Calculations.h **** 	uint8_t parity_bit_even = 0x00;
  21:LIN_Frame_Calculations.h **** 	uint8_t parity_bit_odd = 0x00;
  22:LIN_Frame_Calculations.h **** 	uint8_t result = 0x00;
  23:LIN_Frame_Calculations.h **** 
  24:LIN_Frame_Calculations.h **** 	parity_bit_even = ((data ^ (data>>1))^((data>>2)^(data>>4)));
  39              		.loc 1 24 0
  40 0002 4208     		lsrs	r2, r0, #1
  41 0004 0509     		lsrs	r5, r0, #4
  42 0006 8308     		lsrs	r3, r0, #2
  43 0008 6B40     		eors	r3, r5
  44 000a 0400     		movs	r4, r0
  45 000c 5440     		eors	r4, r2
  46 000e 6340     		eors	r3, r4
  47 0010 1900     		movs	r1, r3
  48              	.LVL2:
  25:LIN_Frame_Calculations.h **** 	parity_bit_odd = (~(((data>>1) ^ (data>>3))^((data>>4)^(data>>5))));
  49              		.loc 1 25 0
  50 0012 C408     		lsrs	r4, r0, #3
  51 0014 6240     		eors	r2, r4
  52 0016 4009     		lsrs	r0, r0, #5
  53              	.LVL3:
  54 0018 6840     		eors	r0, r5
  55 001a 4240     		eors	r2, r0
  56 001c D243     		mvns	r2, r2
  57 001e D3B2     		uxtb	r3, r2
  58              	.LVL4:
  26:LIN_Frame_Calculations.h **** 	result = (parity_bit_odd<<1)|(parity_bit_even);
  59              		.loc 1 26 0
  60 0020 5B00     		lsls	r3, r3, #1
  61              	.LVL5:
  62 0022 0B43     		orrs	r3, r1
  63 0024 D8B2     		uxtb	r0, r3
  64              	.LVL6:
  27:LIN_Frame_Calculations.h **** 	return result;
  28:LIN_Frame_Calculations.h **** }
  65              		.loc 1 28 0
  66              		@ sp needed
  67 0026 30BD     		pop	{r4, r5, pc}
  68              		.cfi_endproc
  69              	.LFE33:
  70              		.size	LIN_ID_Parity_Calculator, .-LIN_ID_Parity_Calculator
  71              		.section	.text.LIN_PID_Calculator,"ax",%progbits
  72              		.align	2
  73              		.global	LIN_PID_Calculator
  74              		.code	16
  75              		.thumb_func
  76              		.type	LIN_PID_Calculator, %function
  77              	LIN_PID_Calculator:
  78              	.LFB34:
  29:LIN_Frame_Calculations.h **** 
  30:LIN_Frame_Calculations.h **** int LIN_PID_Calculator(uint8_t id){
  79              		.loc 1 30 0
  80              		.cfi_startproc
  81              		@ args = 0, pretend = 0, frame = 8
  82              		@ frame_needed = 0, uses_anonymous_args = 0
  83              	.LVL7:
  84 0000 70B5     		push	{r4, r5, r6, lr}
ARM GAS  C:\Users\jagumiel\AppData\Local\Temp\ccMGRXqB.s 			page 3


  85              		.cfi_def_cfa_offset 16
  86              		.cfi_offset 4, -16
  87              		.cfi_offset 5, -12
  88              		.cfi_offset 6, -8
  89              		.cfi_offset 14, -4
  90 0002 82B0     		sub	sp, sp, #8
  91              		.cfi_def_cfa_offset 24
  92 0004 0400     		movs	r4, r0
  31:LIN_Frame_Calculations.h **** 	volatile uint8_t pid_tmp=0x00;
  93              		.loc 1 31 0
  94 0006 6B46     		mov	r3, sp
  95 0008 DE1D     		adds	r6, r3, #7
  96 000a 0023     		movs	r3, #0
  97 000c 3370     		strb	r3, [r6]
  32:LIN_Frame_Calculations.h **** 	volatile uint8_t pid=0x00;
  98              		.loc 1 32 0
  99 000e 6A46     		mov	r2, sp
 100 0010 951D     		adds	r5, r2, #6
 101 0012 9371     		strb	r3, [r2, #6]
  33:LIN_Frame_Calculations.h **** 	pid_tmp=(LIN_ID_Parity_Calculator(id));
 102              		.loc 1 33 0
 103 0014 FFF7FEFF 		bl	LIN_ID_Parity_Calculator
 104              	.LVL8:
 105 0018 3070     		strb	r0, [r6]
  34:LIN_Frame_Calculations.h **** 	pid=(uint8_t)((id)|(pid_tmp<<6));
 106              		.loc 1 34 0
 107 001a 3378     		ldrb	r3, [r6]
 108 001c 9B01     		lsls	r3, r3, #6
 109 001e 1C43     		orrs	r4, r3
 110 0020 E4B2     		uxtb	r4, r4
 111 0022 2C70     		strb	r4, [r5]
  35:LIN_Frame_Calculations.h **** 	return pid;
 112              		.loc 1 35 0
 113 0024 2878     		ldrb	r0, [r5]
 114 0026 C0B2     		uxtb	r0, r0
  36:LIN_Frame_Calculations.h **** }
 115              		.loc 1 36 0
 116 0028 02B0     		add	sp, sp, #8
 117              		@ sp needed
 118 002a 70BD     		pop	{r4, r5, r6, pc}
 119              		.cfi_endproc
 120              	.LFE34:
 121              		.size	LIN_PID_Calculator, .-LIN_PID_Calculator
 122              		.section	.text.LIN_Checksum_Calculation,"ax",%progbits
 123              		.align	2
 124              		.global	LIN_Checksum_Calculation
 125              		.code	16
 126              		.thumb_func
 127              		.type	LIN_Checksum_Calculation, %function
 128              	LIN_Checksum_Calculation:
 129              	.LFB35:
  37:LIN_Frame_Calculations.h **** 
  38:LIN_Frame_Calculations.h **** uint8_t LIN_Checksum_Calculation (uint8_t u8Header, uint8_t *packet){
 130              		.loc 1 38 0
 131              		.cfi_startproc
 132              		@ args = 0, pretend = 0, frame = 0
 133              		@ frame_needed = 0, uses_anonymous_args = 0
ARM GAS  C:\Users\jagumiel\AppData\Local\Temp\ccMGRXqB.s 			page 4


 134              		@ link register save eliminated.
 135              	.LVL9:
  39:LIN_Frame_Calculations.h **** 	uint16_t u16Checksum_Cal = u8Header;
 136              		.loc 1 39 0
 137 0000 82B2     		uxth	r2, r0
 138              	.LVL10:
  40:LIN_Frame_Calculations.h **** 	uint8_t u8Cnt = 0u;
  41:LIN_Frame_Calculations.h **** 	uint8_t u8Checksum = 0;
  42:LIN_Frame_Calculations.h **** 
  43:LIN_Frame_Calculations.h **** 	for(u8Cnt = 0u; u8Cnt < PACKET_SIZE; u8Cnt++){
 139              		.loc 1 43 0
 140 0002 0023     		movs	r3, #0
 141 0004 04E0     		b	.L4
 142              	.LVL11:
 143              	.L5:
  44:LIN_Frame_Calculations.h **** 		/* Sum of all bytes */
  45:LIN_Frame_Calculations.h **** 		u16Checksum_Cal += *(packet + u8Cnt);
 144              		.loc 1 45 0 discriminator 3
 145 0006 C85C     		ldrb	r0, [r1, r3]
 146 0008 1218     		adds	r2, r2, r0
 147              	.LVL12:
 148 000a 92B2     		uxth	r2, r2
 149              	.LVL13:
  43:LIN_Frame_Calculations.h **** 		/* Sum of all bytes */
 150              		.loc 1 43 0 discriminator 3
 151 000c 0133     		adds	r3, r3, #1
 152              	.LVL14:
 153 000e DBB2     		uxtb	r3, r3
 154              	.LVL15:
 155              	.L4:
  43:LIN_Frame_Calculations.h **** 		/* Sum of all bytes */
 156              		.loc 1 43 0 is_stmt 0 discriminator 1
 157 0010 072B     		cmp	r3, #7
 158 0012 F8D9     		bls	.L5
  46:LIN_Frame_Calculations.h **** 	}
  47:LIN_Frame_Calculations.h **** 
  48:LIN_Frame_Calculations.h **** 	/* Add carry and XOR with FF to invert the bits */
  49:LIN_Frame_Calculations.h **** 	u8Checksum = (0xFF ^ ((u16Checksum_Cal & 0x00FF) + (u16Checksum_Cal >> 8)));
 159              		.loc 1 49 0 is_stmt 1
 160 0014 100A     		lsrs	r0, r2, #8
 161 0016 8218     		adds	r2, r0, r2
 162              	.LVL16:
 163 0018 D043     		mvns	r0, r2
 164 001a C0B2     		uxtb	r0, r0
 165              	.LVL17:
  50:LIN_Frame_Calculations.h **** 	return(u8Checksum);
  51:LIN_Frame_Calculations.h **** }
 166              		.loc 1 51 0
 167              		@ sp needed
 168 001c 7047     		bx	lr
 169              		.cfi_endproc
 170              	.LFE35:
 171              		.size	LIN_Checksum_Calculation, .-LIN_Checksum_Calculation
 172 001e C046     		.section	.text.main,"ax",%progbits
 173              		.align	2
 174              		.global	main
 175              		.code	16
ARM GAS  C:\Users\jagumiel\AppData\Local\Temp\ccMGRXqB.s 			page 5


 176              		.thumb_func
 177              		.type	main, %function
 178              	main:
 179              	.LFB36:
 180              		.file 2 "main.c"
   1:main.c        **** #include "project.h"
   2:main.c        **** #include "LIN_Frame_Calculations.h"
   3:main.c        **** #include "ledControl.h"
   4:main.c        **** 
   5:main.c        **** volatile unsigned char Sensor_data[8];
   6:main.c        **** const uint8_t sync = 0x55;
   7:main.c        **** uint8_t id = 0x10;
   8:main.c        **** uint8_t packet[PACKET_SIZE] = {0x00, 0xFF, 0xFF, 0xFF, 0xFF, 0xFF, 0xFF, 0xFF};
   9:main.c        **** uint8_t pid = 0x00;
  10:main.c        **** uint8_t checksum = 0x00;
  11:main.c        **** 
  12:main.c        **** 
  13:main.c        **** int main(void){
 181              		.loc 2 13 0
 182              		.cfi_startproc
 183              		@ args = 0, pretend = 0, frame = 0
 184              		@ frame_needed = 0, uses_anonymous_args = 0
 185 0000 70B5     		push	{r4, r5, r6, lr}
 186              		.cfi_def_cfa_offset 16
 187              		.cfi_offset 4, -16
 188              		.cfi_offset 5, -12
 189              		.cfi_offset 6, -8
 190              		.cfi_offset 14, -4
  14:main.c        ****     
  15:main.c        ****     CyGlobalIntEnable; /* Enable global interrupts. */
 191              		.loc 2 15 0
 192              		.syntax divided
 193              	@ 15 "main.c" 1
 194 0002 62B6     		CPSIE   i
 195              	@ 0 "" 2
 196              	.LVL18:
  16:main.c        ****     _Bool frame=0;
  17:main.c        ****     UART_MASTER_Start();
 197              		.loc 2 17 0
 198              		.thumb
 199              		.syntax unified
 200 0004 FFF7FEFF 		bl	UART_MASTER_Start
 201              	.LVL19:
 202              	.L13:
  18:main.c        ****     
  19:main.c        ****     for(;;){
  20:main.c        ****         if(SW1_Read()==0){
 203              		.loc 2 20 0
 204 0008 FFF7FEFF 		bl	SW1_Read
 205              	.LVL20:
 206 000c 0028     		cmp	r0, #0
 207 000e 04D1     		bne	.L7
  21:main.c        ****             id=0x11;
 208              		.loc 2 21 0
 209 0010 1122     		movs	r2, #17
 210 0012 5D4B     		ldr	r3, .L14
 211 0014 1A70     		strb	r2, [r3]
ARM GAS  C:\Users\jagumiel\AppData\Local\Temp\ccMGRXqB.s 			page 6


 212              	.LVL21:
  22:main.c        ****             frame=0;
 213              		.loc 2 22 0
 214 0016 0026     		movs	r6, #0
 215 0018 5CE0     		b	.L8
 216              	.LVL22:
 217              	.L7:
  23:main.c        ****         }else{
  24:main.c        ****             id=0x10;
 218              		.loc 2 24 0
 219 001a 1022     		movs	r2, #16
 220 001c 5A4B     		ldr	r3, .L14
 221 001e 1A70     		strb	r2, [r3]
 222              	.LVL23:
  25:main.c        ****             frame=1;
  26:main.c        ****             if((SW2_Read()==0) & (SW3_Read()==0)){
 223              		.loc 2 26 0
 224 0020 FFF7FEFF 		bl	SW2_Read
 225              	.LVL24:
 226 0024 0400     		movs	r4, r0
 227 0026 FFF7FEFF 		bl	SW3_Read
 228              	.LVL25:
 229 002a 6342     		rsbs	r3, r4, #0
 230 002c 6341     		adcs	r3, r3, r4
 231 002e 4242     		rsbs	r2, r0, #0
 232 0030 4241     		adcs	r2, r2, r0
 233 0032 1A42     		tst	r2, r3
 234 0034 0DD0     		beq	.L9
  27:main.c        ****             	packet[0]=0x11;
 235              		.loc 2 27 0
 236 0036 1122     		movs	r2, #17
 237 0038 534B     		ldr	r3, .L14
 238 003a 1A71     		strb	r2, [r3, #4]
  28:main.c        ****                 RGB_LED_ON_RED;
 239              		.loc 2 28 0
 240 003c 0020     		movs	r0, #0
 241 003e FFF7FEFF 		bl	LED_RED_Write
 242              	.LVL26:
 243 0042 0120     		movs	r0, #1
 244 0044 FFF7FEFF 		bl	LED_GREEN_Write
 245              	.LVL27:
 246 0048 0120     		movs	r0, #1
 247 004a FFF7FEFF 		bl	LED_BLUE_Write
 248              	.LVL28:
  25:main.c        ****             frame=1;
 249              		.loc 2 25 0
 250 004e 0126     		movs	r6, #1
 251 0050 40E0     		b	.L8
 252              	.L9:
  29:main.c        ****             }else if((SW2_Read()==0) & (SW3_Read()==1)){
 253              		.loc 2 29 0
 254 0052 FFF7FEFF 		bl	SW2_Read
 255              	.LVL29:
 256 0056 0400     		movs	r4, r0
 257 0058 FFF7FEFF 		bl	SW3_Read
 258              	.LVL30:
 259 005c 6242     		rsbs	r2, r4, #0
ARM GAS  C:\Users\jagumiel\AppData\Local\Temp\ccMGRXqB.s 			page 7


 260 005e 6241     		adcs	r2, r2, r4
 261 0060 0138     		subs	r0, r0, #1
 262 0062 4342     		rsbs	r3, r0, #0
 263 0064 4341     		adcs	r3, r3, r0
 264 0066 1342     		tst	r3, r2
 265 0068 0DD0     		beq	.L10
  30:main.c        ****             	packet[0]=0x22;
 266              		.loc 2 30 0
 267 006a 2222     		movs	r2, #34
 268 006c 464B     		ldr	r3, .L14
 269 006e 1A71     		strb	r2, [r3, #4]
  31:main.c        ****                 RGB_LED_ON_GREEN;
 270              		.loc 2 31 0
 271 0070 0120     		movs	r0, #1
 272 0072 FFF7FEFF 		bl	LED_RED_Write
 273              	.LVL31:
 274 0076 0020     		movs	r0, #0
 275 0078 FFF7FEFF 		bl	LED_GREEN_Write
 276              	.LVL32:
 277 007c 0120     		movs	r0, #1
 278 007e FFF7FEFF 		bl	LED_BLUE_Write
 279              	.LVL33:
  25:main.c        ****             if((SW2_Read()==0) & (SW3_Read()==0)){
 280              		.loc 2 25 0
 281 0082 0126     		movs	r6, #1
 282 0084 26E0     		b	.L8
 283              	.L10:
  32:main.c        ****             }else if((SW2_Read()==1) & (SW3_Read()==0)){
 284              		.loc 2 32 0
 285 0086 FFF7FEFF 		bl	SW2_Read
 286              	.LVL34:
 287 008a 0400     		movs	r4, r0
 288 008c FFF7FEFF 		bl	SW3_Read
 289              	.LVL35:
 290 0090 013C     		subs	r4, r4, #1
 291 0092 6342     		rsbs	r3, r4, #0
 292 0094 6341     		adcs	r3, r3, r4
 293 0096 4242     		rsbs	r2, r0, #0
 294 0098 4241     		adcs	r2, r2, r0
 295 009a 1A42     		tst	r2, r3
 296 009c 0DD0     		beq	.L11
  33:main.c        ****             	packet[0]=0x33;
 297              		.loc 2 33 0
 298 009e 3322     		movs	r2, #51
 299 00a0 394B     		ldr	r3, .L14
 300 00a2 1A71     		strb	r2, [r3, #4]
  34:main.c        ****                 RGB_LED_ON_BLUE;
 301              		.loc 2 34 0
 302 00a4 0120     		movs	r0, #1
 303 00a6 FFF7FEFF 		bl	LED_RED_Write
 304              	.LVL36:
 305 00aa 0120     		movs	r0, #1
 306 00ac FFF7FEFF 		bl	LED_GREEN_Write
 307              	.LVL37:
 308 00b0 0020     		movs	r0, #0
 309 00b2 FFF7FEFF 		bl	LED_BLUE_Write
 310              	.LVL38:
ARM GAS  C:\Users\jagumiel\AppData\Local\Temp\ccMGRXqB.s 			page 8


  25:main.c        ****             if((SW2_Read()==0) & (SW3_Read()==0)){
 311              		.loc 2 25 0
 312 00b6 0126     		movs	r6, #1
 313 00b8 0CE0     		b	.L8
 314              	.L11:
  35:main.c        ****             }else{
  36:main.c        ****             	packet[0]=0x00;
 315              		.loc 2 36 0
 316 00ba 0022     		movs	r2, #0
 317 00bc 324B     		ldr	r3, .L14
 318 00be 1A71     		strb	r2, [r3, #4]
  37:main.c        ****                 RGB_LED_OFF;
 319              		.loc 2 37 0
 320 00c0 0120     		movs	r0, #1
 321 00c2 FFF7FEFF 		bl	LED_RED_Write
 322              	.LVL39:
 323 00c6 0120     		movs	r0, #1
 324 00c8 FFF7FEFF 		bl	LED_GREEN_Write
 325              	.LVL40:
 326 00cc 0120     		movs	r0, #1
 327 00ce FFF7FEFF 		bl	LED_BLUE_Write
 328              	.LVL41:
  25:main.c        ****             if((SW2_Read()==0) & (SW3_Read()==0)){
 329              		.loc 2 25 0
 330 00d2 0126     		movs	r6, #1
 331              	.LVL42:
 332              	.L8:
  38:main.c        ****             }
  39:main.c        ****         }
  40:main.c        ****         pid=LIN_PID_Calculator(id);
 333              		.loc 2 40 0
 334 00d4 2C4C     		ldr	r4, .L14
 335 00d6 2078     		ldrb	r0, [r4]
 336 00d8 FFF7FEFF 		bl	LIN_PID_Calculator
 337              	.LVL43:
 338 00dc C0B2     		uxtb	r0, r0
 339 00de 2B4D     		ldr	r5, .L14+4
 340 00e0 2870     		strb	r0, [r5]
  41:main.c        ****         checksum=LIN_Checksum_Calculation(pid, packet);
 341              		.loc 2 41 0
 342 00e2 211D     		adds	r1, r4, #4
 343 00e4 FFF7FEFF 		bl	LIN_Checksum_Calculation
 344              	.LVL44:
 345 00e8 6870     		strb	r0, [r5, #1]
  42:main.c        ****         
  43:main.c        ****         CyDelay(1000);
 346              		.loc 2 43 0
 347 00ea FA20     		movs	r0, #250
 348 00ec 8000     		lsls	r0, r0, #2
 349 00ee FFF7FEFF 		bl	CyDelay
 350              	.LVL45:
  44:main.c        ****         
  45:main.c        ****         UART_MASTER_UartSendBreakBlocking(13);                              // Break
 351              		.loc 2 45 0
 352 00f2 0D20     		movs	r0, #13
 353 00f4 FFF7FEFF 		bl	UART_MASTER_UartSendBreakBlocking
 354              	.LVL46:
ARM GAS  C:\Users\jagumiel\AppData\Local\Temp\ccMGRXqB.s 			page 9


  46:main.c        ****         UART_MASTER_UartPutChar(sync);                                      // Sync (0x55)
 355              		.loc 2 46 0
 356 00f8 5520     		movs	r0, #85
 357 00fa FFF7FEFF 		bl	UART_MASTER_SpiUartWriteTxData
 358              	.LVL47:
  47:main.c        ****         UART_MASTER_UartPutChar(pid);                                       // Protected ID (PID). 
 359              		.loc 2 47 0
 360 00fe 2878     		ldrb	r0, [r5]
 361 0100 FFF7FEFF 		bl	UART_MASTER_SpiUartWriteTxData
 362              	.LVL48:
  48:main.c        ****         if(frame==1){
 363              		.loc 2 48 0
 364 0104 002E     		cmp	r6, #0
 365 0106 1CD0     		beq	.L12
  49:main.c        ****             UART_MASTER_UartPutChar(packet[0]);                             // Command
 366              		.loc 2 49 0
 367 0108 1F4C     		ldr	r4, .L14
 368 010a 2079     		ldrb	r0, [r4, #4]
 369 010c FFF7FEFF 		bl	UART_MASTER_SpiUartWriteTxData
 370              	.LVL49:
  50:main.c        ****             UART_MASTER_UartPutChar(packet[1]);                             // Fill. Relleno para c
 371              		.loc 2 50 0
 372 0110 6079     		ldrb	r0, [r4, #5]
 373 0112 FFF7FEFF 		bl	UART_MASTER_SpiUartWriteTxData
 374              	.LVL50:
  51:main.c        ****             UART_MASTER_UartPutChar(packet[2]);
 375              		.loc 2 51 0
 376 0116 A079     		ldrb	r0, [r4, #6]
 377 0118 FFF7FEFF 		bl	UART_MASTER_SpiUartWriteTxData
 378              	.LVL51:
  52:main.c        ****             UART_MASTER_UartPutChar(packet[3]);
 379              		.loc 2 52 0
 380 011c E079     		ldrb	r0, [r4, #7]
 381 011e FFF7FEFF 		bl	UART_MASTER_SpiUartWriteTxData
 382              	.LVL52:
  53:main.c        ****             UART_MASTER_UartPutChar(packet[4]);
 383              		.loc 2 53 0
 384 0122 207A     		ldrb	r0, [r4, #8]
 385 0124 FFF7FEFF 		bl	UART_MASTER_SpiUartWriteTxData
 386              	.LVL53:
  54:main.c        ****             UART_MASTER_UartPutChar(packet[5]);
 387              		.loc 2 54 0
 388 0128 607A     		ldrb	r0, [r4, #9]
 389 012a FFF7FEFF 		bl	UART_MASTER_SpiUartWriteTxData
 390              	.LVL54:
  55:main.c        ****             UART_MASTER_UartPutChar(packet[6]);
 391              		.loc 2 55 0
 392 012e A07A     		ldrb	r0, [r4, #10]
 393 0130 FFF7FEFF 		bl	UART_MASTER_SpiUartWriteTxData
 394              	.LVL55:
  56:main.c        ****             UART_MASTER_UartPutChar(packet[7]);
 395              		.loc 2 56 0
 396 0134 E07A     		ldrb	r0, [r4, #11]
 397 0136 FFF7FEFF 		bl	UART_MASTER_SpiUartWriteTxData
 398              	.LVL56:
  57:main.c        ****             UART_MASTER_UartPutChar(checksum);                              // Checksum. En LIN 2.2
 399              		.loc 2 57 0
ARM GAS  C:\Users\jagumiel\AppData\Local\Temp\ccMGRXqB.s 			page 10


 400 013a 144B     		ldr	r3, .L14+4
 401 013c 5878     		ldrb	r0, [r3, #1]
 402 013e FFF7FEFF 		bl	UART_MASTER_SpiUartWriteTxData
 403              	.LVL57:
 404              	.L12:
  58:main.c        ****         }
  59:main.c        **** 
  60:main.c        ****         Sensor_data[0] = UART_MASTER_UartGetByte();                         // 1. Byte
 405              		.loc 2 60 0
 406 0142 FFF7FEFF 		bl	UART_MASTER_UartGetByte
 407              	.LVL58:
 408 0146 C0B2     		uxtb	r0, r0
 409 0148 114C     		ldr	r4, .L14+8
 410 014a 2070     		strb	r0, [r4]
  61:main.c        ****         Sensor_data[1] = UART_MASTER_UartGetByte();                         // 2. Byte
 411              		.loc 2 61 0
 412 014c FFF7FEFF 		bl	UART_MASTER_UartGetByte
 413              	.LVL59:
 414 0150 C0B2     		uxtb	r0, r0
 415 0152 6070     		strb	r0, [r4, #1]
  62:main.c        ****         Sensor_data[2] = UART_MASTER_UartGetByte();                         // 3. Byte
 416              		.loc 2 62 0
 417 0154 FFF7FEFF 		bl	UART_MASTER_UartGetByte
 418              	.LVL60:
 419 0158 C0B2     		uxtb	r0, r0
 420 015a A070     		strb	r0, [r4, #2]
  63:main.c        ****         Sensor_data[3] = UART_MASTER_UartGetByte();                         // 4. Byte
 421              		.loc 2 63 0
 422 015c FFF7FEFF 		bl	UART_MASTER_UartGetByte
 423              	.LVL61:
 424 0160 C0B2     		uxtb	r0, r0
 425 0162 E070     		strb	r0, [r4, #3]
  64:main.c        ****         Sensor_data[4] = UART_MASTER_UartGetByte();                         // 5. Byte
 426              		.loc 2 64 0
 427 0164 FFF7FEFF 		bl	UART_MASTER_UartGetByte
 428              	.LVL62:
 429 0168 C0B2     		uxtb	r0, r0
 430 016a 2071     		strb	r0, [r4, #4]
  65:main.c        ****         Sensor_data[5] = UART_MASTER_UartGetByte();                         // 6. Byte
 431              		.loc 2 65 0
 432 016c FFF7FEFF 		bl	UART_MASTER_UartGetByte
 433              	.LVL63:
 434 0170 C0B2     		uxtb	r0, r0
 435 0172 6071     		strb	r0, [r4, #5]
  66:main.c        ****         Sensor_data[6] = UART_MASTER_UartGetByte();                         // 7. Byte
 436              		.loc 2 66 0
 437 0174 FFF7FEFF 		bl	UART_MASTER_UartGetByte
 438              	.LVL64:
 439 0178 C0B2     		uxtb	r0, r0
 440 017a A071     		strb	r0, [r4, #6]
  67:main.c        ****         Sensor_data[7] = UART_MASTER_UartGetByte();                         // 8. Byte
 441              		.loc 2 67 0
 442 017c FFF7FEFF 		bl	UART_MASTER_UartGetByte
 443              	.LVL65:
 444 0180 C0B2     		uxtb	r0, r0
 445 0182 E071     		strb	r0, [r4, #7]
  68:main.c        ****     }
ARM GAS  C:\Users\jagumiel\AppData\Local\Temp\ccMGRXqB.s 			page 11


 446              		.loc 2 68 0
 447 0184 40E7     		b	.L13
 448              	.L15:
 449 0186 C046     		.align	2
 450              	.L14:
 451 0188 00000000 		.word	.LANCHOR0
 452 018c 00000000 		.word	.LANCHOR1
 453 0190 00000000 		.word	Sensor_data
 454              		.cfi_endproc
 455              	.LFE36:
 456              		.size	main, .-main
 457              		.global	checksum
 458              		.global	pid
 459              		.global	packet
 460              		.global	id
 461              		.global	sync
 462              		.comm	Sensor_data,8,4
 463              		.section	.rodata
 464              		.type	sync, %object
 465              		.size	sync, 1
 466              	sync:
 467 0000 55       		.byte	85
 468              		.data
 469              		.align	2
 470              		.set	.LANCHOR0,. + 0
 471              		.type	id, %object
 472              		.size	id, 1
 473              	id:
 474 0000 10       		.byte	16
 475 0001 000000   		.space	3
 476              		.type	packet, %object
 477              		.size	packet, 8
 478              	packet:
 479 0004 00       		.byte	0
 480 0005 FF       		.byte	-1
 481 0006 FF       		.byte	-1
 482 0007 FF       		.byte	-1
 483 0008 FF       		.byte	-1
 484 0009 FF       		.byte	-1
 485 000a FF       		.byte	-1
 486 000b FF       		.byte	-1
 487              		.bss
 488              		.set	.LANCHOR1,. + 0
 489              		.type	pid, %object
 490              		.size	pid, 1
 491              	pid:
 492 0000 00       		.space	1
 493              		.type	checksum, %object
 494              		.size	checksum, 1
 495              	checksum:
 496 0001 00       		.space	1
 497              		.text
 498              	.Letext0:
 499              		.file 3 "c:\\program files (x86)\\cypress\\psoc creator\\4.2\\psoc creator\\import\\gnu\\arm\\5.4.
 500              		.file 4 "c:\\program files (x86)\\cypress\\psoc creator\\4.2\\psoc creator\\import\\gnu\\arm\\5.4.
 501              		.file 5 "Generated_Source\\PSoC4/cytypes.h"
 502              		.file 6 "Generated_Source\\PSoC4/UART_MASTER.h"
ARM GAS  C:\Users\jagumiel\AppData\Local\Temp\ccMGRXqB.s 			page 12


 503              		.file 7 "Generated_Source\\PSoC4/SW1.h"
 504              		.file 8 "Generated_Source\\PSoC4/SW2.h"
 505              		.file 9 "Generated_Source\\PSoC4/SW3.h"
 506              		.file 10 "Generated_Source\\PSoC4/LED_RED.h"
 507              		.file 11 "Generated_Source\\PSoC4/LED_GREEN.h"
 508              		.file 12 "Generated_Source\\PSoC4/LED_BLUE.h"
 509              		.file 13 "Generated_Source\\PSoC4/CyLib.h"
 510              		.file 14 "Generated_Source\\PSoC4/UART_MASTER_SPI_UART.h"