ARM GAS  C:\Users\jagumiel\AppData\Local\Temp\cc9txhYn.s 			page 1


   1              		.syntax unified
   2              		.cpu cortex-m0
   3              		.fpu softvfp
   4              		.eabi_attribute 20, 1
   5              		.eabi_attribute 21, 1
   6              		.eabi_attribute 23, 3
   7              		.eabi_attribute 24, 1
   8              		.eabi_attribute 25, 1
   9              		.eabi_attribute 26, 1
  10              		.eabi_attribute 30, 1
  11              		.eabi_attribute 34, 0
  12              		.eabi_attribute 18, 4
  13              		.thumb
  14              		.syntax unified
  15              		.file	"main.c"
  16              		.text
  17              	.Ltext0:
  18              		.cfi_sections	.debug_frame
  19              		.section	.text.LIN_ID_Parity_Calculator,"ax",%progbits
  20              		.align	2
  21              		.global	LIN_ID_Parity_Calculator
  22              		.code	16
  23              		.thumb_func
  24              		.type	LIN_ID_Parity_Calculator, %function
  25              	LIN_ID_Parity_Calculator:
  26              	.LFB33:
  27              		.file 1 "LIN_Frame_Calculations.h"
   1:LIN_Frame_Calculations.h **** /* ========================================
   2:LIN_Frame_Calculations.h ****  *
   3:LIN_Frame_Calculations.h ****  * Copyright YOUR COMPANY, THE YEAR
   4:LIN_Frame_Calculations.h ****  * All Rights Reserved
   5:LIN_Frame_Calculations.h ****  * UNPUBLISHED, LICENSED SOFTWARE.
   6:LIN_Frame_Calculations.h ****  *
   7:LIN_Frame_Calculations.h ****  * CONFIDENTIAL AND PROPRIETARY INFORMATION
   8:LIN_Frame_Calculations.h ****  * WHICH IS THE PROPERTY OF your company.
   9:LIN_Frame_Calculations.h ****  *
  10:LIN_Frame_Calculations.h ****  * ========================================
  11:LIN_Frame_Calculations.h **** */
  12:LIN_Frame_Calculations.h **** 
  13:LIN_Frame_Calculations.h **** #include <stdint.h>
  14:LIN_Frame_Calculations.h **** #include <stdio.h>
  15:LIN_Frame_Calculations.h **** 
  16:LIN_Frame_Calculations.h **** #define PACKET_SIZE 8u
  17:LIN_Frame_Calculations.h **** 
  18:LIN_Frame_Calculations.h **** 
  19:LIN_Frame_Calculations.h **** uint8_t LIN_ID_Parity_Calculator(uint8_t data){
  28              		.loc 1 19 0
  29              		.cfi_startproc
  30              		@ args = 0, pretend = 0, frame = 0
  31              		@ frame_needed = 0, uses_anonymous_args = 0
  32              	.LVL0:
  33 0000 30B5     		push	{r4, r5, lr}
  34              		.cfi_def_cfa_offset 12
  35              		.cfi_offset 4, -12
  36              		.cfi_offset 5, -8
  37              		.cfi_offset 14, -4
  38              	.LVL1:
ARM GAS  C:\Users\jagumiel\AppData\Local\Temp\cc9txhYn.s 			page 2


  20:LIN_Frame_Calculations.h **** 	uint8_t parity_bit_even = 0x00;
  21:LIN_Frame_Calculations.h **** 	uint8_t parity_bit_odd = 0x00;
  22:LIN_Frame_Calculations.h **** 	uint8_t result = 0x00;
  23:LIN_Frame_Calculations.h **** 
  24:LIN_Frame_Calculations.h **** 	parity_bit_even = ((data ^ (data>>1))^((data>>2)^(data>>4)));
  39              		.loc 1 24 0
  40 0002 4208     		lsrs	r2, r0, #1
  41 0004 0509     		lsrs	r5, r0, #4
  42 0006 8308     		lsrs	r3, r0, #2
  43 0008 6B40     		eors	r3, r5
  44 000a 0400     		movs	r4, r0
  45 000c 5440     		eors	r4, r2
  46 000e 6340     		eors	r3, r4
  47 0010 1900     		movs	r1, r3
  48              	.LVL2:
  25:LIN_Frame_Calculations.h **** 	parity_bit_odd = (~(((data>>1) ^ (data>>3))^((data>>4)^(data>>5))));
  49              		.loc 1 25 0
  50 0012 C408     		lsrs	r4, r0, #3
  51 0014 6240     		eors	r2, r4
  52 0016 4009     		lsrs	r0, r0, #5
  53              	.LVL3:
  54 0018 6840     		eors	r0, r5
  55 001a 4240     		eors	r2, r0
  56 001c D243     		mvns	r2, r2
  57 001e D3B2     		uxtb	r3, r2
  58              	.LVL4:
  26:LIN_Frame_Calculations.h **** 	result = (parity_bit_odd<<1)|(parity_bit_even);
  59              		.loc 1 26 0
  60 0020 5B00     		lsls	r3, r3, #1
  61              	.LVL5:
  62 0022 0B43     		orrs	r3, r1
  63 0024 D8B2     		uxtb	r0, r3
  64              	.LVL6:
  27:LIN_Frame_Calculations.h **** 	return result;
  28:LIN_Frame_Calculations.h **** }
  65              		.loc 1 28 0
  66              		@ sp needed
  67 0026 30BD     		pop	{r4, r5, pc}
  68              		.cfi_endproc
  69              	.LFE33:
  70              		.size	LIN_ID_Parity_Calculator, .-LIN_ID_Parity_Calculator
  71              		.section	.text.LIN_PID_Calculator,"ax",%progbits
  72              		.align	2
  73              		.global	LIN_PID_Calculator
  74              		.code	16
  75              		.thumb_func
  76              		.type	LIN_PID_Calculator, %function
  77              	LIN_PID_Calculator:
  78              	.LFB34:
  29:LIN_Frame_Calculations.h **** 
  30:LIN_Frame_Calculations.h **** int LIN_PID_Calculator(uint8_t id){
  79              		.loc 1 30 0
  80              		.cfi_startproc
  81              		@ args = 0, pretend = 0, frame = 8
  82              		@ frame_needed = 0, uses_anonymous_args = 0
  83              	.LVL7:
  84 0000 70B5     		push	{r4, r5, r6, lr}
ARM GAS  C:\Users\jagumiel\AppData\Local\Temp\cc9txhYn.s 			page 3


  85              		.cfi_def_cfa_offset 16
  86              		.cfi_offset 4, -16
  87              		.cfi_offset 5, -12
  88              		.cfi_offset 6, -8
  89              		.cfi_offset 14, -4
  90 0002 82B0     		sub	sp, sp, #8
  91              		.cfi_def_cfa_offset 24
  92 0004 0400     		movs	r4, r0
  31:LIN_Frame_Calculations.h **** 	volatile uint8_t pid_tmp=0x00;
  93              		.loc 1 31 0
  94 0006 6B46     		mov	r3, sp
  95 0008 DE1D     		adds	r6, r3, #7
  96 000a 0023     		movs	r3, #0
  97 000c 3370     		strb	r3, [r6]
  32:LIN_Frame_Calculations.h **** 	volatile uint8_t pid=0x00;
  98              		.loc 1 32 0
  99 000e 6A46     		mov	r2, sp
 100 0010 951D     		adds	r5, r2, #6
 101 0012 9371     		strb	r3, [r2, #6]
  33:LIN_Frame_Calculations.h **** 	pid_tmp=(LIN_ID_Parity_Calculator(id));
 102              		.loc 1 33 0
 103 0014 FFF7FEFF 		bl	LIN_ID_Parity_Calculator
 104              	.LVL8:
 105 0018 3070     		strb	r0, [r6]
  34:LIN_Frame_Calculations.h **** 	pid=(uint8_t)((id)|(pid_tmp<<6));
 106              		.loc 1 34 0
 107 001a 3378     		ldrb	r3, [r6]
 108 001c 9B01     		lsls	r3, r3, #6
 109 001e 1C43     		orrs	r4, r3
 110 0020 E4B2     		uxtb	r4, r4
 111 0022 2C70     		strb	r4, [r5]
  35:LIN_Frame_Calculations.h **** 	return pid;
 112              		.loc 1 35 0
 113 0024 2878     		ldrb	r0, [r5]
 114 0026 C0B2     		uxtb	r0, r0
  36:LIN_Frame_Calculations.h **** }
 115              		.loc 1 36 0
 116 0028 02B0     		add	sp, sp, #8
 117              		@ sp needed
 118 002a 70BD     		pop	{r4, r5, r6, pc}
 119              		.cfi_endproc
 120              	.LFE34:
 121              		.size	LIN_PID_Calculator, .-LIN_PID_Calculator
 122              		.section	.text.LIN_Checksum_Calculation,"ax",%progbits
 123              		.align	2
 124              		.global	LIN_Checksum_Calculation
 125              		.code	16
 126              		.thumb_func
 127              		.type	LIN_Checksum_Calculation, %function
 128              	LIN_Checksum_Calculation:
 129              	.LFB35:
  37:LIN_Frame_Calculations.h **** 
  38:LIN_Frame_Calculations.h **** uint8_t LIN_Checksum_Calculation (uint8_t u8Header, uint8_t *packet){
 130              		.loc 1 38 0
 131              		.cfi_startproc
 132              		@ args = 0, pretend = 0, frame = 0
 133              		@ frame_needed = 0, uses_anonymous_args = 0
ARM GAS  C:\Users\jagumiel\AppData\Local\Temp\cc9txhYn.s 			page 4


 134              		@ link register save eliminated.
 135              	.LVL9:
  39:LIN_Frame_Calculations.h **** 	uint16_t u16Checksum_Cal = u8Header;
 136              		.loc 1 39 0
 137 0000 82B2     		uxth	r2, r0
 138              	.LVL10:
  40:LIN_Frame_Calculations.h **** 	uint8_t u8Cnt = 0u;
  41:LIN_Frame_Calculations.h **** 	uint8_t u8Checksum = 0;
  42:LIN_Frame_Calculations.h **** 
  43:LIN_Frame_Calculations.h **** 	for(u8Cnt = 0u; u8Cnt < PACKET_SIZE; u8Cnt++){
 139              		.loc 1 43 0
 140 0002 0023     		movs	r3, #0
 141 0004 04E0     		b	.L4
 142              	.LVL11:
 143              	.L5:
  44:LIN_Frame_Calculations.h **** 		/* Sum of all bytes */
  45:LIN_Frame_Calculations.h **** 		u16Checksum_Cal += *(packet + u8Cnt);
 144              		.loc 1 45 0 discriminator 3
 145 0006 C85C     		ldrb	r0, [r1, r3]
 146 0008 1218     		adds	r2, r2, r0
 147              	.LVL12:
 148 000a 92B2     		uxth	r2, r2
 149              	.LVL13:
  43:LIN_Frame_Calculations.h **** 		/* Sum of all bytes */
 150              		.loc 1 43 0 discriminator 3
 151 000c 0133     		adds	r3, r3, #1
 152              	.LVL14:
 153 000e DBB2     		uxtb	r3, r3
 154              	.LVL15:
 155              	.L4:
  43:LIN_Frame_Calculations.h **** 		/* Sum of all bytes */
 156              		.loc 1 43 0 is_stmt 0 discriminator 1
 157 0010 072B     		cmp	r3, #7
 158 0012 F8D9     		bls	.L5
  46:LIN_Frame_Calculations.h **** 	}
  47:LIN_Frame_Calculations.h **** 
  48:LIN_Frame_Calculations.h **** 	/* Add carry and XOR with FF to invert the bits */
  49:LIN_Frame_Calculations.h **** 	u8Checksum = (0xFF ^ ((u16Checksum_Cal & 0x00FF) + (u16Checksum_Cal >> 8)));
 159              		.loc 1 49 0 is_stmt 1
 160 0014 100A     		lsrs	r0, r2, #8
 161 0016 8218     		adds	r2, r0, r2
 162              	.LVL16:
 163 0018 D043     		mvns	r0, r2
 164 001a C0B2     		uxtb	r0, r0
 165              	.LVL17:
  50:LIN_Frame_Calculations.h **** 	return(u8Checksum);
  51:LIN_Frame_Calculations.h **** }
 166              		.loc 1 51 0
 167              		@ sp needed
 168 001c 7047     		bx	lr
 169              		.cfi_endproc
 170              	.LFE35:
 171              		.size	LIN_Checksum_Calculation, .-LIN_Checksum_Calculation
 172 001e C046     		.section	.text.getResults,"ax",%progbits
 173              		.align	2
 174              		.global	getResults
 175              		.code	16
ARM GAS  C:\Users\jagumiel\AppData\Local\Temp\cc9txhYn.s 			page 5


 176              		.thumb_func
 177              		.type	getResults, %function
 178              	getResults:
 179              	.LFB36:
 180              		.file 2 "main.c"
   1:main.c        **** /* ===========================================
   2:main.c        ****  * ___________________________________________
   3:main.c        ****  *          LIN: RGB Command Sender
   4:main.c        ****  * -------------------------------------------
   5:main.c        ****  * In this project a command will be readed
   6:main.c        ****  * from a PC using UART communication. User
   7:main.c        ****  * will introduce the desired values for the
   8:main.c        ****  * RGB LEDs. The Master will analyse the data
   9:main.c        ****  * and will send it to the LIN Slave. In this
  10:main.c        ****  * example 2 different kind of frames will be
  11:main.c        ****  * sent to set the LEDs. It is posible to send
  12:main.c        ****  * a frame with 3 bytes, to set the value for
  13:main.c        ****  * all the RGB LED values, or to change the
  14:main.c        ****  * brightness of only one LED using 2 bytes.
  15:main.c        ****  * In the last case, the first byte indicates
  16:main.c        ****  * the colour of the LED to change, and the
  17:main.c        ****  * second byte, the brightness.
  18:main.c        ****  *
  19:main.c        ****  * A LIN transceiver will be needed for
  20:main.c        ****  * this project.
  21:main.c        ****  *
  22:main.c        ****  * Cypress CY8CKIT-042 and CY8CKIT-026 are
  23:main.c        ****  * used in this project.
  24:main.c        ****  *
  25:main.c        ****  * ===========================================
  26:main.c        **** */
  27:main.c        **** 
  28:main.c        **** #include <stdlib.h> /* Needed for "atoi()" function */
  29:main.c        **** #include "project.h"
  30:main.c        **** #include "LIN_Frame_Calculations.h"
  31:main.c        **** 
  32:main.c        **** volatile unsigned char Sensor_data[8];
  33:main.c        **** const uint8_t sync = 0x55;
  34:main.c        **** uint8_t id = 0x10;
  35:main.c        **** uint8_t packet[PACKET_SIZE] = {0x00, 0x00, 0x00, 0xFF, 0xFF, 0xFF, 0xFF, 0xFF};
  36:main.c        **** uint8_t pid = 0x00;
  37:main.c        **** uint8_t checksum = 0x00;
  38:main.c        **** 
  39:main.c        **** void getResults(char cmd, char ledValue[]){
 181              		.loc 2 39 0
 182              		.cfi_startproc
 183              		@ args = 0, pretend = 0, frame = 8
 184              		@ frame_needed = 0, uses_anonymous_args = 0
 185              	.LVL18:
 186 0000 30B5     		push	{r4, r5, lr}
 187              		.cfi_def_cfa_offset 12
 188              		.cfi_offset 4, -12
 189              		.cfi_offset 5, -8
 190              		.cfi_offset 14, -4
 191 0002 83B0     		sub	sp, sp, #12
 192              		.cfi_def_cfa_offset 24
 193 0004 0D00     		movs	r5, r1
ARM GAS  C:\Users\jagumiel\AppData\Local\Temp\cc9txhYn.s 			page 6


 194              	.LVL19:
  40:main.c        ****     /* Gets the scratch buffer data (string of chars) and places it into color variables (as intege
  41:main.c        ****     char singleValAux[3];
  42:main.c        ****     int i=0;
  43:main.c        ****     if(cmd=='W'){
 195              		.loc 2 43 0
 196 0006 5728     		cmp	r0, #87
 197 0008 2ED1     		bne	.L7
  44:main.c        ****         id=0x10;
 198              		.loc 2 44 0
 199 000a 1022     		movs	r2, #16
 200 000c 274B     		ldr	r3, .L20
 201 000e 1A70     		strb	r2, [r3]
 202              	.LVL20:
 203              	.LBB2:
  45:main.c        ****         for(int j=0; j<3; j++){
 204              		.loc 2 45 0
 205 0010 0023     		movs	r3, #0
 206              	.LBE2:
  42:main.c        ****     if(cmd=='W'){
 207              		.loc 2 42 0
 208 0012 0024     		movs	r4, #0
 209              	.LBB3:
 210              		.loc 2 45 0
 211 0014 04E0     		b	.L8
 212              	.LVL21:
 213              	.L9:
  46:main.c        ****             singleValAux[j]=ledValue[i];
 214              		.loc 2 46 0 discriminator 3
 215 0016 295D     		ldrb	r1, [r5, r4]
 216 0018 01AA     		add	r2, sp, #4
 217 001a D154     		strb	r1, [r2, r3]
  47:main.c        ****             i++;
 218              		.loc 2 47 0 discriminator 3
 219 001c 0134     		adds	r4, r4, #1
 220              	.LVL22:
  45:main.c        ****             singleValAux[j]=ledValue[i];
 221              		.loc 2 45 0 discriminator 3
 222 001e 0133     		adds	r3, r3, #1
 223              	.LVL23:
 224              	.L8:
  45:main.c        ****             singleValAux[j]=ledValue[i];
 225              		.loc 2 45 0 is_stmt 0 discriminator 1
 226 0020 022B     		cmp	r3, #2
 227 0022 F8DD     		ble	.L9
 228              	.LBE3:
  48:main.c        ****         }
  49:main.c        ****         packet[0] = atoi(singleValAux);
 229              		.loc 2 49 0 is_stmt 1
 230 0024 01A8     		add	r0, sp, #4
 231              	.LVL24:
 232 0026 FFF7FEFF 		bl	atoi
 233              	.LVL25:
 234 002a 204B     		ldr	r3, .L20
 235 002c 1871     		strb	r0, [r3, #4]
 236              	.LVL26:
 237              	.LBB4:
ARM GAS  C:\Users\jagumiel\AppData\Local\Temp\cc9txhYn.s 			page 7


  50:main.c        ****         for(int j=0; j<3; j++){
 238              		.loc 2 50 0
 239 002e 0023     		movs	r3, #0
 240 0030 04E0     		b	.L10
 241              	.LVL27:
 242              	.L11:
  51:main.c        ****             singleValAux[j]=ledValue[i];
 243              		.loc 2 51 0 discriminator 3
 244 0032 295D     		ldrb	r1, [r5, r4]
 245 0034 01AA     		add	r2, sp, #4
 246 0036 D154     		strb	r1, [r2, r3]
  52:main.c        ****             i++;
 247              		.loc 2 52 0 discriminator 3
 248 0038 0134     		adds	r4, r4, #1
 249              	.LVL28:
  50:main.c        ****         for(int j=0; j<3; j++){
 250              		.loc 2 50 0 discriminator 3
 251 003a 0133     		adds	r3, r3, #1
 252              	.LVL29:
 253              	.L10:
  50:main.c        ****         for(int j=0; j<3; j++){
 254              		.loc 2 50 0 is_stmt 0 discriminator 1
 255 003c 022B     		cmp	r3, #2
 256 003e F8DD     		ble	.L11
 257              	.LBE4:
  53:main.c        ****         }
  54:main.c        ****         packet[1] = atoi(singleValAux);
 258              		.loc 2 54 0 is_stmt 1
 259 0040 01A8     		add	r0, sp, #4
 260 0042 FFF7FEFF 		bl	atoi
 261              	.LVL30:
 262 0046 194B     		ldr	r3, .L20
 263 0048 5871     		strb	r0, [r3, #5]
 264              	.LVL31:
 265              	.LBB5:
  55:main.c        ****         for(int j=0; j<3; j++){
 266              		.loc 2 55 0
 267 004a 0023     		movs	r3, #0
 268 004c 04E0     		b	.L12
 269              	.LVL32:
 270              	.L13:
  56:main.c        ****             singleValAux[j]=ledValue[i];
 271              		.loc 2 56 0 discriminator 3
 272 004e 295D     		ldrb	r1, [r5, r4]
 273 0050 01AA     		add	r2, sp, #4
 274 0052 D154     		strb	r1, [r2, r3]
  57:main.c        ****             i++;
 275              		.loc 2 57 0 discriminator 3
 276 0054 0134     		adds	r4, r4, #1
 277              	.LVL33:
  55:main.c        ****         for(int j=0; j<3; j++){
 278              		.loc 2 55 0 discriminator 3
 279 0056 0133     		adds	r3, r3, #1
 280              	.LVL34:
 281              	.L12:
  55:main.c        ****         for(int j=0; j<3; j++){
 282              		.loc 2 55 0 is_stmt 0 discriminator 1
ARM GAS  C:\Users\jagumiel\AppData\Local\Temp\cc9txhYn.s 			page 8


 283 0058 022B     		cmp	r3, #2
 284 005a F8DD     		ble	.L13
 285              	.LBE5:
  58:main.c        ****         }
  59:main.c        ****         packet[2] = atoi(singleValAux);
 286              		.loc 2 59 0 is_stmt 1
 287 005c 01A8     		add	r0, sp, #4
 288 005e FFF7FEFF 		bl	atoi
 289              	.LVL35:
 290 0062 124B     		ldr	r3, .L20
 291 0064 9871     		strb	r0, [r3, #6]
 292 0066 1FE0     		b	.L6
 293              	.LVL36:
 294              	.L7:
  60:main.c        ****         
  61:main.c        ****         /*Numbers must be comprehended between 0-255. If they are greater than 255 are setted to th
  62:main.c        ****         if (packet[0] > 255) packet[0] = 255;
  63:main.c        ****         if (packet[1] > 255) packet[1] = 255;
  64:main.c        ****         if (packet[2] > 255) packet[2] = 255;
  65:main.c        ****     }else{
  66:main.c        ****         /* Does exactly the same, but in this case, it only sets 1 value instead of the three RGB v
  67:main.c        ****         id=0x01;
 295              		.loc 2 67 0
 296 0068 0122     		movs	r2, #1
 297 006a 104B     		ldr	r3, .L20
 298 006c 1A70     		strb	r2, [r3]
  68:main.c        ****         /* Sets the first byte of the frame. It identifies the color. */
  69:main.c        ****         if(cmd=='R'){
 299              		.loc 2 69 0
 300 006e 5228     		cmp	r0, #82
 301 0070 02D1     		bne	.L15
  70:main.c        ****             packet[0]=0x00;
 302              		.loc 2 70 0
 303 0072 0022     		movs	r2, #0
 304 0074 1A71     		strb	r2, [r3, #4]
 305 0076 08E0     		b	.L16
 306              	.L15:
  71:main.c        ****         }else if(cmd=='G'){
 307              		.loc 2 71 0
 308 0078 4728     		cmp	r0, #71
 309 007a 03D1     		bne	.L17
  72:main.c        ****             packet[0]=0x01;
 310              		.loc 2 72 0
 311 007c 0122     		movs	r2, #1
 312 007e 0B4B     		ldr	r3, .L20
 313 0080 1A71     		strb	r2, [r3, #4]
 314 0082 02E0     		b	.L16
 315              	.L17:
  73:main.c        ****         }else{
  74:main.c        ****             packet[0]=0x10;
 316              		.loc 2 74 0
 317 0084 1022     		movs	r2, #16
 318 0086 094B     		ldr	r3, .L20
 319 0088 1A71     		strb	r2, [r3, #4]
 320              	.L16:
 321              	.LBB6:
  55:main.c        ****             singleValAux[j]=ledValue[i];
ARM GAS  C:\Users\jagumiel\AppData\Local\Temp\cc9txhYn.s 			page 9


 322              		.loc 2 55 0 discriminator 1
 323 008a 0023     		movs	r3, #0
 324 008c 0022     		movs	r2, #0
 325 008e 04E0     		b	.L18
 326              	.LVL37:
 327              	.L19:
 328              	.LBE6:
 329              	.LBB7:
  75:main.c        ****         }
  76:main.c        ****         for(int j=0; j<3; j++){
  77:main.c        ****             singleValAux[j]=ledValue[i];
 330              		.loc 2 77 0 discriminator 3
 331 0090 A85C     		ldrb	r0, [r5, r2]
 332 0092 01A9     		add	r1, sp, #4
 333 0094 C854     		strb	r0, [r1, r3]
  78:main.c        ****             i++;
 334              		.loc 2 78 0 discriminator 3
 335 0096 0132     		adds	r2, r2, #1
 336              	.LVL38:
  76:main.c        ****             singleValAux[j]=ledValue[i];
 337              		.loc 2 76 0 discriminator 3
 338 0098 0133     		adds	r3, r3, #1
 339              	.LVL39:
 340              	.L18:
  76:main.c        ****             singleValAux[j]=ledValue[i];
 341              		.loc 2 76 0 is_stmt 0 discriminator 1
 342 009a 022B     		cmp	r3, #2
 343 009c F8DD     		ble	.L19
 344              	.LBE7:
  79:main.c        ****         }
  80:main.c        ****         packet[1] = atoi(singleValAux);
 345              		.loc 2 80 0 is_stmt 1
 346 009e 01A8     		add	r0, sp, #4
 347 00a0 FFF7FEFF 		bl	atoi
 348              	.LVL40:
 349 00a4 014B     		ldr	r3, .L20
 350 00a6 5871     		strb	r0, [r3, #5]
 351              	.L6:
  81:main.c        ****         if (packet[1] > 255) packet[1] = 255;
  82:main.c        ****     }
  83:main.c        **** }
 352              		.loc 2 83 0
 353 00a8 03B0     		add	sp, sp, #12
 354              		@ sp needed
 355              	.LVL41:
 356 00aa 30BD     		pop	{r4, r5, pc}
 357              	.L21:
 358              		.align	2
 359              	.L20:
 360 00ac 00000000 		.word	.LANCHOR0
 361              		.cfi_endproc
 362              	.LFE36:
 363              		.size	getResults, .-getResults
 364              		.section	.text.getData,"ax",%progbits
 365              		.align	2
 366              		.global	getData
 367              		.code	16
ARM GAS  C:\Users\jagumiel\AppData\Local\Temp\cc9txhYn.s 			page 10


 368              		.thumb_func
 369              		.type	getData, %function
 370              	getData:
 371              	.LFB37:
  84:main.c        **** 
  85:main.c        **** _Bool getData(){
 372              		.loc 2 85 0
 373              		.cfi_startproc
 374              		@ args = 0, pretend = 0, frame = 16
 375              		@ frame_needed = 0, uses_anonymous_args = 0
 376 0000 70B5     		push	{r4, r5, r6, lr}
 377              		.cfi_def_cfa_offset 16
 378              		.cfi_offset 4, -16
 379              		.cfi_offset 5, -12
 380              		.cfi_offset 6, -8
 381              		.cfi_offset 14, -4
 382 0002 84B0     		sub	sp, sp, #16
 383              		.cfi_def_cfa_offset 32
  86:main.c        **** 	char charCMD;
  87:main.c        **** 	char charData;
  88:main.c        **** 	char cop;
  89:main.c        **** 	char colorData[9];
  90:main.c        **** 	int8 i;
  91:main.c        **** 	
  92:main.c        **** 	charCMD = UART_PC_UartGetChar();    // this command Gets then clears to 0u
 384              		.loc 2 92 0
 385 0004 FFF7FEFF 		bl	UART_PC_UartGetChar
 386              	.LVL42:
 387 0008 C5B2     		uxtb	r5, r0
 388              	.LVL43:
  93:main.c        **** 	i = 0;
  94:main.c        **** 	
  95:main.c        **** 	if (charCMD == 'W' || charCMD == 'R' || charCMD == 'G' || charCMD == 'B'){
 389              		.loc 2 95 0
 390 000a 572D     		cmp	r5, #87
 391 000c 05D0     		beq	.L23
 392              		.loc 2 95 0 is_stmt 0 discriminator 1
 393 000e 522D     		cmp	r5, #82
 394 0010 03D0     		beq	.L23
 395              		.loc 2 95 0 discriminator 2
 396 0012 472D     		cmp	r5, #71
 397 0014 01D0     		beq	.L23
 398              		.loc 2 95 0 discriminator 3
 399 0016 422D     		cmp	r5, #66
 400 0018 36D1     		bne	.L34
 401              	.L23:
  96:main.c        **** 		if (charCMD == 'W'){
 402              		.loc 2 96 0 is_stmt 1
 403 001a 572D     		cmp	r5, #87
 404 001c 01D1     		bne	.L35
  97:main.c        **** 			cop = 'M';  //Multiple Data
 405              		.loc 2 97 0
 406 001e 4D26     		movs	r6, #77
 407 0020 00E0     		b	.L25
 408              	.L35:
  98:main.c        **** 		}else{
  99:main.c        **** 			cop = 'S';  //Single Data		
ARM GAS  C:\Users\jagumiel\AppData\Local\Temp\cc9txhYn.s 			page 11


 409              		.loc 2 99 0
 410 0022 5326     		movs	r6, #83
 411              	.L25:
 100:main.c        **** 		}
 101:main.c        **** 		while (cop != 'X'){
 102:main.c        **** 			charData = UART_PC_UartGetChar();
 103:main.c        **** 			if ((charData != 0u)){
 104:main.c        **** 				/* Only digits will be processed. Any other char will be omitted. */
 105:main.c        **** 				if( charData >= '0' && charData <= '9' ){
 106:main.c        **** 					colorData[i] = charData;
 107:main.c        **** 					i++;
 108:main.c        **** 				}
 109:main.c        **** 			}
 110:main.c        **** 			/* If the array is completed, then the introduced value us printed on screen and the leds are se
 111:main.c        **** 			if ((i==9 && cop=='M') ||(i==3 && cop=='S')){
 112:main.c        **** 				UART_PC_UartPutString(colorData);
 113:main.c        **** 				UART_PC_UartPutChar('\r');
 114:main.c        **** 				UART_PC_UartPutChar('\n');
 115:main.c        **** 				getResults(charCMD, colorData);
 116:main.c        **** 				for(int i=0; i<9; i++)
 117:main.c        **** 					colorData[i] = 0u;
 118:main.c        **** 				cop = 'X';//X means Undefined. Breaks loop condition.
 412              		.loc 2 118 0
 413 0024 0024     		movs	r4, #0
 414 0026 2BE0     		b	.L26
 415              	.LVL44:
 416              	.L33:
 102:main.c        **** 			if ((charData != 0u)){
 417              		.loc 2 102 0
 418 0028 FFF7FEFF 		bl	UART_PC_UartGetChar
 419              	.LVL45:
 420 002c C0B2     		uxtb	r0, r0
 421              	.LVL46:
 103:main.c        **** 				/* Only digits will be processed. Any other char will be omitted. */
 422              		.loc 2 103 0
 423 002e 0028     		cmp	r0, #0
 424 0030 08D0     		beq	.L27
 105:main.c        **** 					colorData[i] = charData;
 425              		.loc 2 105 0
 426 0032 0300     		movs	r3, r0
 427 0034 303B     		subs	r3, r3, #48
 428 0036 DBB2     		uxtb	r3, r3
 429 0038 092B     		cmp	r3, #9
 430 003a 03D8     		bhi	.L27
 106:main.c        **** 					i++;
 431              		.loc 2 106 0
 432 003c 01AB     		add	r3, sp, #4
 433 003e 1855     		strb	r0, [r3, r4]
 107:main.c        **** 				}
 434              		.loc 2 107 0
 435 0040 0134     		adds	r4, r4, #1
 436              	.LVL47:
 437 0042 64B2     		sxtb	r4, r4
 438              	.LVL48:
 439              	.L27:
 111:main.c        **** 				UART_PC_UartPutString(colorData);
 440              		.loc 2 111 0
ARM GAS  C:\Users\jagumiel\AppData\Local\Temp\cc9txhYn.s 			page 12


 441 0044 092C     		cmp	r4, #9
 442 0046 01D1     		bne	.L28
 111:main.c        **** 				UART_PC_UartPutString(colorData);
 443              		.loc 2 111 0 is_stmt 0 discriminator 1
 444 0048 4D2E     		cmp	r6, #77
 445 004a 03D0     		beq	.L29
 446              	.L28:
 111:main.c        **** 				UART_PC_UartPutString(colorData);
 447              		.loc 2 111 0 discriminator 3
 448 004c 032C     		cmp	r4, #3
 449 004e 17D1     		bne	.L26
 111:main.c        **** 				UART_PC_UartPutString(colorData);
 450              		.loc 2 111 0 discriminator 4
 451 0050 532E     		cmp	r6, #83
 452 0052 15D1     		bne	.L26
 453              	.L29:
 112:main.c        **** 				UART_PC_UartPutChar('\r');
 454              		.loc 2 112 0 is_stmt 1
 455 0054 01A8     		add	r0, sp, #4
 456              	.LVL49:
 457 0056 FFF7FEFF 		bl	UART_PC_UartPutString
 458              	.LVL50:
 113:main.c        **** 				UART_PC_UartPutChar('\n');
 459              		.loc 2 113 0
 460 005a 0D20     		movs	r0, #13
 461 005c FFF7FEFF 		bl	UART_PC_SpiUartWriteTxData
 462              	.LVL51:
 114:main.c        **** 				getResults(charCMD, colorData);
 463              		.loc 2 114 0
 464 0060 0A20     		movs	r0, #10
 465 0062 FFF7FEFF 		bl	UART_PC_SpiUartWriteTxData
 466              	.LVL52:
 115:main.c        **** 				for(int i=0; i<9; i++)
 467              		.loc 2 115 0
 468 0066 01A9     		add	r1, sp, #4
 469 0068 2800     		movs	r0, r5
 470 006a FFF7FEFF 		bl	getResults
 471              	.LVL53:
 472              	.LBB8:
 116:main.c        **** 					colorData[i] = 0u;
 473              		.loc 2 116 0
 474 006e 0023     		movs	r3, #0
 475 0070 03E0     		b	.L31
 476              	.LVL54:
 477              	.L32:
 117:main.c        **** 				cop = 'X';//X means Undefined. Breaks loop condition.
 478              		.loc 2 117 0 discriminator 3
 479 0072 0021     		movs	r1, #0
 480 0074 01AA     		add	r2, sp, #4
 481 0076 D154     		strb	r1, [r2, r3]
 116:main.c        **** 					colorData[i] = 0u;
 482              		.loc 2 116 0 discriminator 3
 483 0078 0133     		adds	r3, r3, #1
 484              	.LVL55:
 485              	.L31:
 116:main.c        **** 					colorData[i] = 0u;
 486              		.loc 2 116 0 is_stmt 0 discriminator 1
ARM GAS  C:\Users\jagumiel\AppData\Local\Temp\cc9txhYn.s 			page 13


 487 007a 082B     		cmp	r3, #8
 488 007c F9DD     		ble	.L32
 489              	.LBE8:
 490              		.loc 2 118 0 is_stmt 1
 491 007e 5826     		movs	r6, #88
 492              	.LVL56:
 493              	.L26:
 101:main.c        **** 			charData = UART_PC_UartGetChar();
 494              		.loc 2 101 0
 495 0080 582E     		cmp	r6, #88
 496 0082 D1D1     		bne	.L33
 119:main.c        **** 			}
 120:main.c        **** 		}
 121:main.c        **** 		return 1;
 497              		.loc 2 121 0
 498 0084 0120     		movs	r0, #1
 499 0086 00E0     		b	.L24
 500              	.LVL57:
 501              	.L34:
 122:main.c        **** 	}
 123:main.c        ****     return 0;
 502              		.loc 2 123 0
 503 0088 0020     		movs	r0, #0
 504              	.LVL58:
 505              	.L24:
 124:main.c        **** }
 506              		.loc 2 124 0
 507 008a 04B0     		add	sp, sp, #16
 508              		@ sp needed
 509              	.LVL59:
 510 008c 70BD     		pop	{r4, r5, r6, pc}
 511              		.cfi_endproc
 512              	.LFE37:
 513              		.size	getData, .-getData
 514 008e C046     		.section	.text.sendFrame,"ax",%progbits
 515              		.align	2
 516              		.global	sendFrame
 517              		.code	16
 518              		.thumb_func
 519              		.type	sendFrame, %function
 520              	sendFrame:
 521              	.LFB38:
 125:main.c        **** 
 126:main.c        **** void sendFrame(void){
 522              		.loc 2 126 0
 523              		.cfi_startproc
 524              		@ args = 0, pretend = 0, frame = 0
 525              		@ frame_needed = 0, uses_anonymous_args = 0
 526 0000 10B5     		push	{r4, lr}
 527              		.cfi_def_cfa_offset 8
 528              		.cfi_offset 4, -8
 529              		.cfi_offset 14, -4
 127:main.c        ****     UART_MASTER_UartSendBreakBlocking(13);                          // Break
 530              		.loc 2 127 0
 531 0002 0D20     		movs	r0, #13
 532 0004 FFF7FEFF 		bl	UART_MASTER_UartSendBreakBlocking
 533              	.LVL60:
ARM GAS  C:\Users\jagumiel\AppData\Local\Temp\cc9txhYn.s 			page 14


 128:main.c        ****     UART_MASTER_UartPutChar(sync);                                  // Sync (0x55)
 534              		.loc 2 128 0
 535 0008 5520     		movs	r0, #85
 536 000a FFF7FEFF 		bl	UART_MASTER_SpiUartWriteTxData
 537              	.LVL61:
 129:main.c        ****     UART_MASTER_UartPutChar(pid);                                   // Protected ID (PID). Se obtie
 538              		.loc 2 129 0
 539 000e 094B     		ldr	r3, .L39
 540 0010 1878     		ldrb	r0, [r3]
 541 0012 FFF7FEFF 		bl	UART_MASTER_SpiUartWriteTxData
 542              	.LVL62:
 543              	.LBB9:
 130:main.c        ****     for(int i=0; i<8; i++){
 544              		.loc 2 130 0
 545 0016 0024     		movs	r4, #0
 546 0018 05E0     		b	.L37
 547              	.LVL63:
 548              	.L38:
 131:main.c        ****         UART_MASTER_UartPutChar(packet[i]);                         // Command Frame
 549              		.loc 2 131 0 discriminator 3
 550 001a 074B     		ldr	r3, .L39+4
 551 001c 1B19     		adds	r3, r3, r4
 552 001e 1879     		ldrb	r0, [r3, #4]
 553 0020 FFF7FEFF 		bl	UART_MASTER_SpiUartWriteTxData
 554              	.LVL64:
 130:main.c        ****     for(int i=0; i<8; i++){
 555              		.loc 2 130 0 discriminator 3
 556 0024 0134     		adds	r4, r4, #1
 557              	.LVL65:
 558              	.L37:
 130:main.c        ****     for(int i=0; i<8; i++){
 559              		.loc 2 130 0 is_stmt 0 discriminator 1
 560 0026 072C     		cmp	r4, #7
 561 0028 F7DD     		ble	.L38
 562              	.LBE9:
 132:main.c        ****     }
 133:main.c        ****     UART_MASTER_UartPutChar(checksum);                              // Checksum. En LIN 2.2 se obti
 563              		.loc 2 133 0 is_stmt 1
 564 002a 024B     		ldr	r3, .L39
 565 002c 5878     		ldrb	r0, [r3, #1]
 566 002e FFF7FEFF 		bl	UART_MASTER_SpiUartWriteTxData
 567              	.LVL66:
 134:main.c        **** }
 568              		.loc 2 134 0
 569              		@ sp needed
 570              	.LVL67:
 571 0032 10BD     		pop	{r4, pc}
 572              	.L40:
 573              		.align	2
 574              	.L39:
 575 0034 00000000 		.word	.LANCHOR1
 576 0038 00000000 		.word	.LANCHOR0
 577              		.cfi_endproc
 578              	.LFE38:
 579              		.size	sendFrame, .-sendFrame
 580              		.section	.text.main,"ax",%progbits
 581              		.align	2
ARM GAS  C:\Users\jagumiel\AppData\Local\Temp\cc9txhYn.s 			page 15


 582              		.global	main
 583              		.code	16
 584              		.thumb_func
 585              		.type	main, %function
 586              	main:
 587              	.LFB39:
 135:main.c        **** 
 136:main.c        **** 
 137:main.c        **** int main(void){
 588              		.loc 2 137 0
 589              		.cfi_startproc
 590              		@ Volatile: function does not return.
 591              		@ args = 0, pretend = 0, frame = 0
 592              		@ frame_needed = 0, uses_anonymous_args = 0
 593 0000 70B5     		push	{r4, r5, r6, lr}
 594              		.cfi_def_cfa_offset 16
 595              		.cfi_offset 4, -16
 596              		.cfi_offset 5, -12
 597              		.cfi_offset 6, -8
 598              		.cfi_offset 14, -4
 138:main.c        ****     
 139:main.c        ****     /* Enable global interrupts. */
 140:main.c        ****     CyGlobalIntEnable;
 599              		.loc 2 140 0
 600              		.syntax divided
 601              	@ 140 "main.c" 1
 602 0002 62B6     		CPSIE   i
 603              	@ 0 "" 2
 141:main.c        **** 
 142:main.c        ****     /* Start UART/LIN Master */
 143:main.c        ****     UART_MASTER_Start();
 604              		.loc 2 143 0
 605              		.thumb
 606              		.syntax unified
 607 0004 FFF7FEFF 		bl	UART_MASTER_Start
 608              	.LVL68:
 144:main.c        ****     UART_PC_Start();
 609              		.loc 2 144 0
 610 0008 FFF7FEFF 		bl	UART_PC_Start
 611              	.LVL69:
 145:main.c        **** 
 146:main.c        ****     /* Turn off the led */
 147:main.c        ****     LedRed_Write(1);
 612              		.loc 2 147 0
 613 000c 0120     		movs	r0, #1
 614 000e FFF7FEFF 		bl	LedRed_Write
 615              	.LVL70:
 148:main.c        ****     
 149:main.c        ****     UART_PC_UartPutString("Introduce the values for the RGB colors using this pattern: Wrrrgggbbb.\
 616              		.loc 2 149 0
 617 0012 0A48     		ldr	r0, .L44
 618 0014 FFF7FEFF 		bl	UART_PC_UartPutString
 619              	.LVL71:
 620              	.L42:
 150:main.c        **** 
 151:main.c        ****     for (;;){
 152:main.c        ****         /* It is not needed to clean the array before filling it again. */
ARM GAS  C:\Users\jagumiel\AppData\Local\Temp\cc9txhYn.s 			page 16


 153:main.c        ****         /*for(int i=0; i<8; i++){
 154:main.c        ****             packet[i]=0xFF;
 155:main.c        ****         }*/
 156:main.c        ****         if(getData()==1){
 621              		.loc 2 156 0
 622 0018 FFF7FEFF 		bl	getData
 623              	.LVL72:
 624 001c 0028     		cmp	r0, #0
 625 001e FBD0     		beq	.L42
 157:main.c        ****             pid=LIN_PID_Calculator(id);
 626              		.loc 2 157 0
 627 0020 074C     		ldr	r4, .L44+4
 628 0022 2078     		ldrb	r0, [r4]
 629 0024 FFF7FEFF 		bl	LIN_PID_Calculator
 630              	.LVL73:
 631 0028 C0B2     		uxtb	r0, r0
 632 002a 064D     		ldr	r5, .L44+8
 633 002c 2870     		strb	r0, [r5]
 158:main.c        ****             checksum= LIN_Checksum_Calculation(pid, packet);
 634              		.loc 2 158 0
 635 002e 211D     		adds	r1, r4, #4
 636 0030 FFF7FEFF 		bl	LIN_Checksum_Calculation
 637              	.LVL74:
 638 0034 6870     		strb	r0, [r5, #1]
 159:main.c        ****             sendFrame();
 639              		.loc 2 159 0
 640 0036 FFF7FEFF 		bl	sendFrame
 641              	.LVL75:
 642 003a EDE7     		b	.L42
 643              	.L45:
 644              		.align	2
 645              	.L44:
 646 003c 00000000 		.word	.LC3
 647 0040 00000000 		.word	.LANCHOR0
 648 0044 00000000 		.word	.LANCHOR1
 649              		.cfi_endproc
 650              	.LFE39:
 651              		.size	main, .-main
 652              		.global	checksum
 653              		.global	pid
 654              		.global	packet
 655              		.global	id
 656              		.global	sync
 657              		.comm	Sensor_data,8,4
 658              		.section	.rodata
 659              		.type	sync, %object
 660              		.size	sync, 1
 661              	sync:
 662 0000 55       		.byte	85
 663              		.data
 664              		.align	2
 665              		.set	.LANCHOR0,. + 0
 666              		.type	id, %object
 667              		.size	id, 1
 668              	id:
 669 0000 10       		.byte	16
 670 0001 000000   		.space	3
ARM GAS  C:\Users\jagumiel\AppData\Local\Temp\cc9txhYn.s 			page 17


 671              		.type	packet, %object
 672              		.size	packet, 8
 673              	packet:
 674 0004 00       		.byte	0
 675 0005 00       		.byte	0
 676 0006 00       		.byte	0
 677 0007 FF       		.byte	-1
 678 0008 FF       		.byte	-1
 679 0009 FF       		.byte	-1
 680 000a FF       		.byte	-1
 681 000b FF       		.byte	-1
 682              		.section	.rodata.str1.4,"aMS",%progbits,1
 683              		.align	2
 684              	.LC3:
 685 0000 496E7472 		.ascii	"Introduce the values for the RGB colors using this "
 685      6F647563 
 685      65207468 
 685      65207661 
 685      6C756573 
 686 0033 70617474 		.ascii	"pattern: Wrrrgggbbb.\012\015 Example: W255090030\012"
 686      65726E3A 
 686      20577272 
 686      72676767 
 686      6262622E 
 687 005e 0D00     		.ascii	"\015\000"
 688              		.bss
 689              		.set	.LANCHOR1,. + 0
 690              		.type	pid, %object
 691              		.size	pid, 1
 692              	pid:
 693 0000 00       		.space	1
 694              		.type	checksum, %object
 695              		.size	checksum, 1
 696              	checksum:
 697 0001 00       		.space	1
 698              		.text
 699              	.Letext0:
 700              		.file 3 "c:\\program files (x86)\\cypress\\psoc creator\\4.2\\psoc creator\\import\\gnu\\arm\\5.4.
 701              		.file 4 "c:\\program files (x86)\\cypress\\psoc creator\\4.2\\psoc creator\\import\\gnu\\arm\\5.4.
 702              		.file 5 "Generated_Source\\PSoC4/cytypes.h"
 703              		.file 6 "c:\\program files (x86)\\cypress\\psoc creator\\4.2\\psoc creator\\import\\gnu\\arm\\5.4.
 704              		.file 7 "Generated_Source\\PSoC4/UART_PC_SPI_UART.h"
 705              		.file 8 "Generated_Source\\PSoC4/UART_MASTER_SPI_UART.h"
 706              		.file 9 "Generated_Source\\PSoC4/UART_MASTER.h"
 707              		.file 10 "Generated_Source\\PSoC4/UART_PC.h"
 708              		.file 11 "Generated_Source\\PSoC4/LedRed.h"