ARM GAS  C:\Users\jagumiel\AppData\Local\Temp\cc7xDo7w.s 			page 1


   1              		.syntax unified
   2              		.cpu cortex-m0
   3              		.fpu softvfp
   4              		.eabi_attribute 20, 1
   5              		.eabi_attribute 21, 1
   6              		.eabi_attribute 23, 3
   7              		.eabi_attribute 24, 1
   8              		.eabi_attribute 25, 1
   9              		.eabi_attribute 26, 1
  10              		.eabi_attribute 30, 1
  11              		.eabi_attribute 34, 0
  12              		.eabi_attribute 18, 4
  13              		.thumb
  14              		.syntax unified
  15              		.file	"UART_MASTER_UART.c"
  16              		.text
  17              	.Ltext0:
  18              		.cfi_sections	.debug_frame
  19              		.section	.text.UART_MASTER_UartInit,"ax",%progbits
  20              		.align	2
  21              		.global	UART_MASTER_UartInit
  22              		.code	16
  23              		.thumb_func
  24              		.type	UART_MASTER_UartInit, %function
  25              	UART_MASTER_UartInit:
  26              	.LFB0:
  27              		.file 1 "Generated_Source\\PSoC4\\UART_MASTER_UART.c"
   1:Generated_Source\PSoC4/UART_MASTER_UART.c **** /***************************************************************************//**
   2:Generated_Source\PSoC4/UART_MASTER_UART.c **** * \file UART_MASTER_UART.c
   3:Generated_Source\PSoC4/UART_MASTER_UART.c **** * \version 4.0
   4:Generated_Source\PSoC4/UART_MASTER_UART.c **** *
   5:Generated_Source\PSoC4/UART_MASTER_UART.c **** * \brief
   6:Generated_Source\PSoC4/UART_MASTER_UART.c **** *  This file provides the source code to the API for the SCB Component in
   7:Generated_Source\PSoC4/UART_MASTER_UART.c **** *  UART mode.
   8:Generated_Source\PSoC4/UART_MASTER_UART.c **** *
   9:Generated_Source\PSoC4/UART_MASTER_UART.c **** * Note:
  10:Generated_Source\PSoC4/UART_MASTER_UART.c **** *
  11:Generated_Source\PSoC4/UART_MASTER_UART.c **** *******************************************************************************
  12:Generated_Source\PSoC4/UART_MASTER_UART.c **** * \copyright
  13:Generated_Source\PSoC4/UART_MASTER_UART.c **** * Copyright 2013-2017, Cypress Semiconductor Corporation.  All rights reserved.
  14:Generated_Source\PSoC4/UART_MASTER_UART.c **** * You may use this file only in accordance with the license, terms, conditions,
  15:Generated_Source\PSoC4/UART_MASTER_UART.c **** * disclaimers, and limitations in the end user license agreement accompanying
  16:Generated_Source\PSoC4/UART_MASTER_UART.c **** * the software package with which this file was provided.
  17:Generated_Source\PSoC4/UART_MASTER_UART.c **** *******************************************************************************/
  18:Generated_Source\PSoC4/UART_MASTER_UART.c **** 
  19:Generated_Source\PSoC4/UART_MASTER_UART.c **** #include "UART_MASTER_PVT.h"
  20:Generated_Source\PSoC4/UART_MASTER_UART.c **** #include "UART_MASTER_SPI_UART_PVT.h"
  21:Generated_Source\PSoC4/UART_MASTER_UART.c **** #include "cyapicallbacks.h"
  22:Generated_Source\PSoC4/UART_MASTER_UART.c **** 
  23:Generated_Source\PSoC4/UART_MASTER_UART.c **** #if (UART_MASTER_UART_WAKE_ENABLE_CONST && UART_MASTER_UART_RX_WAKEUP_IRQ)
  24:Generated_Source\PSoC4/UART_MASTER_UART.c ****     /**
  25:Generated_Source\PSoC4/UART_MASTER_UART.c ****     * \addtogroup group_globals
  26:Generated_Source\PSoC4/UART_MASTER_UART.c ****     * \{
  27:Generated_Source\PSoC4/UART_MASTER_UART.c ****     */
  28:Generated_Source\PSoC4/UART_MASTER_UART.c ****     /** This global variable determines whether to enable Skip Start
  29:Generated_Source\PSoC4/UART_MASTER_UART.c ****     * functionality when UART_MASTER_Sleep() function is called:
  30:Generated_Source\PSoC4/UART_MASTER_UART.c ****     * 0 – disable, other values – enable. Default value is 1.
ARM GAS  C:\Users\jagumiel\AppData\Local\Temp\cc7xDo7w.s 			page 2


  31:Generated_Source\PSoC4/UART_MASTER_UART.c ****     * It is only available when Enable wakeup from Deep Sleep Mode is enabled.
  32:Generated_Source\PSoC4/UART_MASTER_UART.c ****     */
  33:Generated_Source\PSoC4/UART_MASTER_UART.c ****     uint8 UART_MASTER_skipStart = 1u;
  34:Generated_Source\PSoC4/UART_MASTER_UART.c ****     /** \} globals */
  35:Generated_Source\PSoC4/UART_MASTER_UART.c **** #endif /* (UART_MASTER_UART_WAKE_ENABLE_CONST && UART_MASTER_UART_RX_WAKEUP_IRQ) */
  36:Generated_Source\PSoC4/UART_MASTER_UART.c **** 
  37:Generated_Source\PSoC4/UART_MASTER_UART.c **** #if(UART_MASTER_SCB_MODE_UNCONFIG_CONST_CFG)
  38:Generated_Source\PSoC4/UART_MASTER_UART.c **** 
  39:Generated_Source\PSoC4/UART_MASTER_UART.c ****     /***************************************
  40:Generated_Source\PSoC4/UART_MASTER_UART.c ****     *  Configuration Structure Initialization
  41:Generated_Source\PSoC4/UART_MASTER_UART.c ****     ***************************************/
  42:Generated_Source\PSoC4/UART_MASTER_UART.c **** 
  43:Generated_Source\PSoC4/UART_MASTER_UART.c ****     const UART_MASTER_UART_INIT_STRUCT UART_MASTER_configUart =
  44:Generated_Source\PSoC4/UART_MASTER_UART.c ****     {
  45:Generated_Source\PSoC4/UART_MASTER_UART.c ****         UART_MASTER_UART_SUB_MODE,
  46:Generated_Source\PSoC4/UART_MASTER_UART.c ****         UART_MASTER_UART_DIRECTION,
  47:Generated_Source\PSoC4/UART_MASTER_UART.c ****         UART_MASTER_UART_DATA_BITS_NUM,
  48:Generated_Source\PSoC4/UART_MASTER_UART.c ****         UART_MASTER_UART_PARITY_TYPE,
  49:Generated_Source\PSoC4/UART_MASTER_UART.c ****         UART_MASTER_UART_STOP_BITS_NUM,
  50:Generated_Source\PSoC4/UART_MASTER_UART.c ****         UART_MASTER_UART_OVS_FACTOR,
  51:Generated_Source\PSoC4/UART_MASTER_UART.c ****         UART_MASTER_UART_IRDA_LOW_POWER,
  52:Generated_Source\PSoC4/UART_MASTER_UART.c ****         UART_MASTER_UART_MEDIAN_FILTER_ENABLE,
  53:Generated_Source\PSoC4/UART_MASTER_UART.c ****         UART_MASTER_UART_RETRY_ON_NACK,
  54:Generated_Source\PSoC4/UART_MASTER_UART.c ****         UART_MASTER_UART_IRDA_POLARITY,
  55:Generated_Source\PSoC4/UART_MASTER_UART.c ****         UART_MASTER_UART_DROP_ON_PARITY_ERR,
  56:Generated_Source\PSoC4/UART_MASTER_UART.c ****         UART_MASTER_UART_DROP_ON_FRAME_ERR,
  57:Generated_Source\PSoC4/UART_MASTER_UART.c ****         UART_MASTER_UART_WAKE_ENABLE,
  58:Generated_Source\PSoC4/UART_MASTER_UART.c ****         0u,
  59:Generated_Source\PSoC4/UART_MASTER_UART.c ****         NULL,
  60:Generated_Source\PSoC4/UART_MASTER_UART.c ****         0u,
  61:Generated_Source\PSoC4/UART_MASTER_UART.c ****         NULL,
  62:Generated_Source\PSoC4/UART_MASTER_UART.c ****         UART_MASTER_UART_MP_MODE_ENABLE,
  63:Generated_Source\PSoC4/UART_MASTER_UART.c ****         UART_MASTER_UART_MP_ACCEPT_ADDRESS,
  64:Generated_Source\PSoC4/UART_MASTER_UART.c ****         UART_MASTER_UART_MP_RX_ADDRESS,
  65:Generated_Source\PSoC4/UART_MASTER_UART.c ****         UART_MASTER_UART_MP_RX_ADDRESS_MASK,
  66:Generated_Source\PSoC4/UART_MASTER_UART.c ****         (uint32) UART_MASTER_SCB_IRQ_INTERNAL,
  67:Generated_Source\PSoC4/UART_MASTER_UART.c ****         UART_MASTER_UART_INTR_RX_MASK,
  68:Generated_Source\PSoC4/UART_MASTER_UART.c ****         UART_MASTER_UART_RX_TRIGGER_LEVEL,
  69:Generated_Source\PSoC4/UART_MASTER_UART.c ****         UART_MASTER_UART_INTR_TX_MASK,
  70:Generated_Source\PSoC4/UART_MASTER_UART.c ****         UART_MASTER_UART_TX_TRIGGER_LEVEL,
  71:Generated_Source\PSoC4/UART_MASTER_UART.c ****         (uint8) UART_MASTER_UART_BYTE_MODE_ENABLE,
  72:Generated_Source\PSoC4/UART_MASTER_UART.c ****         (uint8) UART_MASTER_UART_CTS_ENABLE,
  73:Generated_Source\PSoC4/UART_MASTER_UART.c ****         (uint8) UART_MASTER_UART_CTS_POLARITY,
  74:Generated_Source\PSoC4/UART_MASTER_UART.c ****         (uint8) UART_MASTER_UART_RTS_POLARITY,
  75:Generated_Source\PSoC4/UART_MASTER_UART.c ****         (uint8) UART_MASTER_UART_RTS_FIFO_LEVEL,
  76:Generated_Source\PSoC4/UART_MASTER_UART.c ****         (uint8) UART_MASTER_UART_RX_BREAK_WIDTH
  77:Generated_Source\PSoC4/UART_MASTER_UART.c ****     };
  78:Generated_Source\PSoC4/UART_MASTER_UART.c **** 
  79:Generated_Source\PSoC4/UART_MASTER_UART.c **** 
  80:Generated_Source\PSoC4/UART_MASTER_UART.c ****     /*******************************************************************************
  81:Generated_Source\PSoC4/UART_MASTER_UART.c ****     * Function Name: UART_MASTER_UartInit
  82:Generated_Source\PSoC4/UART_MASTER_UART.c ****     ****************************************************************************//**
  83:Generated_Source\PSoC4/UART_MASTER_UART.c ****     *
  84:Generated_Source\PSoC4/UART_MASTER_UART.c ****     *  Configures the UART_MASTER for UART operation.
  85:Generated_Source\PSoC4/UART_MASTER_UART.c ****     *
  86:Generated_Source\PSoC4/UART_MASTER_UART.c ****     *  This function is intended specifically to be used when the UART_MASTER
  87:Generated_Source\PSoC4/UART_MASTER_UART.c ****     *  configuration is set to “Unconfigured UART_MASTER” in the customizer.
ARM GAS  C:\Users\jagumiel\AppData\Local\Temp\cc7xDo7w.s 			page 3


  88:Generated_Source\PSoC4/UART_MASTER_UART.c ****     *  After initializing the UART_MASTER in UART mode using this function,
  89:Generated_Source\PSoC4/UART_MASTER_UART.c ****     *  the component can be enabled using the UART_MASTER_Start() or
  90:Generated_Source\PSoC4/UART_MASTER_UART.c ****     * UART_MASTER_Enable() function.
  91:Generated_Source\PSoC4/UART_MASTER_UART.c ****     *  This function uses a pointer to a structure that provides the configuration
  92:Generated_Source\PSoC4/UART_MASTER_UART.c ****     *  settings. This structure contains the same information that would otherwise
  93:Generated_Source\PSoC4/UART_MASTER_UART.c ****     *  be provided by the customizer settings.
  94:Generated_Source\PSoC4/UART_MASTER_UART.c ****     *
  95:Generated_Source\PSoC4/UART_MASTER_UART.c ****     *  \param config: pointer to a structure that contains the following list of
  96:Generated_Source\PSoC4/UART_MASTER_UART.c ****     *   fields. These fields match the selections available in the customizer.
  97:Generated_Source\PSoC4/UART_MASTER_UART.c ****     *   Refer to the customizer for further description of the settings.
  98:Generated_Source\PSoC4/UART_MASTER_UART.c ****     *
  99:Generated_Source\PSoC4/UART_MASTER_UART.c ****     *******************************************************************************/
 100:Generated_Source\PSoC4/UART_MASTER_UART.c ****     void UART_MASTER_UartInit(const UART_MASTER_UART_INIT_STRUCT *config)
 101:Generated_Source\PSoC4/UART_MASTER_UART.c ****     {
 102:Generated_Source\PSoC4/UART_MASTER_UART.c ****         uint32 pinsConfig;
 103:Generated_Source\PSoC4/UART_MASTER_UART.c **** 
 104:Generated_Source\PSoC4/UART_MASTER_UART.c ****         if (NULL == config)
 105:Generated_Source\PSoC4/UART_MASTER_UART.c ****         {
 106:Generated_Source\PSoC4/UART_MASTER_UART.c ****             CYASSERT(0u != 0u); /* Halt execution due to bad function parameter */
 107:Generated_Source\PSoC4/UART_MASTER_UART.c ****         }
 108:Generated_Source\PSoC4/UART_MASTER_UART.c ****         else
 109:Generated_Source\PSoC4/UART_MASTER_UART.c ****         {
 110:Generated_Source\PSoC4/UART_MASTER_UART.c ****             /* Get direction to configure UART pins: TX, RX or TX+RX */
 111:Generated_Source\PSoC4/UART_MASTER_UART.c ****             pinsConfig  = config->direction;
 112:Generated_Source\PSoC4/UART_MASTER_UART.c **** 
 113:Generated_Source\PSoC4/UART_MASTER_UART.c ****         #if !(UART_MASTER_CY_SCBIP_V0 || UART_MASTER_CY_SCBIP_V1)
 114:Generated_Source\PSoC4/UART_MASTER_UART.c ****             /* Add RTS and CTS pins to configure */
 115:Generated_Source\PSoC4/UART_MASTER_UART.c ****             pinsConfig |= (0u != config->rtsRxFifoLevel) ? (UART_MASTER_UART_RTS_PIN_ENABLE) : (0u)
 116:Generated_Source\PSoC4/UART_MASTER_UART.c ****             pinsConfig |= (0u != config->enableCts)      ? (UART_MASTER_UART_CTS_PIN_ENABLE) : (0u)
 117:Generated_Source\PSoC4/UART_MASTER_UART.c ****         #endif /* !(UART_MASTER_CY_SCBIP_V0 || UART_MASTER_CY_SCBIP_V1) */
 118:Generated_Source\PSoC4/UART_MASTER_UART.c **** 
 119:Generated_Source\PSoC4/UART_MASTER_UART.c ****             /* Configure pins */
 120:Generated_Source\PSoC4/UART_MASTER_UART.c ****             UART_MASTER_SetPins(UART_MASTER_SCB_MODE_UART, config->mode, pinsConfig);
 121:Generated_Source\PSoC4/UART_MASTER_UART.c **** 
 122:Generated_Source\PSoC4/UART_MASTER_UART.c ****             /* Store internal configuration */
 123:Generated_Source\PSoC4/UART_MASTER_UART.c ****             UART_MASTER_scbMode       = (uint8) UART_MASTER_SCB_MODE_UART;
 124:Generated_Source\PSoC4/UART_MASTER_UART.c ****             UART_MASTER_scbEnableWake = (uint8) config->enableWake;
 125:Generated_Source\PSoC4/UART_MASTER_UART.c ****             UART_MASTER_scbEnableIntr = (uint8) config->enableInterrupt;
 126:Generated_Source\PSoC4/UART_MASTER_UART.c **** 
 127:Generated_Source\PSoC4/UART_MASTER_UART.c ****             /* Set RX direction internal variables */
 128:Generated_Source\PSoC4/UART_MASTER_UART.c ****             UART_MASTER_rxBuffer      =         config->rxBuffer;
 129:Generated_Source\PSoC4/UART_MASTER_UART.c ****             UART_MASTER_rxDataBits    = (uint8) config->dataBits;
 130:Generated_Source\PSoC4/UART_MASTER_UART.c ****             UART_MASTER_rxBufferSize  =         config->rxBufferSize;
 131:Generated_Source\PSoC4/UART_MASTER_UART.c **** 
 132:Generated_Source\PSoC4/UART_MASTER_UART.c ****             /* Set TX direction internal variables */
 133:Generated_Source\PSoC4/UART_MASTER_UART.c ****             UART_MASTER_txBuffer      =         config->txBuffer;
 134:Generated_Source\PSoC4/UART_MASTER_UART.c ****             UART_MASTER_txDataBits    = (uint8) config->dataBits;
 135:Generated_Source\PSoC4/UART_MASTER_UART.c ****             UART_MASTER_txBufferSize  =         config->txBufferSize;
 136:Generated_Source\PSoC4/UART_MASTER_UART.c **** 
 137:Generated_Source\PSoC4/UART_MASTER_UART.c ****             /* Configure UART interface */
 138:Generated_Source\PSoC4/UART_MASTER_UART.c ****             if(UART_MASTER_UART_MODE_IRDA == config->mode)
 139:Generated_Source\PSoC4/UART_MASTER_UART.c ****             {
 140:Generated_Source\PSoC4/UART_MASTER_UART.c ****                 /* OVS settings: IrDA */
 141:Generated_Source\PSoC4/UART_MASTER_UART.c ****                 UART_MASTER_CTRL_REG  = ((0u != config->enableIrdaLowPower) ?
 142:Generated_Source\PSoC4/UART_MASTER_UART.c ****                                                 (UART_MASTER_UART_GET_CTRL_OVS_IRDA_LP(config->over
 143:Generated_Source\PSoC4/UART_MASTER_UART.c ****                                                 (UART_MASTER_CTRL_OVS_IRDA_OVS16));
 144:Generated_Source\PSoC4/UART_MASTER_UART.c ****             }
ARM GAS  C:\Users\jagumiel\AppData\Local\Temp\cc7xDo7w.s 			page 4


 145:Generated_Source\PSoC4/UART_MASTER_UART.c ****             else
 146:Generated_Source\PSoC4/UART_MASTER_UART.c ****             {
 147:Generated_Source\PSoC4/UART_MASTER_UART.c ****                 /* OVS settings: UART and SmartCard */
 148:Generated_Source\PSoC4/UART_MASTER_UART.c ****                 UART_MASTER_CTRL_REG  = UART_MASTER_GET_CTRL_OVS(config->oversample);
 149:Generated_Source\PSoC4/UART_MASTER_UART.c ****             }
 150:Generated_Source\PSoC4/UART_MASTER_UART.c **** 
 151:Generated_Source\PSoC4/UART_MASTER_UART.c ****             UART_MASTER_CTRL_REG     |= UART_MASTER_GET_CTRL_BYTE_MODE  (config->enableByteMode)   
 152:Generated_Source\PSoC4/UART_MASTER_UART.c ****                                              UART_MASTER_GET_CTRL_ADDR_ACCEPT(config->multiprocAcce
 153:Generated_Source\PSoC4/UART_MASTER_UART.c ****                                              UART_MASTER_CTRL_UART;
 154:Generated_Source\PSoC4/UART_MASTER_UART.c **** 
 155:Generated_Source\PSoC4/UART_MASTER_UART.c ****             /* Configure sub-mode: UART, SmartCard or IrDA */
 156:Generated_Source\PSoC4/UART_MASTER_UART.c ****             UART_MASTER_UART_CTRL_REG = UART_MASTER_GET_UART_CTRL_MODE(config->mode);
 157:Generated_Source\PSoC4/UART_MASTER_UART.c **** 
 158:Generated_Source\PSoC4/UART_MASTER_UART.c ****             /* Configure RX direction */
 159:Generated_Source\PSoC4/UART_MASTER_UART.c ****             UART_MASTER_UART_RX_CTRL_REG = UART_MASTER_GET_UART_RX_CTRL_MODE(config->stopBits)     
 160:Generated_Source\PSoC4/UART_MASTER_UART.c ****                                         UART_MASTER_GET_UART_RX_CTRL_POLARITY(config->enableInverte
 161:Generated_Source\PSoC4/UART_MASTER_UART.c ****                                         UART_MASTER_GET_UART_RX_CTRL_MP_MODE(config->enableMultipro
 162:Generated_Source\PSoC4/UART_MASTER_UART.c ****                                         UART_MASTER_GET_UART_RX_CTRL_DROP_ON_PARITY_ERR(config->dro
 163:Generated_Source\PSoC4/UART_MASTER_UART.c ****                                         UART_MASTER_GET_UART_RX_CTRL_DROP_ON_FRAME_ERR(config->drop
 164:Generated_Source\PSoC4/UART_MASTER_UART.c ****                                         UART_MASTER_GET_UART_RX_CTRL_BREAK_WIDTH(config->breakWidth
 165:Generated_Source\PSoC4/UART_MASTER_UART.c **** 
 166:Generated_Source\PSoC4/UART_MASTER_UART.c ****             if(UART_MASTER_UART_PARITY_NONE != config->parity)
 167:Generated_Source\PSoC4/UART_MASTER_UART.c ****             {
 168:Generated_Source\PSoC4/UART_MASTER_UART.c ****                UART_MASTER_UART_RX_CTRL_REG |= UART_MASTER_GET_UART_RX_CTRL_PARITY(config->parity) 
 169:Generated_Source\PSoC4/UART_MASTER_UART.c ****                                                     UART_MASTER_UART_RX_CTRL_PARITY_ENABLED;
 170:Generated_Source\PSoC4/UART_MASTER_UART.c ****             }
 171:Generated_Source\PSoC4/UART_MASTER_UART.c **** 
 172:Generated_Source\PSoC4/UART_MASTER_UART.c ****             UART_MASTER_RX_CTRL_REG      = UART_MASTER_GET_RX_CTRL_DATA_WIDTH(config->dataBits)    
 173:Generated_Source\PSoC4/UART_MASTER_UART.c ****                                                 UART_MASTER_GET_RX_CTRL_MEDIAN(config->enableMedian
 174:Generated_Source\PSoC4/UART_MASTER_UART.c ****                                                 UART_MASTER_GET_UART_RX_CTRL_ENABLED(config->direct
 175:Generated_Source\PSoC4/UART_MASTER_UART.c **** 
 176:Generated_Source\PSoC4/UART_MASTER_UART.c ****             UART_MASTER_RX_FIFO_CTRL_REG = UART_MASTER_GET_RX_FIFO_CTRL_TRIGGER_LEVEL(config->rxTri
 177:Generated_Source\PSoC4/UART_MASTER_UART.c **** 
 178:Generated_Source\PSoC4/UART_MASTER_UART.c ****             /* Configure MP address */
 179:Generated_Source\PSoC4/UART_MASTER_UART.c ****             UART_MASTER_RX_MATCH_REG     = UART_MASTER_GET_RX_MATCH_ADDR(config->multiprocAddr) |
 180:Generated_Source\PSoC4/UART_MASTER_UART.c ****                                                 UART_MASTER_GET_RX_MATCH_MASK(config->multiprocAddr
 181:Generated_Source\PSoC4/UART_MASTER_UART.c **** 
 182:Generated_Source\PSoC4/UART_MASTER_UART.c ****             /* Configure RX direction */
 183:Generated_Source\PSoC4/UART_MASTER_UART.c ****             UART_MASTER_UART_TX_CTRL_REG = UART_MASTER_GET_UART_TX_CTRL_MODE(config->stopBits) |
 184:Generated_Source\PSoC4/UART_MASTER_UART.c ****                                                 UART_MASTER_GET_UART_TX_CTRL_RETRY_NACK(config->ena
 185:Generated_Source\PSoC4/UART_MASTER_UART.c **** 
 186:Generated_Source\PSoC4/UART_MASTER_UART.c ****             if(UART_MASTER_UART_PARITY_NONE != config->parity)
 187:Generated_Source\PSoC4/UART_MASTER_UART.c ****             {
 188:Generated_Source\PSoC4/UART_MASTER_UART.c ****                UART_MASTER_UART_TX_CTRL_REG |= UART_MASTER_GET_UART_TX_CTRL_PARITY(config->parity) 
 189:Generated_Source\PSoC4/UART_MASTER_UART.c ****                                                     UART_MASTER_UART_TX_CTRL_PARITY_ENABLED;
 190:Generated_Source\PSoC4/UART_MASTER_UART.c ****             }
 191:Generated_Source\PSoC4/UART_MASTER_UART.c **** 
 192:Generated_Source\PSoC4/UART_MASTER_UART.c ****             UART_MASTER_TX_CTRL_REG      = UART_MASTER_GET_TX_CTRL_DATA_WIDTH(config->dataBits)    
 193:Generated_Source\PSoC4/UART_MASTER_UART.c ****                                                 UART_MASTER_GET_UART_TX_CTRL_ENABLED(config->direct
 194:Generated_Source\PSoC4/UART_MASTER_UART.c **** 
 195:Generated_Source\PSoC4/UART_MASTER_UART.c ****             UART_MASTER_TX_FIFO_CTRL_REG = UART_MASTER_GET_TX_FIFO_CTRL_TRIGGER_LEVEL(config->txTri
 196:Generated_Source\PSoC4/UART_MASTER_UART.c **** 
 197:Generated_Source\PSoC4/UART_MASTER_UART.c ****         #if !(UART_MASTER_CY_SCBIP_V0 || UART_MASTER_CY_SCBIP_V1)
 198:Generated_Source\PSoC4/UART_MASTER_UART.c ****             UART_MASTER_UART_FLOW_CTRL_REG = UART_MASTER_GET_UART_FLOW_CTRL_CTS_ENABLE(config->enab
 199:Generated_Source\PSoC4/UART_MASTER_UART.c ****                                             UART_MASTER_GET_UART_FLOW_CTRL_CTS_POLARITY (config->ct
 200:Generated_Source\PSoC4/UART_MASTER_UART.c ****                                             UART_MASTER_GET_UART_FLOW_CTRL_RTS_POLARITY (config->rt
 201:Generated_Source\PSoC4/UART_MASTER_UART.c ****                                             UART_MASTER_GET_UART_FLOW_CTRL_TRIGGER_LEVEL(config->rt
ARM GAS  C:\Users\jagumiel\AppData\Local\Temp\cc7xDo7w.s 			page 5


 202:Generated_Source\PSoC4/UART_MASTER_UART.c ****         #endif /* !(UART_MASTER_CY_SCBIP_V0 || UART_MASTER_CY_SCBIP_V1) */
 203:Generated_Source\PSoC4/UART_MASTER_UART.c **** 
 204:Generated_Source\PSoC4/UART_MASTER_UART.c ****             /* Configure interrupt with UART handler but do not enable it */
 205:Generated_Source\PSoC4/UART_MASTER_UART.c ****             CyIntDisable    (UART_MASTER_ISR_NUMBER);
 206:Generated_Source\PSoC4/UART_MASTER_UART.c ****             CyIntSetPriority(UART_MASTER_ISR_NUMBER, UART_MASTER_ISR_PRIORITY);
 207:Generated_Source\PSoC4/UART_MASTER_UART.c ****             (void) CyIntSetVector(UART_MASTER_ISR_NUMBER, &UART_MASTER_SPI_UART_ISR);
 208:Generated_Source\PSoC4/UART_MASTER_UART.c **** 
 209:Generated_Source\PSoC4/UART_MASTER_UART.c ****             /* Configure WAKE interrupt */
 210:Generated_Source\PSoC4/UART_MASTER_UART.c ****         #if(UART_MASTER_UART_RX_WAKEUP_IRQ)
 211:Generated_Source\PSoC4/UART_MASTER_UART.c ****             CyIntDisable    (UART_MASTER_RX_WAKE_ISR_NUMBER);
 212:Generated_Source\PSoC4/UART_MASTER_UART.c ****             CyIntSetPriority(UART_MASTER_RX_WAKE_ISR_NUMBER, UART_MASTER_RX_WAKE_ISR_PRIORITY);
 213:Generated_Source\PSoC4/UART_MASTER_UART.c ****             (void) CyIntSetVector(UART_MASTER_RX_WAKE_ISR_NUMBER, &UART_MASTER_UART_WAKEUP_ISR);
 214:Generated_Source\PSoC4/UART_MASTER_UART.c ****         #endif /* (UART_MASTER_UART_RX_WAKEUP_IRQ) */
 215:Generated_Source\PSoC4/UART_MASTER_UART.c **** 
 216:Generated_Source\PSoC4/UART_MASTER_UART.c ****             /* Configure interrupt sources */
 217:Generated_Source\PSoC4/UART_MASTER_UART.c ****             UART_MASTER_INTR_I2C_EC_MASK_REG = UART_MASTER_NO_INTR_SOURCES;
 218:Generated_Source\PSoC4/UART_MASTER_UART.c ****             UART_MASTER_INTR_SPI_EC_MASK_REG = UART_MASTER_NO_INTR_SOURCES;
 219:Generated_Source\PSoC4/UART_MASTER_UART.c ****             UART_MASTER_INTR_SLAVE_MASK_REG  = UART_MASTER_NO_INTR_SOURCES;
 220:Generated_Source\PSoC4/UART_MASTER_UART.c ****             UART_MASTER_INTR_MASTER_MASK_REG = UART_MASTER_NO_INTR_SOURCES;
 221:Generated_Source\PSoC4/UART_MASTER_UART.c ****             UART_MASTER_INTR_RX_MASK_REG     = config->rxInterruptMask;
 222:Generated_Source\PSoC4/UART_MASTER_UART.c ****             UART_MASTER_INTR_TX_MASK_REG     = config->txInterruptMask;
 223:Generated_Source\PSoC4/UART_MASTER_UART.c **** 
 224:Generated_Source\PSoC4/UART_MASTER_UART.c ****             /* Configure TX interrupt sources to restore. */
 225:Generated_Source\PSoC4/UART_MASTER_UART.c ****             UART_MASTER_IntrTxMask = LO16(UART_MASTER_INTR_TX_MASK_REG);
 226:Generated_Source\PSoC4/UART_MASTER_UART.c **** 
 227:Generated_Source\PSoC4/UART_MASTER_UART.c ****             /* Clear RX buffer indexes */
 228:Generated_Source\PSoC4/UART_MASTER_UART.c ****             UART_MASTER_rxBufferHead     = 0u;
 229:Generated_Source\PSoC4/UART_MASTER_UART.c ****             UART_MASTER_rxBufferTail     = 0u;
 230:Generated_Source\PSoC4/UART_MASTER_UART.c ****             UART_MASTER_rxBufferOverflow = 0u;
 231:Generated_Source\PSoC4/UART_MASTER_UART.c **** 
 232:Generated_Source\PSoC4/UART_MASTER_UART.c ****             /* Clear TX buffer indexes */
 233:Generated_Source\PSoC4/UART_MASTER_UART.c ****             UART_MASTER_txBufferHead = 0u;
 234:Generated_Source\PSoC4/UART_MASTER_UART.c ****             UART_MASTER_txBufferTail = 0u;
 235:Generated_Source\PSoC4/UART_MASTER_UART.c ****         }
 236:Generated_Source\PSoC4/UART_MASTER_UART.c ****     }
 237:Generated_Source\PSoC4/UART_MASTER_UART.c **** 
 238:Generated_Source\PSoC4/UART_MASTER_UART.c **** #else
 239:Generated_Source\PSoC4/UART_MASTER_UART.c **** 
 240:Generated_Source\PSoC4/UART_MASTER_UART.c ****     /*******************************************************************************
 241:Generated_Source\PSoC4/UART_MASTER_UART.c ****     * Function Name: UART_MASTER_UartInit
 242:Generated_Source\PSoC4/UART_MASTER_UART.c ****     ****************************************************************************//**
 243:Generated_Source\PSoC4/UART_MASTER_UART.c ****     *
 244:Generated_Source\PSoC4/UART_MASTER_UART.c ****     *  Configures the SCB for the UART operation.
 245:Generated_Source\PSoC4/UART_MASTER_UART.c ****     *
 246:Generated_Source\PSoC4/UART_MASTER_UART.c ****     *******************************************************************************/
 247:Generated_Source\PSoC4/UART_MASTER_UART.c ****     void UART_MASTER_UartInit(void)
 248:Generated_Source\PSoC4/UART_MASTER_UART.c ****     {
  28              		.loc 1 248 0
  29              		.cfi_startproc
  30              		@ args = 0, pretend = 0, frame = 0
  31              		@ frame_needed = 0, uses_anonymous_args = 0
  32 0000 10B5     		push	{r4, lr}
  33              		.cfi_def_cfa_offset 8
  34              		.cfi_offset 4, -8
  35              		.cfi_offset 14, -4
 249:Generated_Source\PSoC4/UART_MASTER_UART.c ****         /* Configure UART interface */
 250:Generated_Source\PSoC4/UART_MASTER_UART.c ****         UART_MASTER_CTRL_REG = UART_MASTER_UART_DEFAULT_CTRL;
ARM GAS  C:\Users\jagumiel\AppData\Local\Temp\cc7xDo7w.s 			page 6


  36              		.loc 1 250 0
  37 0002 1F4A     		ldr	r2, .L2
  38 0004 1F4B     		ldr	r3, .L2+4
  39 0006 1A60     		str	r2, [r3]
 251:Generated_Source\PSoC4/UART_MASTER_UART.c **** 
 252:Generated_Source\PSoC4/UART_MASTER_UART.c ****         /* Configure sub-mode: UART, SmartCard or IrDA */
 253:Generated_Source\PSoC4/UART_MASTER_UART.c ****         UART_MASTER_UART_CTRL_REG = UART_MASTER_UART_DEFAULT_UART_CTRL;
  40              		.loc 1 253 0
  41 0008 0024     		movs	r4, #0
  42 000a 1F4B     		ldr	r3, .L2+8
  43 000c 1C60     		str	r4, [r3]
 254:Generated_Source\PSoC4/UART_MASTER_UART.c **** 
 255:Generated_Source\PSoC4/UART_MASTER_UART.c ****         /* Configure RX direction */
 256:Generated_Source\PSoC4/UART_MASTER_UART.c ****         UART_MASTER_UART_RX_CTRL_REG = UART_MASTER_UART_DEFAULT_UART_RX_CTRL;
  44              		.loc 1 256 0
  45 000e 1F4A     		ldr	r2, .L2+12
  46 0010 1F4B     		ldr	r3, .L2+16
  47 0012 1A60     		str	r2, [r3]
 257:Generated_Source\PSoC4/UART_MASTER_UART.c ****         UART_MASTER_RX_CTRL_REG      = UART_MASTER_UART_DEFAULT_RX_CTRL;
  48              		.loc 1 257 0
  49 0014 1F4B     		ldr	r3, .L2+20
  50 0016 204A     		ldr	r2, .L2+24
  51 0018 1360     		str	r3, [r2]
 258:Generated_Source\PSoC4/UART_MASTER_UART.c ****         UART_MASTER_RX_FIFO_CTRL_REG = UART_MASTER_UART_DEFAULT_RX_FIFO_CTRL;
  52              		.loc 1 258 0
  53 001a 0721     		movs	r1, #7
  54 001c 1F4A     		ldr	r2, .L2+28
  55 001e 1160     		str	r1, [r2]
 259:Generated_Source\PSoC4/UART_MASTER_UART.c ****         UART_MASTER_RX_MATCH_REG     = UART_MASTER_UART_DEFAULT_RX_MATCH_REG;
  56              		.loc 1 259 0
  57 0020 1F4A     		ldr	r2, .L2+32
  58 0022 1460     		str	r4, [r2]
 260:Generated_Source\PSoC4/UART_MASTER_UART.c **** 
 261:Generated_Source\PSoC4/UART_MASTER_UART.c ****         /* Configure TX direction */
 262:Generated_Source\PSoC4/UART_MASTER_UART.c ****         UART_MASTER_UART_TX_CTRL_REG = UART_MASTER_UART_DEFAULT_UART_TX_CTRL;
  59              		.loc 1 262 0
  60 0024 0639     		subs	r1, r1, #6
  61 0026 1F4A     		ldr	r2, .L2+36
  62 0028 1160     		str	r1, [r2]
 263:Generated_Source\PSoC4/UART_MASTER_UART.c ****         UART_MASTER_TX_CTRL_REG      = UART_MASTER_UART_DEFAULT_TX_CTRL;
  63              		.loc 1 263 0
  64 002a 1F4A     		ldr	r2, .L2+40
  65 002c 1360     		str	r3, [r2]
 264:Generated_Source\PSoC4/UART_MASTER_UART.c ****         UART_MASTER_TX_FIFO_CTRL_REG = UART_MASTER_UART_DEFAULT_TX_FIFO_CTRL;
  66              		.loc 1 264 0
  67 002e 1F4B     		ldr	r3, .L2+44
  68 0030 1C60     		str	r4, [r3]
 265:Generated_Source\PSoC4/UART_MASTER_UART.c **** 
 266:Generated_Source\PSoC4/UART_MASTER_UART.c ****     #if !(UART_MASTER_CY_SCBIP_V0 || UART_MASTER_CY_SCBIP_V1)
 267:Generated_Source\PSoC4/UART_MASTER_UART.c ****         UART_MASTER_UART_FLOW_CTRL_REG = UART_MASTER_UART_DEFAULT_FLOW_CTRL;
 268:Generated_Source\PSoC4/UART_MASTER_UART.c ****     #endif /* !(UART_MASTER_CY_SCBIP_V0 || UART_MASTER_CY_SCBIP_V1) */
 269:Generated_Source\PSoC4/UART_MASTER_UART.c **** 
 270:Generated_Source\PSoC4/UART_MASTER_UART.c ****         /* Configure interrupt with UART handler but do not enable it */
 271:Generated_Source\PSoC4/UART_MASTER_UART.c ****     #if(UART_MASTER_SCB_IRQ_INTERNAL)
 272:Generated_Source\PSoC4/UART_MASTER_UART.c ****         CyIntDisable    (UART_MASTER_ISR_NUMBER);
  69              		.loc 1 272 0
  70 0032 0B20     		movs	r0, #11
ARM GAS  C:\Users\jagumiel\AppData\Local\Temp\cc7xDo7w.s 			page 7


  71 0034 FFF7FEFF 		bl	CyIntDisable
  72              	.LVL0:
 273:Generated_Source\PSoC4/UART_MASTER_UART.c ****         CyIntSetPriority(UART_MASTER_ISR_NUMBER, UART_MASTER_ISR_PRIORITY);
  73              		.loc 1 273 0
  74 0038 0321     		movs	r1, #3
  75 003a 0B20     		movs	r0, #11
  76 003c FFF7FEFF 		bl	CyIntSetPriority
  77              	.LVL1:
 274:Generated_Source\PSoC4/UART_MASTER_UART.c ****         (void) CyIntSetVector(UART_MASTER_ISR_NUMBER, &UART_MASTER_SPI_UART_ISR);
  78              		.loc 1 274 0
  79 0040 1B49     		ldr	r1, .L2+48
  80 0042 0B20     		movs	r0, #11
  81 0044 FFF7FEFF 		bl	CyIntSetVector
  82              	.LVL2:
 275:Generated_Source\PSoC4/UART_MASTER_UART.c ****     #endif /* (UART_MASTER_SCB_IRQ_INTERNAL) */
 276:Generated_Source\PSoC4/UART_MASTER_UART.c **** 
 277:Generated_Source\PSoC4/UART_MASTER_UART.c ****         /* Configure WAKE interrupt */
 278:Generated_Source\PSoC4/UART_MASTER_UART.c ****     #if(UART_MASTER_UART_RX_WAKEUP_IRQ)
 279:Generated_Source\PSoC4/UART_MASTER_UART.c ****         CyIntDisable    (UART_MASTER_RX_WAKE_ISR_NUMBER);
 280:Generated_Source\PSoC4/UART_MASTER_UART.c ****         CyIntSetPriority(UART_MASTER_RX_WAKE_ISR_NUMBER, UART_MASTER_RX_WAKE_ISR_PRIORITY);
 281:Generated_Source\PSoC4/UART_MASTER_UART.c ****         (void) CyIntSetVector(UART_MASTER_RX_WAKE_ISR_NUMBER, &UART_MASTER_UART_WAKEUP_ISR);
 282:Generated_Source\PSoC4/UART_MASTER_UART.c ****     #endif /* (UART_MASTER_UART_RX_WAKEUP_IRQ) */
 283:Generated_Source\PSoC4/UART_MASTER_UART.c **** 
 284:Generated_Source\PSoC4/UART_MASTER_UART.c ****         /* Configure interrupt sources */
 285:Generated_Source\PSoC4/UART_MASTER_UART.c ****         UART_MASTER_INTR_I2C_EC_MASK_REG = UART_MASTER_UART_DEFAULT_INTR_I2C_EC_MASK;
  83              		.loc 1 285 0
  84 0048 1A4B     		ldr	r3, .L2+52
  85 004a 1C60     		str	r4, [r3]
 286:Generated_Source\PSoC4/UART_MASTER_UART.c ****         UART_MASTER_INTR_SPI_EC_MASK_REG = UART_MASTER_UART_DEFAULT_INTR_SPI_EC_MASK;
  86              		.loc 1 286 0
  87 004c 1A4B     		ldr	r3, .L2+56
  88 004e 1C60     		str	r4, [r3]
 287:Generated_Source\PSoC4/UART_MASTER_UART.c ****         UART_MASTER_INTR_SLAVE_MASK_REG  = UART_MASTER_UART_DEFAULT_INTR_SLAVE_MASK;
  89              		.loc 1 287 0
  90 0050 1A4B     		ldr	r3, .L2+60
  91 0052 1C60     		str	r4, [r3]
 288:Generated_Source\PSoC4/UART_MASTER_UART.c ****         UART_MASTER_INTR_MASTER_MASK_REG = UART_MASTER_UART_DEFAULT_INTR_MASTER_MASK;
  92              		.loc 1 288 0
  93 0054 1A4B     		ldr	r3, .L2+64
  94 0056 1C60     		str	r4, [r3]
 289:Generated_Source\PSoC4/UART_MASTER_UART.c ****         UART_MASTER_INTR_RX_MASK_REG     = UART_MASTER_UART_DEFAULT_INTR_RX_MASK;
  95              		.loc 1 289 0
  96 0058 0422     		movs	r2, #4
  97 005a 1A4B     		ldr	r3, .L2+68
  98 005c 1A60     		str	r2, [r3]
 290:Generated_Source\PSoC4/UART_MASTER_UART.c ****         UART_MASTER_INTR_TX_MASK_REG     = UART_MASTER_UART_DEFAULT_INTR_TX_MASK;
  99              		.loc 1 290 0
 100 005e 1A4B     		ldr	r3, .L2+72
 101 0060 1C60     		str	r4, [r3]
 291:Generated_Source\PSoC4/UART_MASTER_UART.c **** 
 292:Generated_Source\PSoC4/UART_MASTER_UART.c ****         /* Configure TX interrupt sources to restore. */
 293:Generated_Source\PSoC4/UART_MASTER_UART.c ****         UART_MASTER_IntrTxMask = LO16(UART_MASTER_INTR_TX_MASK_REG);
 102              		.loc 1 293 0
 103 0062 1A68     		ldr	r2, [r3]
 104 0064 194B     		ldr	r3, .L2+76
 105 0066 1A80     		strh	r2, [r3]
 294:Generated_Source\PSoC4/UART_MASTER_UART.c **** 
ARM GAS  C:\Users\jagumiel\AppData\Local\Temp\cc7xDo7w.s 			page 8


 295:Generated_Source\PSoC4/UART_MASTER_UART.c ****     #if(UART_MASTER_INTERNAL_RX_SW_BUFFER_CONST)
 296:Generated_Source\PSoC4/UART_MASTER_UART.c ****         UART_MASTER_rxBufferHead     = 0u;
 106              		.loc 1 296 0
 107 0068 194B     		ldr	r3, .L2+80
 108 006a 1C60     		str	r4, [r3]
 297:Generated_Source\PSoC4/UART_MASTER_UART.c ****         UART_MASTER_rxBufferTail     = 0u;
 109              		.loc 1 297 0
 110 006c 194B     		ldr	r3, .L2+84
 111 006e 1C60     		str	r4, [r3]
 298:Generated_Source\PSoC4/UART_MASTER_UART.c ****         UART_MASTER_rxBufferOverflow = 0u;
 112              		.loc 1 298 0
 113 0070 194B     		ldr	r3, .L2+88
 114 0072 1C70     		strb	r4, [r3]
 299:Generated_Source\PSoC4/UART_MASTER_UART.c ****     #endif /* (UART_MASTER_INTERNAL_RX_SW_BUFFER_CONST) */
 300:Generated_Source\PSoC4/UART_MASTER_UART.c **** 
 301:Generated_Source\PSoC4/UART_MASTER_UART.c ****     #if(UART_MASTER_INTERNAL_TX_SW_BUFFER_CONST)
 302:Generated_Source\PSoC4/UART_MASTER_UART.c ****         UART_MASTER_txBufferHead = 0u;
 115              		.loc 1 302 0
 116 0074 194B     		ldr	r3, .L2+92
 117 0076 1C60     		str	r4, [r3]
 303:Generated_Source\PSoC4/UART_MASTER_UART.c ****         UART_MASTER_txBufferTail = 0u;
 118              		.loc 1 303 0
 119 0078 194B     		ldr	r3, .L2+96
 120 007a 1C60     		str	r4, [r3]
 304:Generated_Source\PSoC4/UART_MASTER_UART.c ****     #endif /* (UART_MASTER_INTERNAL_TX_SW_BUFFER_CONST) */
 305:Generated_Source\PSoC4/UART_MASTER_UART.c ****     }
 121              		.loc 1 305 0
 122              		@ sp needed
 123 007c 10BD     		pop	{r4, pc}
 124              	.L3:
 125 007e C046     		.align	2
 126              	.L2:
 127 0080 0B000002 		.word	33554443
 128 0084 00000740 		.word	1074200576
 129 0088 40000740 		.word	1074200640
 130 008c 01000A00 		.word	655361
 131 0090 48000740 		.word	1074200648
 132 0094 07000080 		.word	-2147483641
 133 0098 00030740 		.word	1074201344
 134 009c 04030740 		.word	1074201348
 135 00a0 10030740 		.word	1074201360
 136 00a4 44000740 		.word	1074200644
 137 00a8 00020740 		.word	1074201088
 138 00ac 04020740 		.word	1074201092
 139 00b0 00000000 		.word	UART_MASTER_SPI_UART_ISR
 140 00b4 880E0740 		.word	1074204296
 141 00b8 C80E0740 		.word	1074204360
 142 00bc 480F0740 		.word	1074204488
 143 00c0 080F0740 		.word	1074204424
 144 00c4 C80F0740 		.word	1074204616
 145 00c8 880F0740 		.word	1074204552
 146 00cc 00000000 		.word	UART_MASTER_IntrTxMask
 147 00d0 00000000 		.word	UART_MASTER_rxBufferHead
 148 00d4 00000000 		.word	UART_MASTER_rxBufferTail
 149 00d8 00000000 		.word	UART_MASTER_rxBufferOverflow
 150 00dc 00000000 		.word	UART_MASTER_txBufferHead
 151 00e0 00000000 		.word	UART_MASTER_txBufferTail
ARM GAS  C:\Users\jagumiel\AppData\Local\Temp\cc7xDo7w.s 			page 9


 152              		.cfi_endproc
 153              	.LFE0:
 154              		.size	UART_MASTER_UartInit, .-UART_MASTER_UartInit
 155              		.section	.text.UART_MASTER_UartPostEnable,"ax",%progbits
 156              		.align	2
 157              		.global	UART_MASTER_UartPostEnable
 158              		.code	16
 159              		.thumb_func
 160              		.type	UART_MASTER_UartPostEnable, %function
 161              	UART_MASTER_UartPostEnable:
 162              	.LFB1:
 306:Generated_Source\PSoC4/UART_MASTER_UART.c **** #endif /* (UART_MASTER_SCB_MODE_UNCONFIG_CONST_CFG) */
 307:Generated_Source\PSoC4/UART_MASTER_UART.c **** 
 308:Generated_Source\PSoC4/UART_MASTER_UART.c **** 
 309:Generated_Source\PSoC4/UART_MASTER_UART.c **** /*******************************************************************************
 310:Generated_Source\PSoC4/UART_MASTER_UART.c **** * Function Name: UART_MASTER_UartPostEnable
 311:Generated_Source\PSoC4/UART_MASTER_UART.c **** ****************************************************************************//**
 312:Generated_Source\PSoC4/UART_MASTER_UART.c **** *
 313:Generated_Source\PSoC4/UART_MASTER_UART.c **** *  Restores HSIOM settings for the UART output pins (TX and/or RTS) to be
 314:Generated_Source\PSoC4/UART_MASTER_UART.c **** *  controlled by the SCB UART.
 315:Generated_Source\PSoC4/UART_MASTER_UART.c **** *
 316:Generated_Source\PSoC4/UART_MASTER_UART.c **** *******************************************************************************/
 317:Generated_Source\PSoC4/UART_MASTER_UART.c **** void UART_MASTER_UartPostEnable(void)
 318:Generated_Source\PSoC4/UART_MASTER_UART.c **** {
 163              		.loc 1 318 0
 164              		.cfi_startproc
 165              		@ args = 0, pretend = 0, frame = 0
 166              		@ frame_needed = 0, uses_anonymous_args = 0
 167              		@ link register save eliminated.
 319:Generated_Source\PSoC4/UART_MASTER_UART.c **** #if (UART_MASTER_SCB_MODE_UNCONFIG_CONST_CFG)
 320:Generated_Source\PSoC4/UART_MASTER_UART.c ****     #if (UART_MASTER_TX_SDA_MISO_PIN)
 321:Generated_Source\PSoC4/UART_MASTER_UART.c ****         if (UART_MASTER_CHECK_TX_SDA_MISO_PIN_USED)
 322:Generated_Source\PSoC4/UART_MASTER_UART.c ****         {
 323:Generated_Source\PSoC4/UART_MASTER_UART.c ****             /* Set SCB UART to drive the output pin */
 324:Generated_Source\PSoC4/UART_MASTER_UART.c ****             UART_MASTER_SET_HSIOM_SEL(UART_MASTER_TX_SDA_MISO_HSIOM_REG, UART_MASTER_TX_SDA_MISO_HS
 325:Generated_Source\PSoC4/UART_MASTER_UART.c ****                                            UART_MASTER_TX_SDA_MISO_HSIOM_POS, UART_MASTER_TX_SDA_MI
 326:Generated_Source\PSoC4/UART_MASTER_UART.c ****         }
 327:Generated_Source\PSoC4/UART_MASTER_UART.c ****     #endif /* (UART_MASTER_TX_SDA_MISO_PIN_PIN) */
 328:Generated_Source\PSoC4/UART_MASTER_UART.c **** 
 329:Generated_Source\PSoC4/UART_MASTER_UART.c ****     #if !(UART_MASTER_CY_SCBIP_V0 || UART_MASTER_CY_SCBIP_V1)
 330:Generated_Source\PSoC4/UART_MASTER_UART.c ****         #if (UART_MASTER_SS0_PIN)
 331:Generated_Source\PSoC4/UART_MASTER_UART.c ****             if (UART_MASTER_CHECK_SS0_PIN_USED)
 332:Generated_Source\PSoC4/UART_MASTER_UART.c ****             {
 333:Generated_Source\PSoC4/UART_MASTER_UART.c ****                 /* Set SCB UART to drive the output pin */
 334:Generated_Source\PSoC4/UART_MASTER_UART.c ****                 UART_MASTER_SET_HSIOM_SEL(UART_MASTER_SS0_HSIOM_REG, UART_MASTER_SS0_HSIOM_MASK,
 335:Generated_Source\PSoC4/UART_MASTER_UART.c ****                                                UART_MASTER_SS0_HSIOM_POS, UART_MASTER_SS0_HSIOM_SEL
 336:Generated_Source\PSoC4/UART_MASTER_UART.c ****             }
 337:Generated_Source\PSoC4/UART_MASTER_UART.c ****         #endif /* (UART_MASTER_SS0_PIN) */
 338:Generated_Source\PSoC4/UART_MASTER_UART.c ****     #endif /* !(UART_MASTER_CY_SCBIP_V0 || UART_MASTER_CY_SCBIP_V1) */
 339:Generated_Source\PSoC4/UART_MASTER_UART.c **** 
 340:Generated_Source\PSoC4/UART_MASTER_UART.c **** #else
 341:Generated_Source\PSoC4/UART_MASTER_UART.c ****     #if (UART_MASTER_UART_TX_PIN)
 342:Generated_Source\PSoC4/UART_MASTER_UART.c ****          /* Set SCB UART to drive the output pin */
 343:Generated_Source\PSoC4/UART_MASTER_UART.c ****         UART_MASTER_SET_HSIOM_SEL(UART_MASTER_TX_HSIOM_REG, UART_MASTER_TX_HSIOM_MASK,
 168              		.loc 1 343 0
 169 0000 064A     		ldr	r2, .L5
 170 0002 1168     		ldr	r1, [r2]
ARM GAS  C:\Users\jagumiel\AppData\Local\Temp\cc7xDo7w.s 			page 10


 171 0004 064B     		ldr	r3, .L5+4
 172 0006 0B40     		ands	r3, r1
 173 0008 9021     		movs	r1, #144
 174 000a 0904     		lsls	r1, r1, #16
 175 000c 0B43     		orrs	r3, r1
 176 000e 1360     		str	r3, [r2]
 344:Generated_Source\PSoC4/UART_MASTER_UART.c ****                                        UART_MASTER_TX_HSIOM_POS, UART_MASTER_TX_HSIOM_SEL_UART);
 345:Generated_Source\PSoC4/UART_MASTER_UART.c ****     #endif /* (UART_MASTER_UART_TX_PIN) */
 346:Generated_Source\PSoC4/UART_MASTER_UART.c **** 
 347:Generated_Source\PSoC4/UART_MASTER_UART.c ****     #if (UART_MASTER_UART_RTS_PIN)
 348:Generated_Source\PSoC4/UART_MASTER_UART.c ****         /* Set SCB UART to drive the output pin */
 349:Generated_Source\PSoC4/UART_MASTER_UART.c ****         UART_MASTER_SET_HSIOM_SEL(UART_MASTER_RTS_HSIOM_REG, UART_MASTER_RTS_HSIOM_MASK,
 350:Generated_Source\PSoC4/UART_MASTER_UART.c ****                                        UART_MASTER_RTS_HSIOM_POS, UART_MASTER_RTS_HSIOM_SEL_UART);
 351:Generated_Source\PSoC4/UART_MASTER_UART.c ****     #endif /* (UART_MASTER_UART_RTS_PIN) */
 352:Generated_Source\PSoC4/UART_MASTER_UART.c **** #endif /* (UART_MASTER_SCB_MODE_UNCONFIG_CONST_CFG) */
 353:Generated_Source\PSoC4/UART_MASTER_UART.c **** 
 354:Generated_Source\PSoC4/UART_MASTER_UART.c ****     /* Restore TX interrupt sources. */
 355:Generated_Source\PSoC4/UART_MASTER_UART.c ****     UART_MASTER_SetTxInterruptMode(UART_MASTER_IntrTxMask);
 177              		.loc 1 355 0
 178 0010 044B     		ldr	r3, .L5+8
 179 0012 1A88     		ldrh	r2, [r3]
 180 0014 044B     		ldr	r3, .L5+12
 181 0016 1A60     		str	r2, [r3]
 356:Generated_Source\PSoC4/UART_MASTER_UART.c **** }
 182              		.loc 1 356 0
 183              		@ sp needed
 184 0018 7047     		bx	lr
 185              	.L6:
 186 001a C046     		.align	2
 187              	.L5:
 188 001c 00000140 		.word	1073807360
 189 0020 FFFF0FFF 		.word	-15728641
 190 0024 00000000 		.word	UART_MASTER_IntrTxMask
 191 0028 880F0740 		.word	1074204552
 192              		.cfi_endproc
 193              	.LFE1:
 194              		.size	UART_MASTER_UartPostEnable, .-UART_MASTER_UartPostEnable
 195              		.section	.text.UART_MASTER_UartStop,"ax",%progbits
 196              		.align	2
 197              		.global	UART_MASTER_UartStop
 198              		.code	16
 199              		.thumb_func
 200              		.type	UART_MASTER_UartStop, %function
 201              	UART_MASTER_UartStop:
 202              	.LFB2:
 357:Generated_Source\PSoC4/UART_MASTER_UART.c **** 
 358:Generated_Source\PSoC4/UART_MASTER_UART.c **** 
 359:Generated_Source\PSoC4/UART_MASTER_UART.c **** /*******************************************************************************
 360:Generated_Source\PSoC4/UART_MASTER_UART.c **** * Function Name: UART_MASTER_UartStop
 361:Generated_Source\PSoC4/UART_MASTER_UART.c **** ****************************************************************************//**
 362:Generated_Source\PSoC4/UART_MASTER_UART.c **** *
 363:Generated_Source\PSoC4/UART_MASTER_UART.c **** *  Changes the HSIOM settings for the UART output pins (TX and/or RTS) to keep
 364:Generated_Source\PSoC4/UART_MASTER_UART.c **** *  them inactive after the block is disabled. The output pins are controlled by
 365:Generated_Source\PSoC4/UART_MASTER_UART.c **** *  the GPIO data register. Also, the function disables the skip start feature
 366:Generated_Source\PSoC4/UART_MASTER_UART.c **** *  to not cause it to trigger after the component is enabled.
 367:Generated_Source\PSoC4/UART_MASTER_UART.c **** *
 368:Generated_Source\PSoC4/UART_MASTER_UART.c **** *******************************************************************************/
ARM GAS  C:\Users\jagumiel\AppData\Local\Temp\cc7xDo7w.s 			page 11


 369:Generated_Source\PSoC4/UART_MASTER_UART.c **** void UART_MASTER_UartStop(void)
 370:Generated_Source\PSoC4/UART_MASTER_UART.c **** {
 203              		.loc 1 370 0
 204              		.cfi_startproc
 205              		@ args = 0, pretend = 0, frame = 0
 206              		@ frame_needed = 0, uses_anonymous_args = 0
 207              		@ link register save eliminated.
 371:Generated_Source\PSoC4/UART_MASTER_UART.c **** #if(UART_MASTER_SCB_MODE_UNCONFIG_CONST_CFG)
 372:Generated_Source\PSoC4/UART_MASTER_UART.c ****     #if (UART_MASTER_TX_SDA_MISO_PIN)
 373:Generated_Source\PSoC4/UART_MASTER_UART.c ****         if (UART_MASTER_CHECK_TX_SDA_MISO_PIN_USED)
 374:Generated_Source\PSoC4/UART_MASTER_UART.c ****         {
 375:Generated_Source\PSoC4/UART_MASTER_UART.c ****             /* Set GPIO to drive output pin */
 376:Generated_Source\PSoC4/UART_MASTER_UART.c ****             UART_MASTER_SET_HSIOM_SEL(UART_MASTER_TX_SDA_MISO_HSIOM_REG, UART_MASTER_TX_SDA_MISO_HS
 377:Generated_Source\PSoC4/UART_MASTER_UART.c ****                                            UART_MASTER_TX_SDA_MISO_HSIOM_POS, UART_MASTER_TX_SDA_MI
 378:Generated_Source\PSoC4/UART_MASTER_UART.c ****         }
 379:Generated_Source\PSoC4/UART_MASTER_UART.c ****     #endif /* (UART_MASTER_TX_SDA_MISO_PIN_PIN) */
 380:Generated_Source\PSoC4/UART_MASTER_UART.c **** 
 381:Generated_Source\PSoC4/UART_MASTER_UART.c ****     #if !(UART_MASTER_CY_SCBIP_V0 || UART_MASTER_CY_SCBIP_V1)
 382:Generated_Source\PSoC4/UART_MASTER_UART.c ****         #if (UART_MASTER_SS0_PIN)
 383:Generated_Source\PSoC4/UART_MASTER_UART.c ****             if (UART_MASTER_CHECK_SS0_PIN_USED)
 384:Generated_Source\PSoC4/UART_MASTER_UART.c ****             {
 385:Generated_Source\PSoC4/UART_MASTER_UART.c ****                 /* Set output pin state after block is disabled */
 386:Generated_Source\PSoC4/UART_MASTER_UART.c ****                 UART_MASTER_spi_ss0_Write(UART_MASTER_GET_UART_RTS_INACTIVE);
 387:Generated_Source\PSoC4/UART_MASTER_UART.c **** 
 388:Generated_Source\PSoC4/UART_MASTER_UART.c ****                 /* Set GPIO to drive output pin */
 389:Generated_Source\PSoC4/UART_MASTER_UART.c ****                 UART_MASTER_SET_HSIOM_SEL(UART_MASTER_SS0_HSIOM_REG, UART_MASTER_SS0_HSIOM_MASK,
 390:Generated_Source\PSoC4/UART_MASTER_UART.c ****                                                UART_MASTER_SS0_HSIOM_POS, UART_MASTER_SS0_HSIOM_SEL
 391:Generated_Source\PSoC4/UART_MASTER_UART.c ****             }
 392:Generated_Source\PSoC4/UART_MASTER_UART.c ****         #endif /* (UART_MASTER_SS0_PIN) */
 393:Generated_Source\PSoC4/UART_MASTER_UART.c ****     #endif /* !(UART_MASTER_CY_SCBIP_V0 || UART_MASTER_CY_SCBIP_V1) */
 394:Generated_Source\PSoC4/UART_MASTER_UART.c **** 
 395:Generated_Source\PSoC4/UART_MASTER_UART.c **** #else
 396:Generated_Source\PSoC4/UART_MASTER_UART.c ****     #if (UART_MASTER_UART_TX_PIN)
 397:Generated_Source\PSoC4/UART_MASTER_UART.c ****         /* Set GPIO to drive output pin */
 398:Generated_Source\PSoC4/UART_MASTER_UART.c ****         UART_MASTER_SET_HSIOM_SEL(UART_MASTER_TX_HSIOM_REG, UART_MASTER_TX_HSIOM_MASK,
 208              		.loc 1 398 0
 209 0000 064A     		ldr	r2, .L8
 210 0002 1168     		ldr	r1, [r2]
 211 0004 064B     		ldr	r3, .L8+4
 212 0006 0B40     		ands	r3, r1
 213 0008 1360     		str	r3, [r2]
 399:Generated_Source\PSoC4/UART_MASTER_UART.c ****                                        UART_MASTER_TX_HSIOM_POS, UART_MASTER_TX_HSIOM_SEL_GPIO);
 400:Generated_Source\PSoC4/UART_MASTER_UART.c ****     #endif /* (UART_MASTER_UART_TX_PIN) */
 401:Generated_Source\PSoC4/UART_MASTER_UART.c **** 
 402:Generated_Source\PSoC4/UART_MASTER_UART.c ****     #if (UART_MASTER_UART_RTS_PIN)
 403:Generated_Source\PSoC4/UART_MASTER_UART.c ****         /* Set output pin state after block is disabled */
 404:Generated_Source\PSoC4/UART_MASTER_UART.c ****         UART_MASTER_rts_Write(UART_MASTER_GET_UART_RTS_INACTIVE);
 405:Generated_Source\PSoC4/UART_MASTER_UART.c **** 
 406:Generated_Source\PSoC4/UART_MASTER_UART.c ****         /* Set GPIO to drive output pin */
 407:Generated_Source\PSoC4/UART_MASTER_UART.c ****         UART_MASTER_SET_HSIOM_SEL(UART_MASTER_RTS_HSIOM_REG, UART_MASTER_RTS_HSIOM_MASK,
 408:Generated_Source\PSoC4/UART_MASTER_UART.c ****                                        UART_MASTER_RTS_HSIOM_POS, UART_MASTER_RTS_HSIOM_SEL_GPIO);
 409:Generated_Source\PSoC4/UART_MASTER_UART.c ****     #endif /* (UART_MASTER_UART_RTS_PIN) */
 410:Generated_Source\PSoC4/UART_MASTER_UART.c **** 
 411:Generated_Source\PSoC4/UART_MASTER_UART.c **** #endif /* (UART_MASTER_SCB_MODE_UNCONFIG_CONST_CFG) */
 412:Generated_Source\PSoC4/UART_MASTER_UART.c **** 
 413:Generated_Source\PSoC4/UART_MASTER_UART.c **** #if (UART_MASTER_UART_WAKE_ENABLE_CONST)
 414:Generated_Source\PSoC4/UART_MASTER_UART.c ****     /* Disable skip start feature used for wakeup */
ARM GAS  C:\Users\jagumiel\AppData\Local\Temp\cc7xDo7w.s 			page 12


 415:Generated_Source\PSoC4/UART_MASTER_UART.c ****     UART_MASTER_UART_RX_CTRL_REG &= (uint32) ~UART_MASTER_UART_RX_CTRL_SKIP_START;
 416:Generated_Source\PSoC4/UART_MASTER_UART.c **** #endif /* (UART_MASTER_UART_WAKE_ENABLE_CONST) */
 417:Generated_Source\PSoC4/UART_MASTER_UART.c **** 
 418:Generated_Source\PSoC4/UART_MASTER_UART.c ****     /* Store TX interrupt sources (exclude level triggered). */
 419:Generated_Source\PSoC4/UART_MASTER_UART.c ****     UART_MASTER_IntrTxMask = LO16(UART_MASTER_GetTxInterruptMode() & UART_MASTER_INTR_UART_TX_RESTO
 214              		.loc 1 419 0
 215 000a 064B     		ldr	r3, .L8+8
 216 000c 1A68     		ldr	r2, [r3]
 217 000e E423     		movs	r3, #228
 218 0010 DB00     		lsls	r3, r3, #3
 219 0012 1340     		ands	r3, r2
 220 0014 044A     		ldr	r2, .L8+12
 221 0016 1380     		strh	r3, [r2]
 420:Generated_Source\PSoC4/UART_MASTER_UART.c **** }
 222              		.loc 1 420 0
 223              		@ sp needed
 224 0018 7047     		bx	lr
 225              	.L9:
 226 001a C046     		.align	2
 227              	.L8:
 228 001c 00000140 		.word	1073807360
 229 0020 FFFF0FFF 		.word	-15728641
 230 0024 880F0740 		.word	1074204552
 231 0028 00000000 		.word	UART_MASTER_IntrTxMask
 232              		.cfi_endproc
 233              	.LFE2:
 234              		.size	UART_MASTER_UartStop, .-UART_MASTER_UartStop
 235              		.section	.text.UART_MASTER_UartSetRxAddress,"ax",%progbits
 236              		.align	2
 237              		.global	UART_MASTER_UartSetRxAddress
 238              		.code	16
 239              		.thumb_func
 240              		.type	UART_MASTER_UartSetRxAddress, %function
 241              	UART_MASTER_UartSetRxAddress:
 242              	.LFB3:
 421:Generated_Source\PSoC4/UART_MASTER_UART.c **** 
 422:Generated_Source\PSoC4/UART_MASTER_UART.c **** 
 423:Generated_Source\PSoC4/UART_MASTER_UART.c **** /*******************************************************************************
 424:Generated_Source\PSoC4/UART_MASTER_UART.c **** * Function Name: UART_MASTER_UartSetRxAddress
 425:Generated_Source\PSoC4/UART_MASTER_UART.c **** ****************************************************************************//**
 426:Generated_Source\PSoC4/UART_MASTER_UART.c **** *
 427:Generated_Source\PSoC4/UART_MASTER_UART.c **** *  Sets the hardware detectable receiver address for the UART in the
 428:Generated_Source\PSoC4/UART_MASTER_UART.c **** *  Multiprocessor mode.
 429:Generated_Source\PSoC4/UART_MASTER_UART.c **** *
 430:Generated_Source\PSoC4/UART_MASTER_UART.c **** *  \param address: Address for hardware address detection.
 431:Generated_Source\PSoC4/UART_MASTER_UART.c **** *
 432:Generated_Source\PSoC4/UART_MASTER_UART.c **** *******************************************************************************/
 433:Generated_Source\PSoC4/UART_MASTER_UART.c **** void UART_MASTER_UartSetRxAddress(uint32 address)
 434:Generated_Source\PSoC4/UART_MASTER_UART.c **** {
 243              		.loc 1 434 0
 244              		.cfi_startproc
 245              		@ args = 0, pretend = 0, frame = 0
 246              		@ frame_needed = 0, uses_anonymous_args = 0
 247              		@ link register save eliminated.
 248              	.LVL3:
 435:Generated_Source\PSoC4/UART_MASTER_UART.c ****      uint32 matchReg;
 436:Generated_Source\PSoC4/UART_MASTER_UART.c **** 
ARM GAS  C:\Users\jagumiel\AppData\Local\Temp\cc7xDo7w.s 			page 13


 437:Generated_Source\PSoC4/UART_MASTER_UART.c ****     matchReg = UART_MASTER_RX_MATCH_REG;
 249              		.loc 1 437 0
 250 0000 034A     		ldr	r2, .L11
 251 0002 1368     		ldr	r3, [r2]
 252              	.LVL4:
 438:Generated_Source\PSoC4/UART_MASTER_UART.c **** 
 439:Generated_Source\PSoC4/UART_MASTER_UART.c ****     matchReg &= ((uint32) ~UART_MASTER_RX_MATCH_ADDR_MASK); /* Clear address bits */
 253              		.loc 1 439 0
 254 0004 FF21     		movs	r1, #255
 255 0006 8B43     		bics	r3, r1
 256              	.LVL5:
 440:Generated_Source\PSoC4/UART_MASTER_UART.c ****     matchReg |= ((uint32)  (address & UART_MASTER_RX_MATCH_ADDR_MASK)); /* Set address  */
 257              		.loc 1 440 0
 258 0008 0840     		ands	r0, r1
 259              	.LVL6:
 260 000a 1843     		orrs	r0, r3
 261              	.LVL7:
 441:Generated_Source\PSoC4/UART_MASTER_UART.c **** 
 442:Generated_Source\PSoC4/UART_MASTER_UART.c ****     UART_MASTER_RX_MATCH_REG = matchReg;
 262              		.loc 1 442 0
 263 000c 1060     		str	r0, [r2]
 443:Generated_Source\PSoC4/UART_MASTER_UART.c **** }
 264              		.loc 1 443 0
 265              		@ sp needed
 266 000e 7047     		bx	lr
 267              	.L12:
 268              		.align	2
 269              	.L11:
 270 0010 10030740 		.word	1074201360
 271              		.cfi_endproc
 272              	.LFE3:
 273              		.size	UART_MASTER_UartSetRxAddress, .-UART_MASTER_UartSetRxAddress
 274              		.section	.text.UART_MASTER_UartSetRxAddressMask,"ax",%progbits
 275              		.align	2
 276              		.global	UART_MASTER_UartSetRxAddressMask
 277              		.code	16
 278              		.thumb_func
 279              		.type	UART_MASTER_UartSetRxAddressMask, %function
 280              	UART_MASTER_UartSetRxAddressMask:
 281              	.LFB4:
 444:Generated_Source\PSoC4/UART_MASTER_UART.c **** 
 445:Generated_Source\PSoC4/UART_MASTER_UART.c **** 
 446:Generated_Source\PSoC4/UART_MASTER_UART.c **** /*******************************************************************************
 447:Generated_Source\PSoC4/UART_MASTER_UART.c **** * Function Name: UART_MASTER_UartSetRxAddressMask
 448:Generated_Source\PSoC4/UART_MASTER_UART.c **** ****************************************************************************//**
 449:Generated_Source\PSoC4/UART_MASTER_UART.c **** *
 450:Generated_Source\PSoC4/UART_MASTER_UART.c **** *  Sets the hardware address mask for the UART in the Multiprocessor mode.
 451:Generated_Source\PSoC4/UART_MASTER_UART.c **** *
 452:Generated_Source\PSoC4/UART_MASTER_UART.c **** *  \param addressMask: Address mask.
 453:Generated_Source\PSoC4/UART_MASTER_UART.c **** *   - Bit value 0 – excludes bit from address comparison.
 454:Generated_Source\PSoC4/UART_MASTER_UART.c **** *   - Bit value 1 – the bit needs to match with the corresponding bit
 455:Generated_Source\PSoC4/UART_MASTER_UART.c **** *     of the address.
 456:Generated_Source\PSoC4/UART_MASTER_UART.c **** *
 457:Generated_Source\PSoC4/UART_MASTER_UART.c **** *******************************************************************************/
 458:Generated_Source\PSoC4/UART_MASTER_UART.c **** void UART_MASTER_UartSetRxAddressMask(uint32 addressMask)
 459:Generated_Source\PSoC4/UART_MASTER_UART.c **** {
 282              		.loc 1 459 0
ARM GAS  C:\Users\jagumiel\AppData\Local\Temp\cc7xDo7w.s 			page 14


 283              		.cfi_startproc
 284              		@ args = 0, pretend = 0, frame = 0
 285              		@ frame_needed = 0, uses_anonymous_args = 0
 286              		@ link register save eliminated.
 287              	.LVL8:
 460:Generated_Source\PSoC4/UART_MASTER_UART.c ****     uint32 matchReg;
 461:Generated_Source\PSoC4/UART_MASTER_UART.c **** 
 462:Generated_Source\PSoC4/UART_MASTER_UART.c ****     matchReg = UART_MASTER_RX_MATCH_REG;
 288              		.loc 1 462 0
 289 0000 034A     		ldr	r2, .L14
 290 0002 1168     		ldr	r1, [r2]
 291              	.LVL9:
 463:Generated_Source\PSoC4/UART_MASTER_UART.c **** 
 464:Generated_Source\PSoC4/UART_MASTER_UART.c ****     matchReg &= ((uint32) ~UART_MASTER_RX_MATCH_MASK_MASK); /* Clear address mask bits */
 292              		.loc 1 464 0
 293 0004 034B     		ldr	r3, .L14+4
 294 0006 0B40     		ands	r3, r1
 295              	.LVL10:
 465:Generated_Source\PSoC4/UART_MASTER_UART.c ****     matchReg |= ((uint32) (addressMask << UART_MASTER_RX_MATCH_MASK_POS));
 296              		.loc 1 465 0
 297 0008 0004     		lsls	r0, r0, #16
 298              	.LVL11:
 299 000a 1843     		orrs	r0, r3
 300              	.LVL12:
 466:Generated_Source\PSoC4/UART_MASTER_UART.c **** 
 467:Generated_Source\PSoC4/UART_MASTER_UART.c ****     UART_MASTER_RX_MATCH_REG = matchReg;
 301              		.loc 1 467 0
 302 000c 1060     		str	r0, [r2]
 468:Generated_Source\PSoC4/UART_MASTER_UART.c **** }
 303              		.loc 1 468 0
 304              		@ sp needed
 305 000e 7047     		bx	lr
 306              	.L15:
 307              		.align	2
 308              	.L14:
 309 0010 10030740 		.word	1074201360
 310 0014 FFFF00FF 		.word	-16711681
 311              		.cfi_endproc
 312              	.LFE4:
 313              		.size	UART_MASTER_UartSetRxAddressMask, .-UART_MASTER_UartSetRxAddressMask
 314              		.section	.text.UART_MASTER_UartGetChar,"ax",%progbits
 315              		.align	2
 316              		.global	UART_MASTER_UartGetChar
 317              		.code	16
 318              		.thumb_func
 319              		.type	UART_MASTER_UartGetChar, %function
 320              	UART_MASTER_UartGetChar:
 321              	.LFB5:
 469:Generated_Source\PSoC4/UART_MASTER_UART.c **** 
 470:Generated_Source\PSoC4/UART_MASTER_UART.c **** 
 471:Generated_Source\PSoC4/UART_MASTER_UART.c **** #if(UART_MASTER_UART_RX_DIRECTION)
 472:Generated_Source\PSoC4/UART_MASTER_UART.c ****     /*******************************************************************************
 473:Generated_Source\PSoC4/UART_MASTER_UART.c ****     * Function Name: UART_MASTER_UartGetChar
 474:Generated_Source\PSoC4/UART_MASTER_UART.c ****     ****************************************************************************//**
 475:Generated_Source\PSoC4/UART_MASTER_UART.c ****     *
 476:Generated_Source\PSoC4/UART_MASTER_UART.c ****     *  Retrieves next data element from receive buffer.
 477:Generated_Source\PSoC4/UART_MASTER_UART.c ****     *  This function is designed for ASCII characters and returns a char where
ARM GAS  C:\Users\jagumiel\AppData\Local\Temp\cc7xDo7w.s 			page 15


 478:Generated_Source\PSoC4/UART_MASTER_UART.c ****     *  1 to 255 are valid characters and 0 indicates an error occurred or no data
 479:Generated_Source\PSoC4/UART_MASTER_UART.c ****     *  is present.
 480:Generated_Source\PSoC4/UART_MASTER_UART.c ****     *  - RX software buffer is disabled: Returns data element retrieved from RX
 481:Generated_Source\PSoC4/UART_MASTER_UART.c ****     *    FIFO.
 482:Generated_Source\PSoC4/UART_MASTER_UART.c ****     *  - RX software buffer is enabled: Returns data element from the software
 483:Generated_Source\PSoC4/UART_MASTER_UART.c ****     *    receive buffer.
 484:Generated_Source\PSoC4/UART_MASTER_UART.c ****     *
 485:Generated_Source\PSoC4/UART_MASTER_UART.c ****     *  \return
 486:Generated_Source\PSoC4/UART_MASTER_UART.c ****     *   Next data element from the receive buffer. ASCII character values from
 487:Generated_Source\PSoC4/UART_MASTER_UART.c ****     *   1 to 255 are valid. A returned zero signifies an error condition or no
 488:Generated_Source\PSoC4/UART_MASTER_UART.c ****     *   data available.
 489:Generated_Source\PSoC4/UART_MASTER_UART.c ****     *
 490:Generated_Source\PSoC4/UART_MASTER_UART.c ****     *  \sideeffect
 491:Generated_Source\PSoC4/UART_MASTER_UART.c ****     *   The errors bits may not correspond with reading characters due to
 492:Generated_Source\PSoC4/UART_MASTER_UART.c ****     *   RX FIFO and software buffer usage.
 493:Generated_Source\PSoC4/UART_MASTER_UART.c ****     *   RX software buffer is enabled: The internal software buffer overflow
 494:Generated_Source\PSoC4/UART_MASTER_UART.c ****     *   is not treated as an error condition.
 495:Generated_Source\PSoC4/UART_MASTER_UART.c ****     *   Check UART_MASTER_rxBufferOverflow to capture that error condition.
 496:Generated_Source\PSoC4/UART_MASTER_UART.c ****     *
 497:Generated_Source\PSoC4/UART_MASTER_UART.c ****     *******************************************************************************/
 498:Generated_Source\PSoC4/UART_MASTER_UART.c ****     uint32 UART_MASTER_UartGetChar(void)
 499:Generated_Source\PSoC4/UART_MASTER_UART.c ****     {
 322              		.loc 1 499 0
 323              		.cfi_startproc
 324              		@ args = 0, pretend = 0, frame = 0
 325              		@ frame_needed = 0, uses_anonymous_args = 0
 326 0000 10B5     		push	{r4, lr}
 327              		.cfi_def_cfa_offset 8
 328              		.cfi_offset 4, -8
 329              		.cfi_offset 14, -4
 330              	.LVL13:
 500:Generated_Source\PSoC4/UART_MASTER_UART.c ****         uint32 rxData = 0u;
 501:Generated_Source\PSoC4/UART_MASTER_UART.c **** 
 502:Generated_Source\PSoC4/UART_MASTER_UART.c ****         /* Reads data only if there is data to read */
 503:Generated_Source\PSoC4/UART_MASTER_UART.c ****         if (0u != UART_MASTER_SpiUartGetRxBufferSize())
 331              		.loc 1 503 0
 332 0002 FFF7FEFF 		bl	UART_MASTER_SpiUartGetRxBufferSize
 333              	.LVL14:
 334 0006 0028     		cmp	r0, #0
 335 0008 02D0     		beq	.L19
 504:Generated_Source\PSoC4/UART_MASTER_UART.c ****         {
 505:Generated_Source\PSoC4/UART_MASTER_UART.c ****             rxData = UART_MASTER_SpiUartReadRxData();
 336              		.loc 1 505 0
 337 000a FFF7FEFF 		bl	UART_MASTER_SpiUartReadRxData
 338              	.LVL15:
 339 000e 00E0     		b	.L17
 340              	.LVL16:
 341              	.L19:
 500:Generated_Source\PSoC4/UART_MASTER_UART.c ****         uint32 rxData = 0u;
 342              		.loc 1 500 0
 343 0010 0020     		movs	r0, #0
 344              	.LVL17:
 345              	.L17:
 506:Generated_Source\PSoC4/UART_MASTER_UART.c ****         }
 507:Generated_Source\PSoC4/UART_MASTER_UART.c **** 
 508:Generated_Source\PSoC4/UART_MASTER_UART.c ****         if (UART_MASTER_CHECK_INTR_RX(UART_MASTER_INTR_RX_ERR))
 346              		.loc 1 508 0
ARM GAS  C:\Users\jagumiel\AppData\Local\Temp\cc7xDo7w.s 			page 16


 347 0012 054B     		ldr	r3, .L20
 348 0014 1A68     		ldr	r2, [r3]
 349 0016 D823     		movs	r3, #216
 350 0018 9B00     		lsls	r3, r3, #2
 351 001a 1A42     		tst	r2, r3
 352 001c 03D0     		beq	.L18
 353              	.LVL18:
 509:Generated_Source\PSoC4/UART_MASTER_UART.c ****         {
 510:Generated_Source\PSoC4/UART_MASTER_UART.c ****             rxData = 0u; /* Error occurred: returns zero */
 511:Generated_Source\PSoC4/UART_MASTER_UART.c ****             UART_MASTER_ClearRxInterruptSource(UART_MASTER_INTR_RX_ERR);
 354              		.loc 1 511 0
 355 001e 1A00     		movs	r2, r3
 356 0020 014B     		ldr	r3, .L20
 357 0022 1A60     		str	r2, [r3]
 510:Generated_Source\PSoC4/UART_MASTER_UART.c ****             UART_MASTER_ClearRxInterruptSource(UART_MASTER_INTR_RX_ERR);
 358              		.loc 1 510 0
 359 0024 0020     		movs	r0, #0
 360              	.LVL19:
 361              	.L18:
 512:Generated_Source\PSoC4/UART_MASTER_UART.c ****         }
 513:Generated_Source\PSoC4/UART_MASTER_UART.c **** 
 514:Generated_Source\PSoC4/UART_MASTER_UART.c ****         return (rxData);
 515:Generated_Source\PSoC4/UART_MASTER_UART.c ****     }
 362              		.loc 1 515 0
 363              		@ sp needed
 364 0026 10BD     		pop	{r4, pc}
 365              	.L21:
 366              		.align	2
 367              	.L20:
 368 0028 C00F0740 		.word	1074204608
 369              		.cfi_endproc
 370              	.LFE5:
 371              		.size	UART_MASTER_UartGetChar, .-UART_MASTER_UartGetChar
 372              		.section	.text.UART_MASTER_UartGetByte,"ax",%progbits
 373              		.align	2
 374              		.global	UART_MASTER_UartGetByte
 375              		.code	16
 376              		.thumb_func
 377              		.type	UART_MASTER_UartGetByte, %function
 378              	UART_MASTER_UartGetByte:
 379              	.LFB6:
 516:Generated_Source\PSoC4/UART_MASTER_UART.c **** 
 517:Generated_Source\PSoC4/UART_MASTER_UART.c **** 
 518:Generated_Source\PSoC4/UART_MASTER_UART.c ****     /*******************************************************************************
 519:Generated_Source\PSoC4/UART_MASTER_UART.c ****     * Function Name: UART_MASTER_UartGetByte
 520:Generated_Source\PSoC4/UART_MASTER_UART.c ****     ****************************************************************************//**
 521:Generated_Source\PSoC4/UART_MASTER_UART.c ****     *
 522:Generated_Source\PSoC4/UART_MASTER_UART.c ****     *  Retrieves the next data element from the receive buffer, returns the
 523:Generated_Source\PSoC4/UART_MASTER_UART.c ****     *  received byte and error condition.
 524:Generated_Source\PSoC4/UART_MASTER_UART.c ****     *   - The RX software buffer is disabled: returns the data element retrieved
 525:Generated_Source\PSoC4/UART_MASTER_UART.c ****     *     from the RX FIFO. Undefined data will be returned if the RX FIFO is
 526:Generated_Source\PSoC4/UART_MASTER_UART.c ****     *     empty.
 527:Generated_Source\PSoC4/UART_MASTER_UART.c ****     *   - The RX software buffer is enabled: returns data element from the
 528:Generated_Source\PSoC4/UART_MASTER_UART.c ****     *     software receive buffer.
 529:Generated_Source\PSoC4/UART_MASTER_UART.c ****     *
 530:Generated_Source\PSoC4/UART_MASTER_UART.c ****     *  \return
 531:Generated_Source\PSoC4/UART_MASTER_UART.c ****     *   Bits 7-0 contain the next data element from the receive buffer and
ARM GAS  C:\Users\jagumiel\AppData\Local\Temp\cc7xDo7w.s 			page 17


 532:Generated_Source\PSoC4/UART_MASTER_UART.c ****     *   other bits contain the error condition.
 533:Generated_Source\PSoC4/UART_MASTER_UART.c ****     *   - UART_MASTER_UART_RX_OVERFLOW - Attempt to write to a full
 534:Generated_Source\PSoC4/UART_MASTER_UART.c ****     *     receiver FIFO.
 535:Generated_Source\PSoC4/UART_MASTER_UART.c ****     *   - UART_MASTER_UART_RX_UNDERFLOW    Attempt to read from an empty
 536:Generated_Source\PSoC4/UART_MASTER_UART.c ****     *     receiver FIFO.
 537:Generated_Source\PSoC4/UART_MASTER_UART.c ****     *   - UART_MASTER_UART_RX_FRAME_ERROR - UART framing error detected.
 538:Generated_Source\PSoC4/UART_MASTER_UART.c ****     *   - UART_MASTER_UART_RX_PARITY_ERROR - UART parity error detected.
 539:Generated_Source\PSoC4/UART_MASTER_UART.c ****     *
 540:Generated_Source\PSoC4/UART_MASTER_UART.c ****     *  \sideeffect
 541:Generated_Source\PSoC4/UART_MASTER_UART.c ****     *   The errors bits may not correspond with reading characters due to
 542:Generated_Source\PSoC4/UART_MASTER_UART.c ****     *   RX FIFO and software buffer usage.
 543:Generated_Source\PSoC4/UART_MASTER_UART.c ****     *   RX software buffer is enabled: The internal software buffer overflow
 544:Generated_Source\PSoC4/UART_MASTER_UART.c ****     *   is not treated as an error condition.
 545:Generated_Source\PSoC4/UART_MASTER_UART.c ****     *   Check UART_MASTER_rxBufferOverflow to capture that error condition.
 546:Generated_Source\PSoC4/UART_MASTER_UART.c ****     *
 547:Generated_Source\PSoC4/UART_MASTER_UART.c ****     *******************************************************************************/
 548:Generated_Source\PSoC4/UART_MASTER_UART.c ****     uint32 UART_MASTER_UartGetByte(void)
 549:Generated_Source\PSoC4/UART_MASTER_UART.c ****     {
 380              		.loc 1 549 0
 381              		.cfi_startproc
 382              		@ args = 0, pretend = 0, frame = 0
 383              		@ frame_needed = 0, uses_anonymous_args = 0
 384 0000 10B5     		push	{r4, lr}
 385              		.cfi_def_cfa_offset 8
 386              		.cfi_offset 4, -8
 387              		.cfi_offset 14, -4
 550:Generated_Source\PSoC4/UART_MASTER_UART.c ****         uint32 rxData;
 551:Generated_Source\PSoC4/UART_MASTER_UART.c ****         uint32 tmpStatus;
 552:Generated_Source\PSoC4/UART_MASTER_UART.c **** 
 553:Generated_Source\PSoC4/UART_MASTER_UART.c ****         #if (UART_MASTER_CHECK_RX_SW_BUFFER)
 554:Generated_Source\PSoC4/UART_MASTER_UART.c ****         {
 555:Generated_Source\PSoC4/UART_MASTER_UART.c ****             UART_MASTER_DisableInt();
 388              		.loc 1 555 0
 389 0002 0B20     		movs	r0, #11
 390 0004 FFF7FEFF 		bl	CyIntDisable
 391              	.LVL20:
 556:Generated_Source\PSoC4/UART_MASTER_UART.c ****         }
 557:Generated_Source\PSoC4/UART_MASTER_UART.c ****         #endif
 558:Generated_Source\PSoC4/UART_MASTER_UART.c **** 
 559:Generated_Source\PSoC4/UART_MASTER_UART.c ****         if (0u != UART_MASTER_SpiUartGetRxBufferSize())
 392              		.loc 1 559 0
 393 0008 FFF7FEFF 		bl	UART_MASTER_SpiUartGetRxBufferSize
 394              	.LVL21:
 395 000c 0028     		cmp	r0, #0
 396 000e 06D0     		beq	.L23
 560:Generated_Source\PSoC4/UART_MASTER_UART.c ****         {
 561:Generated_Source\PSoC4/UART_MASTER_UART.c ****             /* Enables interrupt to receive more bytes: at least one byte is in
 562:Generated_Source\PSoC4/UART_MASTER_UART.c ****             * buffer.
 563:Generated_Source\PSoC4/UART_MASTER_UART.c ****             */
 564:Generated_Source\PSoC4/UART_MASTER_UART.c ****             #if (UART_MASTER_CHECK_RX_SW_BUFFER)
 565:Generated_Source\PSoC4/UART_MASTER_UART.c ****             {
 566:Generated_Source\PSoC4/UART_MASTER_UART.c ****                 UART_MASTER_EnableInt();
 397              		.loc 1 566 0
 398 0010 0B20     		movs	r0, #11
 399 0012 FFF7FEFF 		bl	CyIntEnable
 400              	.LVL22:
 567:Generated_Source\PSoC4/UART_MASTER_UART.c ****             }
ARM GAS  C:\Users\jagumiel\AppData\Local\Temp\cc7xDo7w.s 			page 18


 568:Generated_Source\PSoC4/UART_MASTER_UART.c ****             #endif
 569:Generated_Source\PSoC4/UART_MASTER_UART.c **** 
 570:Generated_Source\PSoC4/UART_MASTER_UART.c ****             /* Get received byte */
 571:Generated_Source\PSoC4/UART_MASTER_UART.c ****             rxData = UART_MASTER_SpiUartReadRxData();
 401              		.loc 1 571 0
 402 0016 FFF7FEFF 		bl	UART_MASTER_SpiUartReadRxData
 403              	.LVL23:
 404 001a 0400     		movs	r4, r0
 405              	.LVL24:
 406 001c 07E0     		b	.L24
 407              	.LVL25:
 408              	.L23:
 572:Generated_Source\PSoC4/UART_MASTER_UART.c ****         }
 573:Generated_Source\PSoC4/UART_MASTER_UART.c ****         else
 574:Generated_Source\PSoC4/UART_MASTER_UART.c ****         {
 575:Generated_Source\PSoC4/UART_MASTER_UART.c ****             /* Reads a byte directly from RX FIFO: underflow is raised in the
 576:Generated_Source\PSoC4/UART_MASTER_UART.c ****             * case of empty. Otherwise the first received byte will be read.
 577:Generated_Source\PSoC4/UART_MASTER_UART.c ****             */
 578:Generated_Source\PSoC4/UART_MASTER_UART.c ****             rxData = UART_MASTER_RX_FIFO_RD_REG;
 409              		.loc 1 578 0
 410 001e 094B     		ldr	r3, .L25
 411 0020 1C68     		ldr	r4, [r3]
 412              	.LVL26:
 579:Generated_Source\PSoC4/UART_MASTER_UART.c **** 
 580:Generated_Source\PSoC4/UART_MASTER_UART.c **** 
 581:Generated_Source\PSoC4/UART_MASTER_UART.c ****             /* Enables interrupt to receive more bytes. */
 582:Generated_Source\PSoC4/UART_MASTER_UART.c ****             #if (UART_MASTER_CHECK_RX_SW_BUFFER)
 583:Generated_Source\PSoC4/UART_MASTER_UART.c ****             {
 584:Generated_Source\PSoC4/UART_MASTER_UART.c **** 
 585:Generated_Source\PSoC4/UART_MASTER_UART.c ****                 /* The byte has been read from RX FIFO. Clear RX interrupt to
 586:Generated_Source\PSoC4/UART_MASTER_UART.c ****                 * not involve interrupt handler when RX FIFO is empty.
 587:Generated_Source\PSoC4/UART_MASTER_UART.c ****                 */
 588:Generated_Source\PSoC4/UART_MASTER_UART.c ****                 UART_MASTER_ClearRxInterruptSource(UART_MASTER_INTR_RX_NOT_EMPTY);
 413              		.loc 1 588 0
 414 0022 0422     		movs	r2, #4
 415 0024 084B     		ldr	r3, .L25+4
 416 0026 1A60     		str	r2, [r3]
 589:Generated_Source\PSoC4/UART_MASTER_UART.c **** 
 590:Generated_Source\PSoC4/UART_MASTER_UART.c ****                 UART_MASTER_EnableInt();
 417              		.loc 1 590 0
 418 0028 0B20     		movs	r0, #11
 419 002a FFF7FEFF 		bl	CyIntEnable
 420              	.LVL27:
 421              	.L24:
 591:Generated_Source\PSoC4/UART_MASTER_UART.c ****             }
 592:Generated_Source\PSoC4/UART_MASTER_UART.c ****             #endif
 593:Generated_Source\PSoC4/UART_MASTER_UART.c ****         }
 594:Generated_Source\PSoC4/UART_MASTER_UART.c **** 
 595:Generated_Source\PSoC4/UART_MASTER_UART.c ****         /* Get and clear RX error mask */
 596:Generated_Source\PSoC4/UART_MASTER_UART.c ****         tmpStatus = (UART_MASTER_GetRxInterruptSource() & UART_MASTER_INTR_RX_ERR);
 422              		.loc 1 596 0
 423 002e 064B     		ldr	r3, .L25+4
 424 0030 1868     		ldr	r0, [r3]
 425              	.LVL28:
 597:Generated_Source\PSoC4/UART_MASTER_UART.c ****         UART_MASTER_ClearRxInterruptSource(UART_MASTER_INTR_RX_ERR);
 426              		.loc 1 597 0
 427 0032 D822     		movs	r2, #216
ARM GAS  C:\Users\jagumiel\AppData\Local\Temp\cc7xDo7w.s 			page 19


 428 0034 9200     		lsls	r2, r2, #2
 429 0036 1A60     		str	r2, [r3]
 598:Generated_Source\PSoC4/UART_MASTER_UART.c **** 
 599:Generated_Source\PSoC4/UART_MASTER_UART.c ****         /* Puts together data and error status:
 600:Generated_Source\PSoC4/UART_MASTER_UART.c ****         * MP mode and accept address: 9th bit is set to notify mark.
 601:Generated_Source\PSoC4/UART_MASTER_UART.c ****         */
 602:Generated_Source\PSoC4/UART_MASTER_UART.c ****         rxData |= ((uint32) (tmpStatus << 8u));
 430              		.loc 1 602 0
 431 0038 0002     		lsls	r0, r0, #8
 432              	.LVL29:
 433 003a D823     		movs	r3, #216
 434 003c 9B02     		lsls	r3, r3, #10
 435 003e 1840     		ands	r0, r3
 436 0040 2043     		orrs	r0, r4
 437              	.LVL30:
 603:Generated_Source\PSoC4/UART_MASTER_UART.c **** 
 604:Generated_Source\PSoC4/UART_MASTER_UART.c ****         return (rxData);
 605:Generated_Source\PSoC4/UART_MASTER_UART.c ****     }
 438              		.loc 1 605 0
 439              		@ sp needed
 440 0042 10BD     		pop	{r4, pc}
 441              	.L26:
 442              		.align	2
 443              	.L25:
 444 0044 40030740 		.word	1074201408
 445 0048 C00F0740 		.word	1074204608
 446              		.cfi_endproc
 447              	.LFE6:
 448              		.size	UART_MASTER_UartGetByte, .-UART_MASTER_UartGetByte
 449              		.section	.text.UART_MASTER_UartPutString,"ax",%progbits
 450              		.align	2
 451              		.global	UART_MASTER_UartPutString
 452              		.code	16
 453              		.thumb_func
 454              		.type	UART_MASTER_UartPutString, %function
 455              	UART_MASTER_UartPutString:
 456              	.LFB7:
 606:Generated_Source\PSoC4/UART_MASTER_UART.c **** 
 607:Generated_Source\PSoC4/UART_MASTER_UART.c **** 
 608:Generated_Source\PSoC4/UART_MASTER_UART.c ****     #if !(UART_MASTER_CY_SCBIP_V0 || UART_MASTER_CY_SCBIP_V1)
 609:Generated_Source\PSoC4/UART_MASTER_UART.c ****         /*******************************************************************************
 610:Generated_Source\PSoC4/UART_MASTER_UART.c ****         * Function Name: UART_MASTER_UartSetRtsPolarity
 611:Generated_Source\PSoC4/UART_MASTER_UART.c ****         ****************************************************************************//**
 612:Generated_Source\PSoC4/UART_MASTER_UART.c ****         *
 613:Generated_Source\PSoC4/UART_MASTER_UART.c ****         *  Sets active polarity of RTS output signal.
 614:Generated_Source\PSoC4/UART_MASTER_UART.c ****         *  Only available for PSoC 4100 BLE / PSoC 4200 BLE / PSoC 4100M / PSoC 4200M /
 615:Generated_Source\PSoC4/UART_MASTER_UART.c ****         *  PSoC 4200L / PSoC 4000S / PSoC 4100S / PSoC Analog Coprocessor devices.
 616:Generated_Source\PSoC4/UART_MASTER_UART.c ****         *
 617:Generated_Source\PSoC4/UART_MASTER_UART.c ****         *  \param polarity: Active polarity of RTS output signal.
 618:Generated_Source\PSoC4/UART_MASTER_UART.c ****         *   - UART_MASTER_UART_RTS_ACTIVE_LOW  - RTS signal is active low.
 619:Generated_Source\PSoC4/UART_MASTER_UART.c ****         *   - UART_MASTER_UART_RTS_ACTIVE_HIGH - RTS signal is active high.
 620:Generated_Source\PSoC4/UART_MASTER_UART.c ****         *
 621:Generated_Source\PSoC4/UART_MASTER_UART.c ****         *******************************************************************************/
 622:Generated_Source\PSoC4/UART_MASTER_UART.c ****         void UART_MASTER_UartSetRtsPolarity(uint32 polarity)
 623:Generated_Source\PSoC4/UART_MASTER_UART.c ****         {
 624:Generated_Source\PSoC4/UART_MASTER_UART.c ****             if(0u != polarity)
 625:Generated_Source\PSoC4/UART_MASTER_UART.c ****             {
ARM GAS  C:\Users\jagumiel\AppData\Local\Temp\cc7xDo7w.s 			page 20


 626:Generated_Source\PSoC4/UART_MASTER_UART.c ****                 UART_MASTER_UART_FLOW_CTRL_REG |= (uint32)  UART_MASTER_UART_FLOW_CTRL_RTS_POLARITY
 627:Generated_Source\PSoC4/UART_MASTER_UART.c ****             }
 628:Generated_Source\PSoC4/UART_MASTER_UART.c ****             else
 629:Generated_Source\PSoC4/UART_MASTER_UART.c ****             {
 630:Generated_Source\PSoC4/UART_MASTER_UART.c ****                 UART_MASTER_UART_FLOW_CTRL_REG &= (uint32) ~UART_MASTER_UART_FLOW_CTRL_RTS_POLARITY
 631:Generated_Source\PSoC4/UART_MASTER_UART.c ****             }
 632:Generated_Source\PSoC4/UART_MASTER_UART.c ****         }
 633:Generated_Source\PSoC4/UART_MASTER_UART.c **** 
 634:Generated_Source\PSoC4/UART_MASTER_UART.c **** 
 635:Generated_Source\PSoC4/UART_MASTER_UART.c ****         /*******************************************************************************
 636:Generated_Source\PSoC4/UART_MASTER_UART.c ****         * Function Name: UART_MASTER_UartSetRtsFifoLevel
 637:Generated_Source\PSoC4/UART_MASTER_UART.c ****         ****************************************************************************//**
 638:Generated_Source\PSoC4/UART_MASTER_UART.c ****         *
 639:Generated_Source\PSoC4/UART_MASTER_UART.c ****         *  Sets level in the RX FIFO for RTS signal activation.
 640:Generated_Source\PSoC4/UART_MASTER_UART.c ****         *  While the RX FIFO has fewer entries than the RX FIFO level the RTS signal
 641:Generated_Source\PSoC4/UART_MASTER_UART.c ****         *  remains active, otherwise the RTS signal becomes inactive.
 642:Generated_Source\PSoC4/UART_MASTER_UART.c ****         *  Only available for PSoC 4100 BLE / PSoC 4200 BLE / PSoC 4100M / PSoC 4200M /
 643:Generated_Source\PSoC4/UART_MASTER_UART.c ****         *  PSoC 4200L / PSoC 4000S / PSoC 4100S / PSoC Analog Coprocessor devices.
 644:Generated_Source\PSoC4/UART_MASTER_UART.c ****         *
 645:Generated_Source\PSoC4/UART_MASTER_UART.c ****         *  \param level: Level in the RX FIFO for RTS signal activation.
 646:Generated_Source\PSoC4/UART_MASTER_UART.c ****         *   The range of valid level values is between 0 and RX FIFO depth - 1.
 647:Generated_Source\PSoC4/UART_MASTER_UART.c ****         *   Setting level value to 0 disables RTS signal activation.
 648:Generated_Source\PSoC4/UART_MASTER_UART.c ****         *
 649:Generated_Source\PSoC4/UART_MASTER_UART.c ****         *******************************************************************************/
 650:Generated_Source\PSoC4/UART_MASTER_UART.c ****         void UART_MASTER_UartSetRtsFifoLevel(uint32 level)
 651:Generated_Source\PSoC4/UART_MASTER_UART.c ****         {
 652:Generated_Source\PSoC4/UART_MASTER_UART.c ****             uint32 uartFlowCtrl;
 653:Generated_Source\PSoC4/UART_MASTER_UART.c **** 
 654:Generated_Source\PSoC4/UART_MASTER_UART.c ****             uartFlowCtrl = UART_MASTER_UART_FLOW_CTRL_REG;
 655:Generated_Source\PSoC4/UART_MASTER_UART.c **** 
 656:Generated_Source\PSoC4/UART_MASTER_UART.c ****             uartFlowCtrl &= ((uint32) ~UART_MASTER_UART_FLOW_CTRL_TRIGGER_LEVEL_MASK); /* Clear lev
 657:Generated_Source\PSoC4/UART_MASTER_UART.c ****             uartFlowCtrl |= ((uint32) (UART_MASTER_UART_FLOW_CTRL_TRIGGER_LEVEL_MASK & level));
 658:Generated_Source\PSoC4/UART_MASTER_UART.c **** 
 659:Generated_Source\PSoC4/UART_MASTER_UART.c ****             UART_MASTER_UART_FLOW_CTRL_REG = uartFlowCtrl;
 660:Generated_Source\PSoC4/UART_MASTER_UART.c ****         }
 661:Generated_Source\PSoC4/UART_MASTER_UART.c ****     #endif /* !(UART_MASTER_CY_SCBIP_V0 || UART_MASTER_CY_SCBIP_V1) */
 662:Generated_Source\PSoC4/UART_MASTER_UART.c **** 
 663:Generated_Source\PSoC4/UART_MASTER_UART.c **** #endif /* (UART_MASTER_UART_RX_DIRECTION) */
 664:Generated_Source\PSoC4/UART_MASTER_UART.c **** 
 665:Generated_Source\PSoC4/UART_MASTER_UART.c **** 
 666:Generated_Source\PSoC4/UART_MASTER_UART.c **** #if(UART_MASTER_UART_TX_DIRECTION)
 667:Generated_Source\PSoC4/UART_MASTER_UART.c ****     /*******************************************************************************
 668:Generated_Source\PSoC4/UART_MASTER_UART.c ****     * Function Name: UART_MASTER_UartPutString
 669:Generated_Source\PSoC4/UART_MASTER_UART.c ****     ****************************************************************************//**
 670:Generated_Source\PSoC4/UART_MASTER_UART.c ****     *
 671:Generated_Source\PSoC4/UART_MASTER_UART.c ****     *  Places a NULL terminated string in the transmit buffer to be sent at the
 672:Generated_Source\PSoC4/UART_MASTER_UART.c ****     *  next available bus time.
 673:Generated_Source\PSoC4/UART_MASTER_UART.c ****     *  This function is blocking and waits until there is a space available to put
 674:Generated_Source\PSoC4/UART_MASTER_UART.c ****     *  requested data in transmit buffer.
 675:Generated_Source\PSoC4/UART_MASTER_UART.c ****     *
 676:Generated_Source\PSoC4/UART_MASTER_UART.c ****     *  \param string: pointer to the null terminated string array to be placed in the
 677:Generated_Source\PSoC4/UART_MASTER_UART.c ****     *   transmit buffer.
 678:Generated_Source\PSoC4/UART_MASTER_UART.c ****     *
 679:Generated_Source\PSoC4/UART_MASTER_UART.c ****     *******************************************************************************/
 680:Generated_Source\PSoC4/UART_MASTER_UART.c ****     void UART_MASTER_UartPutString(const char8 string[])
 681:Generated_Source\PSoC4/UART_MASTER_UART.c ****     {
 457              		.loc 1 681 0
ARM GAS  C:\Users\jagumiel\AppData\Local\Temp\cc7xDo7w.s 			page 21


 458              		.cfi_startproc
 459              		@ args = 0, pretend = 0, frame = 0
 460              		@ frame_needed = 0, uses_anonymous_args = 0
 461              	.LVL31:
 462 0000 70B5     		push	{r4, r5, r6, lr}
 463              		.cfi_def_cfa_offset 16
 464              		.cfi_offset 4, -16
 465              		.cfi_offset 5, -12
 466              		.cfi_offset 6, -8
 467              		.cfi_offset 14, -4
 468 0002 0500     		movs	r5, r0
 469              	.LVL32:
 682:Generated_Source\PSoC4/UART_MASTER_UART.c ****         uint32 bufIndex;
 683:Generated_Source\PSoC4/UART_MASTER_UART.c **** 
 684:Generated_Source\PSoC4/UART_MASTER_UART.c ****         bufIndex = 0u;
 470              		.loc 1 684 0
 471 0004 0024     		movs	r4, #0
 685:Generated_Source\PSoC4/UART_MASTER_UART.c **** 
 686:Generated_Source\PSoC4/UART_MASTER_UART.c ****         /* Blocks the control flow until all data has been sent */
 687:Generated_Source\PSoC4/UART_MASTER_UART.c ****         while(string[bufIndex] != ((char8) 0))
 472              		.loc 1 687 0
 473 0006 02E0     		b	.L28
 474              	.LVL33:
 475              	.L29:
 688:Generated_Source\PSoC4/UART_MASTER_UART.c ****         {
 689:Generated_Source\PSoC4/UART_MASTER_UART.c ****             UART_MASTER_UartPutChar((uint32) string[bufIndex]);
 476              		.loc 1 689 0
 477 0008 FFF7FEFF 		bl	UART_MASTER_SpiUartWriteTxData
 478              	.LVL34:
 690:Generated_Source\PSoC4/UART_MASTER_UART.c ****             bufIndex++;
 479              		.loc 1 690 0
 480 000c 0134     		adds	r4, r4, #1
 481              	.LVL35:
 482              	.L28:
 687:Generated_Source\PSoC4/UART_MASTER_UART.c ****         {
 483              		.loc 1 687 0
 484 000e 285D     		ldrb	r0, [r5, r4]
 485 0010 0028     		cmp	r0, #0
 486 0012 F9D1     		bne	.L29
 691:Generated_Source\PSoC4/UART_MASTER_UART.c ****         }
 692:Generated_Source\PSoC4/UART_MASTER_UART.c ****     }
 487              		.loc 1 692 0
 488              		@ sp needed
 489              	.LVL36:
 490              	.LVL37:
 491 0014 70BD     		pop	{r4, r5, r6, pc}
 492              		.cfi_endproc
 493              	.LFE7:
 494              		.size	UART_MASTER_UartPutString, .-UART_MASTER_UartPutString
 495 0016 C046     		.section	.text.UART_MASTER_UartPutCRLF,"ax",%progbits
 496              		.align	2
 497              		.global	UART_MASTER_UartPutCRLF
 498              		.code	16
 499              		.thumb_func
 500              		.type	UART_MASTER_UartPutCRLF, %function
 501              	UART_MASTER_UartPutCRLF:
 502              	.LFB8:
ARM GAS  C:\Users\jagumiel\AppData\Local\Temp\cc7xDo7w.s 			page 22


 693:Generated_Source\PSoC4/UART_MASTER_UART.c **** 
 694:Generated_Source\PSoC4/UART_MASTER_UART.c **** 
 695:Generated_Source\PSoC4/UART_MASTER_UART.c ****     /*******************************************************************************
 696:Generated_Source\PSoC4/UART_MASTER_UART.c ****     * Function Name: UART_MASTER_UartPutCRLF
 697:Generated_Source\PSoC4/UART_MASTER_UART.c ****     ****************************************************************************//**
 698:Generated_Source\PSoC4/UART_MASTER_UART.c ****     *
 699:Generated_Source\PSoC4/UART_MASTER_UART.c ****     *  Places byte of data followed by a carriage return (0x0D) and line feed
 700:Generated_Source\PSoC4/UART_MASTER_UART.c ****     *  (0x0A) in the transmit buffer.
 701:Generated_Source\PSoC4/UART_MASTER_UART.c ****     *  This function is blocking and waits until there is a space available to put
 702:Generated_Source\PSoC4/UART_MASTER_UART.c ****     *  all requested data in transmit buffer.
 703:Generated_Source\PSoC4/UART_MASTER_UART.c ****     *
 704:Generated_Source\PSoC4/UART_MASTER_UART.c ****     *  \param txDataByte: the data to be transmitted.
 705:Generated_Source\PSoC4/UART_MASTER_UART.c ****     *
 706:Generated_Source\PSoC4/UART_MASTER_UART.c ****     *******************************************************************************/
 707:Generated_Source\PSoC4/UART_MASTER_UART.c ****     void UART_MASTER_UartPutCRLF(uint32 txDataByte)
 708:Generated_Source\PSoC4/UART_MASTER_UART.c ****     {
 503              		.loc 1 708 0
 504              		.cfi_startproc
 505              		@ args = 0, pretend = 0, frame = 0
 506              		@ frame_needed = 0, uses_anonymous_args = 0
 507              	.LVL38:
 508 0000 10B5     		push	{r4, lr}
 509              		.cfi_def_cfa_offset 8
 510              		.cfi_offset 4, -8
 511              		.cfi_offset 14, -4
 709:Generated_Source\PSoC4/UART_MASTER_UART.c ****         UART_MASTER_UartPutChar(txDataByte);  /* Blocks control flow until all data has been sent *
 512              		.loc 1 709 0
 513 0002 FFF7FEFF 		bl	UART_MASTER_SpiUartWriteTxData
 514              	.LVL39:
 710:Generated_Source\PSoC4/UART_MASTER_UART.c ****         UART_MASTER_UartPutChar(0x0Du);       /* Blocks control flow until all data has been sent *
 515              		.loc 1 710 0
 516 0006 0D20     		movs	r0, #13
 517 0008 FFF7FEFF 		bl	UART_MASTER_SpiUartWriteTxData
 518              	.LVL40:
 711:Generated_Source\PSoC4/UART_MASTER_UART.c ****         UART_MASTER_UartPutChar(0x0Au);       /* Blocks control flow until all data has been sent *
 519              		.loc 1 711 0
 520 000c 0A20     		movs	r0, #10
 521 000e FFF7FEFF 		bl	UART_MASTER_SpiUartWriteTxData
 522              	.LVL41:
 712:Generated_Source\PSoC4/UART_MASTER_UART.c ****     }
 523              		.loc 1 712 0
 524              		@ sp needed
 525 0012 10BD     		pop	{r4, pc}
 526              		.cfi_endproc
 527              	.LFE8:
 528              		.size	UART_MASTER_UartPutCRLF, .-UART_MASTER_UartPutCRLF
 529              		.section	.text.UART_MASTER_UartSendBreakBlocking,"ax",%progbits
 530              		.align	2
 531              		.global	UART_MASTER_UartSendBreakBlocking
 532              		.code	16
 533              		.thumb_func
 534              		.type	UART_MASTER_UartSendBreakBlocking, %function
 535              	UART_MASTER_UartSendBreakBlocking:
 536              	.LFB9:
 713:Generated_Source\PSoC4/UART_MASTER_UART.c **** 
 714:Generated_Source\PSoC4/UART_MASTER_UART.c **** 
 715:Generated_Source\PSoC4/UART_MASTER_UART.c ****     #if !(UART_MASTER_CY_SCBIP_V0 || UART_MASTER_CY_SCBIP_V1)
ARM GAS  C:\Users\jagumiel\AppData\Local\Temp\cc7xDo7w.s 			page 23


 716:Generated_Source\PSoC4/UART_MASTER_UART.c ****         /*******************************************************************************
 717:Generated_Source\PSoC4/UART_MASTER_UART.c ****         * Function Name: UART_MASTERSCB_UartEnableCts
 718:Generated_Source\PSoC4/UART_MASTER_UART.c ****         ****************************************************************************//**
 719:Generated_Source\PSoC4/UART_MASTER_UART.c ****         *
 720:Generated_Source\PSoC4/UART_MASTER_UART.c ****         *  Enables usage of CTS input signal by the UART transmitter.
 721:Generated_Source\PSoC4/UART_MASTER_UART.c ****         *  Only available for PSoC 4100 BLE / PSoC 4200 BLE / PSoC 4100M / PSoC 4200M /
 722:Generated_Source\PSoC4/UART_MASTER_UART.c ****         *  PSoC 4200L / PSoC 4000S / PSoC 4100S / PSoC Analog Coprocessor devices.
 723:Generated_Source\PSoC4/UART_MASTER_UART.c ****         *
 724:Generated_Source\PSoC4/UART_MASTER_UART.c ****         *******************************************************************************/
 725:Generated_Source\PSoC4/UART_MASTER_UART.c ****         void UART_MASTER_UartEnableCts(void)
 726:Generated_Source\PSoC4/UART_MASTER_UART.c ****         {
 727:Generated_Source\PSoC4/UART_MASTER_UART.c ****             UART_MASTER_UART_FLOW_CTRL_REG |= (uint32)  UART_MASTER_UART_FLOW_CTRL_CTS_ENABLE;
 728:Generated_Source\PSoC4/UART_MASTER_UART.c ****         }
 729:Generated_Source\PSoC4/UART_MASTER_UART.c **** 
 730:Generated_Source\PSoC4/UART_MASTER_UART.c **** 
 731:Generated_Source\PSoC4/UART_MASTER_UART.c ****         /*******************************************************************************
 732:Generated_Source\PSoC4/UART_MASTER_UART.c ****         * Function Name: UART_MASTER_UartDisableCts
 733:Generated_Source\PSoC4/UART_MASTER_UART.c ****         ****************************************************************************//**
 734:Generated_Source\PSoC4/UART_MASTER_UART.c ****         *
 735:Generated_Source\PSoC4/UART_MASTER_UART.c ****         *  Disables usage of CTS input signal by the UART transmitter.
 736:Generated_Source\PSoC4/UART_MASTER_UART.c ****         *  Only available for PSoC 4100 BLE / PSoC 4200 BLE / PSoC 4100M / PSoC 4200M /
 737:Generated_Source\PSoC4/UART_MASTER_UART.c ****         *  PSoC 4200L / PSoC 4000S / PSoC 4100S / PSoC Analog Coprocessor devices.
 738:Generated_Source\PSoC4/UART_MASTER_UART.c ****         *
 739:Generated_Source\PSoC4/UART_MASTER_UART.c ****         *******************************************************************************/
 740:Generated_Source\PSoC4/UART_MASTER_UART.c ****         void UART_MASTER_UartDisableCts(void)
 741:Generated_Source\PSoC4/UART_MASTER_UART.c ****         {
 742:Generated_Source\PSoC4/UART_MASTER_UART.c ****             UART_MASTER_UART_FLOW_CTRL_REG &= (uint32) ~UART_MASTER_UART_FLOW_CTRL_CTS_ENABLE;
 743:Generated_Source\PSoC4/UART_MASTER_UART.c ****         }
 744:Generated_Source\PSoC4/UART_MASTER_UART.c **** 
 745:Generated_Source\PSoC4/UART_MASTER_UART.c **** 
 746:Generated_Source\PSoC4/UART_MASTER_UART.c ****         /*******************************************************************************
 747:Generated_Source\PSoC4/UART_MASTER_UART.c ****         * Function Name: UART_MASTER_UartSetCtsPolarity
 748:Generated_Source\PSoC4/UART_MASTER_UART.c ****         ****************************************************************************//**
 749:Generated_Source\PSoC4/UART_MASTER_UART.c ****         *
 750:Generated_Source\PSoC4/UART_MASTER_UART.c ****         *  Sets active polarity of CTS input signal.
 751:Generated_Source\PSoC4/UART_MASTER_UART.c ****         *  Only available for PSoC 4100 BLE / PSoC 4200 BLE / PSoC 4100M / PSoC 4200M /
 752:Generated_Source\PSoC4/UART_MASTER_UART.c ****         *  PSoC 4200L / PSoC 4000S / PSoC 4100S / PSoC Analog Coprocessor devices.
 753:Generated_Source\PSoC4/UART_MASTER_UART.c ****         *
 754:Generated_Source\PSoC4/UART_MASTER_UART.c ****         * \param
 755:Generated_Source\PSoC4/UART_MASTER_UART.c ****         * polarity: Active polarity of CTS output signal.
 756:Generated_Source\PSoC4/UART_MASTER_UART.c ****         *   - UART_MASTER_UART_CTS_ACTIVE_LOW  - CTS signal is active low.
 757:Generated_Source\PSoC4/UART_MASTER_UART.c ****         *   - UART_MASTER_UART_CTS_ACTIVE_HIGH - CTS signal is active high.
 758:Generated_Source\PSoC4/UART_MASTER_UART.c ****         *
 759:Generated_Source\PSoC4/UART_MASTER_UART.c ****         *******************************************************************************/
 760:Generated_Source\PSoC4/UART_MASTER_UART.c ****         void UART_MASTER_UartSetCtsPolarity(uint32 polarity)
 761:Generated_Source\PSoC4/UART_MASTER_UART.c ****         {
 762:Generated_Source\PSoC4/UART_MASTER_UART.c ****             if (0u != polarity)
 763:Generated_Source\PSoC4/UART_MASTER_UART.c ****             {
 764:Generated_Source\PSoC4/UART_MASTER_UART.c ****                 UART_MASTER_UART_FLOW_CTRL_REG |= (uint32)  UART_MASTER_UART_FLOW_CTRL_CTS_POLARITY
 765:Generated_Source\PSoC4/UART_MASTER_UART.c ****             }
 766:Generated_Source\PSoC4/UART_MASTER_UART.c ****             else
 767:Generated_Source\PSoC4/UART_MASTER_UART.c ****             {
 768:Generated_Source\PSoC4/UART_MASTER_UART.c ****                 UART_MASTER_UART_FLOW_CTRL_REG &= (uint32) ~UART_MASTER_UART_FLOW_CTRL_CTS_POLARITY
 769:Generated_Source\PSoC4/UART_MASTER_UART.c ****             }
 770:Generated_Source\PSoC4/UART_MASTER_UART.c ****         }
 771:Generated_Source\PSoC4/UART_MASTER_UART.c ****     #endif /* !(UART_MASTER_CY_SCBIP_V0 || UART_MASTER_CY_SCBIP_V1) */
 772:Generated_Source\PSoC4/UART_MASTER_UART.c **** 
ARM GAS  C:\Users\jagumiel\AppData\Local\Temp\cc7xDo7w.s 			page 24


 773:Generated_Source\PSoC4/UART_MASTER_UART.c **** 
 774:Generated_Source\PSoC4/UART_MASTER_UART.c ****     /*******************************************************************************
 775:Generated_Source\PSoC4/UART_MASTER_UART.c ****     * Function Name: UART_MASTER_UartSendBreakBlocking
 776:Generated_Source\PSoC4/UART_MASTER_UART.c ****     ****************************************************************************//**
 777:Generated_Source\PSoC4/UART_MASTER_UART.c ****     *
 778:Generated_Source\PSoC4/UART_MASTER_UART.c ****     * Sends a break condition (logic low) of specified width on UART TX line.
 779:Generated_Source\PSoC4/UART_MASTER_UART.c ****     * Blocks until break is completed. Only call this function when UART TX FIFO
 780:Generated_Source\PSoC4/UART_MASTER_UART.c ****     * and shifter are empty.
 781:Generated_Source\PSoC4/UART_MASTER_UART.c ****     *
 782:Generated_Source\PSoC4/UART_MASTER_UART.c ****     * \param breakWidth
 783:Generated_Source\PSoC4/UART_MASTER_UART.c ****     * Width of break condition. Valid range is 4 to 16 bits.
 784:Generated_Source\PSoC4/UART_MASTER_UART.c ****     *
 785:Generated_Source\PSoC4/UART_MASTER_UART.c ****     * \note
 786:Generated_Source\PSoC4/UART_MASTER_UART.c ****     * Before sending break all UART TX interrupt sources are disabled. The state
 787:Generated_Source\PSoC4/UART_MASTER_UART.c ****     * of UART TX interrupt sources is restored before function returns.
 788:Generated_Source\PSoC4/UART_MASTER_UART.c ****     *
 789:Generated_Source\PSoC4/UART_MASTER_UART.c ****     * \sideeffect
 790:Generated_Source\PSoC4/UART_MASTER_UART.c ****     * If this function is called while there is data in the TX FIFO or shifter that
 791:Generated_Source\PSoC4/UART_MASTER_UART.c ****     * data will be shifted out in packets the size of breakWidth.
 792:Generated_Source\PSoC4/UART_MASTER_UART.c ****     *
 793:Generated_Source\PSoC4/UART_MASTER_UART.c ****     *******************************************************************************/
 794:Generated_Source\PSoC4/UART_MASTER_UART.c ****     void UART_MASTER_UartSendBreakBlocking(uint32 breakWidth)
 795:Generated_Source\PSoC4/UART_MASTER_UART.c ****     {
 537              		.loc 1 795 0
 538              		.cfi_startproc
 539              		@ args = 0, pretend = 0, frame = 0
 540              		@ frame_needed = 0, uses_anonymous_args = 0
 541              	.LVL42:
 542 0000 70B5     		push	{r4, r5, r6, lr}
 543              		.cfi_def_cfa_offset 16
 544              		.cfi_offset 4, -16
 545              		.cfi_offset 5, -12
 546              		.cfi_offset 6, -8
 547              		.cfi_offset 14, -4
 548 0002 0300     		movs	r3, r0
 796:Generated_Source\PSoC4/UART_MASTER_UART.c ****         uint32 txCtrlReg;
 797:Generated_Source\PSoC4/UART_MASTER_UART.c ****         uint32 txIntrReg;
 798:Generated_Source\PSoC4/UART_MASTER_UART.c **** 
 799:Generated_Source\PSoC4/UART_MASTER_UART.c ****         /* Disable all UART TX interrupt source and clear UART TX Done history */
 800:Generated_Source\PSoC4/UART_MASTER_UART.c ****         txIntrReg = UART_MASTER_GetTxInterruptMode();
 549              		.loc 1 800 0
 550 0004 0F4A     		ldr	r2, .L33
 551 0006 1568     		ldr	r5, [r2]
 552              	.LVL43:
 801:Generated_Source\PSoC4/UART_MASTER_UART.c ****         UART_MASTER_SetTxInterruptMode(0u);
 553              		.loc 1 801 0
 554 0008 0024     		movs	r4, #0
 555 000a 1460     		str	r4, [r2]
 802:Generated_Source\PSoC4/UART_MASTER_UART.c ****         UART_MASTER_ClearTxInterruptSource(UART_MASTER_INTR_TX_UART_DONE);
 556              		.loc 1 802 0
 557 000c 8021     		movs	r1, #128
 558 000e 8900     		lsls	r1, r1, #2
 559 0010 0D4A     		ldr	r2, .L33+4
 560 0012 1160     		str	r1, [r2]
 803:Generated_Source\PSoC4/UART_MASTER_UART.c **** 
 804:Generated_Source\PSoC4/UART_MASTER_UART.c ****         /* Store TX CTRL configuration */
 805:Generated_Source\PSoC4/UART_MASTER_UART.c ****         txCtrlReg = UART_MASTER_TX_CTRL_REG;
ARM GAS  C:\Users\jagumiel\AppData\Local\Temp\cc7xDo7w.s 			page 25


 561              		.loc 1 805 0
 562 0014 0D4A     		ldr	r2, .L33+8
 563 0016 1668     		ldr	r6, [r2]
 564              	.LVL44:
 806:Generated_Source\PSoC4/UART_MASTER_UART.c **** 
 807:Generated_Source\PSoC4/UART_MASTER_UART.c ****         /* Set break width */
 808:Generated_Source\PSoC4/UART_MASTER_UART.c ****         UART_MASTER_TX_CTRL_REG = (UART_MASTER_TX_CTRL_REG & (uint32) ~UART_MASTER_TX_CTRL_DATA_WID
 565              		.loc 1 808 0
 566 0018 1168     		ldr	r1, [r2]
 567 001a 0F20     		movs	r0, #15
 568              	.LVL45:
 569 001c 8143     		bics	r1, r0
 809:Generated_Source\PSoC4/UART_MASTER_UART.c ****                                         UART_MASTER_GET_TX_CTRL_DATA_WIDTH(breakWidth);
 570              		.loc 1 809 0
 571 001e 013B     		subs	r3, r3, #1
 572              	.LVL46:
 573 0020 1840     		ands	r0, r3
 808:Generated_Source\PSoC4/UART_MASTER_UART.c ****                                         UART_MASTER_GET_TX_CTRL_DATA_WIDTH(breakWidth);
 574              		.loc 1 808 0
 575 0022 0843     		orrs	r0, r1
 576 0024 1060     		str	r0, [r2]
 810:Generated_Source\PSoC4/UART_MASTER_UART.c **** 
 811:Generated_Source\PSoC4/UART_MASTER_UART.c ****         /* Generate break */
 812:Generated_Source\PSoC4/UART_MASTER_UART.c ****         UART_MASTER_TX_FIFO_WR_REG = 0u;
 577              		.loc 1 812 0
 578 0026 0A4B     		ldr	r3, .L33+12
 579              	.LVL47:
 580 0028 1C60     		str	r4, [r3]
 581              	.L32:
 813:Generated_Source\PSoC4/UART_MASTER_UART.c **** 
 814:Generated_Source\PSoC4/UART_MASTER_UART.c ****         /* Wait for break completion */
 815:Generated_Source\PSoC4/UART_MASTER_UART.c ****         while (0u == (UART_MASTER_GetTxInterruptSource() & UART_MASTER_INTR_TX_UART_DONE))
 582              		.loc 1 815 0 discriminator 1
 583 002a 074B     		ldr	r3, .L33+4
 584 002c 1B68     		ldr	r3, [r3]
 585 002e 9B05     		lsls	r3, r3, #22
 586 0030 FBD5     		bpl	.L32
 816:Generated_Source\PSoC4/UART_MASTER_UART.c ****         {
 817:Generated_Source\PSoC4/UART_MASTER_UART.c ****         }
 818:Generated_Source\PSoC4/UART_MASTER_UART.c **** 
 819:Generated_Source\PSoC4/UART_MASTER_UART.c ****         /* Clear all UART TX interrupt sources to  */
 820:Generated_Source\PSoC4/UART_MASTER_UART.c ****         UART_MASTER_ClearTxInterruptSource(UART_MASTER_INTR_TX_ALL);
 587              		.loc 1 820 0
 588 0032 084A     		ldr	r2, .L33+16
 589 0034 044B     		ldr	r3, .L33+4
 590 0036 1A60     		str	r2, [r3]
 821:Generated_Source\PSoC4/UART_MASTER_UART.c **** 
 822:Generated_Source\PSoC4/UART_MASTER_UART.c ****         /* Restore TX interrupt sources and data width */
 823:Generated_Source\PSoC4/UART_MASTER_UART.c ****         UART_MASTER_TX_CTRL_REG = txCtrlReg;
 591              		.loc 1 823 0
 592 0038 044B     		ldr	r3, .L33+8
 593 003a 1E60     		str	r6, [r3]
 824:Generated_Source\PSoC4/UART_MASTER_UART.c ****         UART_MASTER_SetTxInterruptMode(txIntrReg);
 594              		.loc 1 824 0
 595 003c 014B     		ldr	r3, .L33
 596 003e 1D60     		str	r5, [r3]
 825:Generated_Source\PSoC4/UART_MASTER_UART.c ****     }
ARM GAS  C:\Users\jagumiel\AppData\Local\Temp\cc7xDo7w.s 			page 26


 597              		.loc 1 825 0
 598              		@ sp needed
 599              	.LVL48:
 600              	.LVL49:
 601 0040 70BD     		pop	{r4, r5, r6, pc}
 602              	.L34:
 603 0042 C046     		.align	2
 604              	.L33:
 605 0044 880F0740 		.word	1074204552
 606 0048 800F0740 		.word	1074204544
 607 004c 00020740 		.word	1074201088
 608 0050 40020740 		.word	1074201152
 609 0054 F3070000 		.word	2035
 610              		.cfi_endproc
 611              	.LFE9:
 612              		.size	UART_MASTER_UartSendBreakBlocking, .-UART_MASTER_UartSendBreakBlocking
 613              		.text
 614              	.Letext0:
 615              		.file 2 "Generated_Source\\PSoC4/cytypes.h"
 616              		.file 3 "Generated_Source\\PSoC4\\UART_MASTER_PVT.h"
 617              		.file 4 "Generated_Source\\PSoC4\\UART_MASTER_SPI_UART_PVT.h"
 618              		.file 5 "Generated_Source\\PSoC4/CyLib.h"
 619              		.file 6 "Generated_Source\\PSoC4\\UART_MASTER_SPI_UART.h"