ARM GAS  C:\Users\jagumiel\AppData\Local\Temp\ccut8RYQ.s 			page 1


   1              		.syntax unified
   2              		.cpu cortex-m0
   3              		.fpu softvfp
   4              		.eabi_attribute 20, 1
   5              		.eabi_attribute 21, 1
   6              		.eabi_attribute 23, 3
   7              		.eabi_attribute 24, 1
   8              		.eabi_attribute 25, 1
   9              		.eabi_attribute 26, 1
  10              		.eabi_attribute 30, 1
  11              		.eabi_attribute 34, 0
  12              		.eabi_attribute 18, 4
  13              		.thumb
  14              		.syntax unified
  15              		.file	"LIN_Dynamic.c"
  16              		.text
  17              	.Ltext0:
  18              		.cfi_sections	.debug_frame
  19              		.section	.text.l_flg_tst,"ax",%progbits
  20              		.align	2
  21              		.global	l_flg_tst
  22              		.code	16
  23              		.thumb_func
  24              		.type	l_flg_tst, %function
  25              	l_flg_tst:
  26              	.LFB0:
  27              		.file 1 "Generated_Source\\PSoC4\\LIN_Dynamic.c"
   1:Generated_Source\PSoC4/LIN_Dynamic.c **** /******************************************************************************
   2:Generated_Source\PSoC4/LIN_Dynamic.c **** * File Name: LIN_Dynamic.c
   3:Generated_Source\PSoC4/LIN_Dynamic.c **** * Version 5.0
   4:Generated_Source\PSoC4/LIN_Dynamic.c **** *
   5:Generated_Source\PSoC4/LIN_Dynamic.c **** * Description:
   6:Generated_Source\PSoC4/LIN_Dynamic.c **** *  This file contains the implementation of the dynamic part of LIN Slave
   7:Generated_Source\PSoC4/LIN_Dynamic.c **** *  component API.
   8:Generated_Source\PSoC4/LIN_Dynamic.c **** *
   9:Generated_Source\PSoC4/LIN_Dynamic.c **** *******************************************************************************
  10:Generated_Source\PSoC4/LIN_Dynamic.c **** * Copyright 2011-2018, Cypress Semiconductor Corporation.  All rights reserved.
  11:Generated_Source\PSoC4/LIN_Dynamic.c **** * You may use this file only in accordance with the license, terms, conditions,
  12:Generated_Source\PSoC4/LIN_Dynamic.c **** * disclaimers, and limitations in the end user license agreement accompanying
  13:Generated_Source\PSoC4/LIN_Dynamic.c **** * the software package with which this file was provided.
  14:Generated_Source\PSoC4/LIN_Dynamic.c **** ******************************************************************************/
  15:Generated_Source\PSoC4/LIN_Dynamic.c **** 
  16:Generated_Source\PSoC4/LIN_Dynamic.c **** #include "LIN_Dynamic.h"
  17:Generated_Source\PSoC4/LIN_Dynamic.c **** 
  18:Generated_Source\PSoC4/LIN_Dynamic.c **** /*******************************************************************************
  19:Generated_Source\PSoC4/LIN_Dynamic.c **** * Function Name: l_flg_tst
  20:Generated_Source\PSoC4/LIN_Dynamic.c **** ********************************************************************************
  21:Generated_Source\PSoC4/LIN_Dynamic.c **** *
  22:Generated_Source\PSoC4/LIN_Dynamic.c **** * Summary:
  23:Generated_Source\PSoC4/LIN_Dynamic.c **** *  Returns a C boolean indicating the current state of the flag specified by
  24:Generated_Source\PSoC4/LIN_Dynamic.c **** *  the name fff, i.e. returns zero if the flag is cleared, non-zero otherwise.
  25:Generated_Source\PSoC4/LIN_Dynamic.c **** *
  26:Generated_Source\PSoC4/LIN_Dynamic.c **** * Parameters:
  27:Generated_Source\PSoC4/LIN_Dynamic.c **** *  fff - is the name of the flag handle.
  28:Generated_Source\PSoC4/LIN_Dynamic.c **** *
  29:Generated_Source\PSoC4/LIN_Dynamic.c **** * Return:
  30:Generated_Source\PSoC4/LIN_Dynamic.c **** *  Returns a C boolean indicating the current state of the flag specified by
ARM GAS  C:\Users\jagumiel\AppData\Local\Temp\ccut8RYQ.s 			page 2


  31:Generated_Source\PSoC4/LIN_Dynamic.c **** *  the name fff:
  32:Generated_Source\PSoC4/LIN_Dynamic.c **** *  False - if the flag is cleared;
  33:Generated_Source\PSoC4/LIN_Dynamic.c **** *  True - if the flag is not cleared.
  34:Generated_Source\PSoC4/LIN_Dynamic.c **** *
  35:Generated_Source\PSoC4/LIN_Dynamic.c **** *******************************************************************************/
  36:Generated_Source\PSoC4/LIN_Dynamic.c **** l_bool l_flg_tst(l_flag_handle fff)
  37:Generated_Source\PSoC4/LIN_Dynamic.c **** {
  28              		.loc 1 37 0
  29              		.cfi_startproc
  30              		@ args = 0, pretend = 0, frame = 0
  31              		@ frame_needed = 0, uses_anonymous_args = 0
  32              	.LVL0:
  33 0000 10B5     		push	{r4, lr}
  34              		.cfi_def_cfa_offset 8
  35              		.cfi_offset 4, -8
  36              		.cfi_offset 14, -4
  38:Generated_Source\PSoC4/LIN_Dynamic.c ****     return (l_flg_tst_LINS(fff));
  37              		.loc 1 38 0
  38 0002 FFF7FEFF 		bl	l_flg_tst_LINS
  39              	.LVL1:
  39:Generated_Source\PSoC4/LIN_Dynamic.c **** }
  40              		.loc 1 39 0
  41              		@ sp needed
  42 0006 10BD     		pop	{r4, pc}
  43              		.cfi_endproc
  44              	.LFE0:
  45              		.size	l_flg_tst, .-l_flg_tst
  46              		.section	.text.l_flg_clr,"ax",%progbits
  47              		.align	2
  48              		.global	l_flg_clr
  49              		.code	16
  50              		.thumb_func
  51              		.type	l_flg_clr, %function
  52              	l_flg_clr:
  53              	.LFB1:
  40:Generated_Source\PSoC4/LIN_Dynamic.c **** 
  41:Generated_Source\PSoC4/LIN_Dynamic.c **** 
  42:Generated_Source\PSoC4/LIN_Dynamic.c **** /*******************************************************************************
  43:Generated_Source\PSoC4/LIN_Dynamic.c **** * Function Name: l_flg_clr
  44:Generated_Source\PSoC4/LIN_Dynamic.c **** ********************************************************************************
  45:Generated_Source\PSoC4/LIN_Dynamic.c **** *
  46:Generated_Source\PSoC4/LIN_Dynamic.c **** * Summary:
  47:Generated_Source\PSoC4/LIN_Dynamic.c **** *  Sets the current value of the flag specified by the name fff to zero.
  48:Generated_Source\PSoC4/LIN_Dynamic.c **** *
  49:Generated_Source\PSoC4/LIN_Dynamic.c **** * Parameters:
  50:Generated_Source\PSoC4/LIN_Dynamic.c **** *  fff - is the name of the flag handle.
  51:Generated_Source\PSoC4/LIN_Dynamic.c **** *
  52:Generated_Source\PSoC4/LIN_Dynamic.c **** * Return:
  53:Generated_Source\PSoC4/LIN_Dynamic.c **** *  None
  54:Generated_Source\PSoC4/LIN_Dynamic.c **** *
  55:Generated_Source\PSoC4/LIN_Dynamic.c **** * Reentrant:
  56:Generated_Source\PSoC4/LIN_Dynamic.c **** *  No
  57:Generated_Source\PSoC4/LIN_Dynamic.c **** *
  58:Generated_Source\PSoC4/LIN_Dynamic.c **** *******************************************************************************/
  59:Generated_Source\PSoC4/LIN_Dynamic.c **** void l_flg_clr(l_flag_handle fff)
  60:Generated_Source\PSoC4/LIN_Dynamic.c **** {
  54              		.loc 1 60 0
ARM GAS  C:\Users\jagumiel\AppData\Local\Temp\ccut8RYQ.s 			page 3


  55              		.cfi_startproc
  56              		@ args = 0, pretend = 0, frame = 0
  57              		@ frame_needed = 0, uses_anonymous_args = 0
  58              	.LVL2:
  59 0000 10B5     		push	{r4, lr}
  60              		.cfi_def_cfa_offset 8
  61              		.cfi_offset 4, -8
  62              		.cfi_offset 14, -4
  61:Generated_Source\PSoC4/LIN_Dynamic.c ****     l_flg_clr_LINS(fff);
  63              		.loc 1 61 0
  64 0002 FFF7FEFF 		bl	l_flg_clr_LINS
  65              	.LVL3:
  62:Generated_Source\PSoC4/LIN_Dynamic.c **** }
  66              		.loc 1 62 0
  67              		@ sp needed
  68 0006 10BD     		pop	{r4, pc}
  69              		.cfi_endproc
  70              	.LFE1:
  71              		.size	l_flg_clr, .-l_flg_clr
  72              		.section	.text.l_u8_rd,"ax",%progbits
  73              		.align	2
  74              		.global	l_u8_rd
  75              		.code	16
  76              		.thumb_func
  77              		.type	l_u8_rd, %function
  78              	l_u8_rd:
  79              	.LFB2:
  63:Generated_Source\PSoC4/LIN_Dynamic.c **** 
  64:Generated_Source\PSoC4/LIN_Dynamic.c **** 
  65:Generated_Source\PSoC4/LIN_Dynamic.c **** #if (L_BOOL_RD_INST1 || L_BOOL_RD_INST2)
  66:Generated_Source\PSoC4/LIN_Dynamic.c **** /*******************************************************************************
  67:Generated_Source\PSoC4/LIN_Dynamic.c **** * Function Name: l_bool_rd
  68:Generated_Source\PSoC4/LIN_Dynamic.c **** ********************************************************************************
  69:Generated_Source\PSoC4/LIN_Dynamic.c **** *
  70:Generated_Source\PSoC4/LIN_Dynamic.c **** * Summary:
  71:Generated_Source\PSoC4/LIN_Dynamic.c **** *  Reads and returns the current value of the signal for one bit signals.
  72:Generated_Source\PSoC4/LIN_Dynamic.c **** *  If an invalid signal handle is passed into the function, no action is done. 
  73:Generated_Source\PSoC4/LIN_Dynamic.c **** *
  74:Generated_Source\PSoC4/LIN_Dynamic.c **** * Parameters:
  75:Generated_Source\PSoC4/LIN_Dynamic.c **** *  sss - signal handle of the signal to read.
  76:Generated_Source\PSoC4/LIN_Dynamic.c **** *
  77:Generated_Source\PSoC4/LIN_Dynamic.c **** * Return:
  78:Generated_Source\PSoC4/LIN_Dynamic.c **** *  Returns current value of signal. Returns non-zero value if unknown signal.
  79:Generated_Source\PSoC4/LIN_Dynamic.c **** *
  80:Generated_Source\PSoC4/LIN_Dynamic.c **** *******************************************************************************/
  81:Generated_Source\PSoC4/LIN_Dynamic.c **** l_bool l_bool_rd(l_signal_handle sss) 
  82:Generated_Source\PSoC4/LIN_Dynamic.c **** {
  83:Generated_Source\PSoC4/LIN_Dynamic.c ****     return (l_bool_rd_LINS(sss));
  84:Generated_Source\PSoC4/LIN_Dynamic.c **** }
  85:Generated_Source\PSoC4/LIN_Dynamic.c **** #endif /*(L_BOOL_RD_INST1 || L_BOOL_RD_INST2)*/
  86:Generated_Source\PSoC4/LIN_Dynamic.c **** 
  87:Generated_Source\PSoC4/LIN_Dynamic.c **** 
  88:Generated_Source\PSoC4/LIN_Dynamic.c **** #if (L_U8_RD_INST1 || L_U8_RD_INST2)
  89:Generated_Source\PSoC4/LIN_Dynamic.c **** /*******************************************************************************
  90:Generated_Source\PSoC4/LIN_Dynamic.c **** * Function Name: l_u8_rd
  91:Generated_Source\PSoC4/LIN_Dynamic.c **** ********************************************************************************
  92:Generated_Source\PSoC4/LIN_Dynamic.c **** *
ARM GAS  C:\Users\jagumiel\AppData\Local\Temp\ccut8RYQ.s 			page 4


  93:Generated_Source\PSoC4/LIN_Dynamic.c **** * Summary:
  94:Generated_Source\PSoC4/LIN_Dynamic.c **** *  Reads and returns the current value of the signal for signals of the size
  95:Generated_Source\PSoC4/LIN_Dynamic.c **** *  2 - 8 bits. If an invalid signal handle is passed into the function, no
  96:Generated_Source\PSoC4/LIN_Dynamic.c **** *  action is done.
  97:Generated_Source\PSoC4/LIN_Dynamic.c **** *
  98:Generated_Source\PSoC4/LIN_Dynamic.c **** * Parameters:
  99:Generated_Source\PSoC4/LIN_Dynamic.c **** *  sss - signal handle of the signal to read.
 100:Generated_Source\PSoC4/LIN_Dynamic.c **** *
 101:Generated_Source\PSoC4/LIN_Dynamic.c **** * Return:
 102:Generated_Source\PSoC4/LIN_Dynamic.c **** *  Returns current value of signal.
 103:Generated_Source\PSoC4/LIN_Dynamic.c **** *
 104:Generated_Source\PSoC4/LIN_Dynamic.c **** *******************************************************************************/
 105:Generated_Source\PSoC4/LIN_Dynamic.c **** l_u8 l_u8_rd(l_signal_handle sss) 
 106:Generated_Source\PSoC4/LIN_Dynamic.c **** {
  80              		.loc 1 106 0
  81              		.cfi_startproc
  82              		@ args = 0, pretend = 0, frame = 0
  83              		@ frame_needed = 0, uses_anonymous_args = 0
  84              	.LVL4:
  85 0000 10B5     		push	{r4, lr}
  86              		.cfi_def_cfa_offset 8
  87              		.cfi_offset 4, -8
  88              		.cfi_offset 14, -4
 107:Generated_Source\PSoC4/LIN_Dynamic.c ****     return (l_u8_rd_LINS(sss));
  89              		.loc 1 107 0
  90 0002 FFF7FEFF 		bl	l_u8_rd_LINS
  91              	.LVL5:
 108:Generated_Source\PSoC4/LIN_Dynamic.c **** }
  92              		.loc 1 108 0
  93              		@ sp needed
  94 0006 10BD     		pop	{r4, pc}
  95              		.cfi_endproc
  96              	.LFE2:
  97              		.size	l_u8_rd, .-l_u8_rd
  98              		.section	.text.l_bool_wr,"ax",%progbits
  99              		.align	2
 100              		.global	l_bool_wr
 101              		.code	16
 102              		.thumb_func
 103              		.type	l_bool_wr, %function
 104              	l_bool_wr:
 105              	.LFB3:
 109:Generated_Source\PSoC4/LIN_Dynamic.c **** #endif /*(L_U8_RD_INST1 || L_U8_RD_INST2)*/
 110:Generated_Source\PSoC4/LIN_Dynamic.c **** 
 111:Generated_Source\PSoC4/LIN_Dynamic.c **** 
 112:Generated_Source\PSoC4/LIN_Dynamic.c **** #if (L_U16_RD_INST1 || L_U16_RD_INST2)
 113:Generated_Source\PSoC4/LIN_Dynamic.c **** /*******************************************************************************
 114:Generated_Source\PSoC4/LIN_Dynamic.c **** * Function Name: l_u16_rd
 115:Generated_Source\PSoC4/LIN_Dynamic.c **** ********************************************************************************
 116:Generated_Source\PSoC4/LIN_Dynamic.c **** *
 117:Generated_Source\PSoC4/LIN_Dynamic.c **** * Summary:
 118:Generated_Source\PSoC4/LIN_Dynamic.c **** *  Reads and returns the current value of the signal for signals of the size
 119:Generated_Source\PSoC4/LIN_Dynamic.c **** *  2 - 8 bits. If an invalid signal handle is passed into the function, no
 120:Generated_Source\PSoC4/LIN_Dynamic.c **** *  action is done.
 121:Generated_Source\PSoC4/LIN_Dynamic.c **** *
 122:Generated_Source\PSoC4/LIN_Dynamic.c **** * Parameters:
 123:Generated_Source\PSoC4/LIN_Dynamic.c **** *  sss - signal handle of the signal to read.
ARM GAS  C:\Users\jagumiel\AppData\Local\Temp\ccut8RYQ.s 			page 5


 124:Generated_Source\PSoC4/LIN_Dynamic.c **** *
 125:Generated_Source\PSoC4/LIN_Dynamic.c **** * Return:
 126:Generated_Source\PSoC4/LIN_Dynamic.c **** *  Returns current value of signal.
 127:Generated_Source\PSoC4/LIN_Dynamic.c **** *
 128:Generated_Source\PSoC4/LIN_Dynamic.c **** *******************************************************************************/
 129:Generated_Source\PSoC4/LIN_Dynamic.c **** l_u16 l_u16_rd(l_signal_handle sss) 
 130:Generated_Source\PSoC4/LIN_Dynamic.c **** {
 131:Generated_Source\PSoC4/LIN_Dynamic.c ****     return (l_u16_rd_LINS(sss));
 132:Generated_Source\PSoC4/LIN_Dynamic.c **** }
 133:Generated_Source\PSoC4/LIN_Dynamic.c **** #endif /*(L_U16_RD_INST1 || L_U16_RD_INST2)*/
 134:Generated_Source\PSoC4/LIN_Dynamic.c **** 
 135:Generated_Source\PSoC4/LIN_Dynamic.c **** 
 136:Generated_Source\PSoC4/LIN_Dynamic.c **** #if (L_BYTES_RD_INST1 || L_BYTES_RD_INST2)
 137:Generated_Source\PSoC4/LIN_Dynamic.c **** /*******************************************************************************
 138:Generated_Source\PSoC4/LIN_Dynamic.c **** * Function Name: l_bytes_rd
 139:Generated_Source\PSoC4/LIN_Dynamic.c **** ********************************************************************************
 140:Generated_Source\PSoC4/LIN_Dynamic.c **** *
 141:Generated_Source\PSoC4/LIN_Dynamic.c **** * Summary:
 142:Generated_Source\PSoC4/LIN_Dynamic.c **** *  Reads and returns the current values of the selected bytes in the signal.
 143:Generated_Source\PSoC4/LIN_Dynamic.c **** *  The sum of the "start" and "count" parameters must never be greater than the
 144:Generated_Source\PSoC4/LIN_Dynamic.c **** *  length of the byte array. Note that when the sum of "start" and "count" is
 145:Generated_Source\PSoC4/LIN_Dynamic.c **** *  greater than the length of the signal byte array then an accidental data is
 146:Generated_Source\PSoC4/LIN_Dynamic.c **** *  read.
 147:Generated_Source\PSoC4/LIN_Dynamic.c **** *
 148:Generated_Source\PSoC4/LIN_Dynamic.c **** *  If an invalid signal handle is passed into the function, no action is done.
 149:Generated_Source\PSoC4/LIN_Dynamic.c **** *  Assume that a byte array is 8 bytes long, numbered 0 to 7. Reading bytes from
 150:Generated_Source\PSoC4/LIN_Dynamic.c **** *  2 to 6 from user selected array requires start to be 2 (skipping byte 0 and 1)
 151:Generated_Source\PSoC4/LIN_Dynamic.c **** *  and count to be 5. In this case byte 2 is written to user_selected_array[0]
 152:Generated_Source\PSoC4/LIN_Dynamic.c **** *  and all consecutive bytes are written into user_selected_array in ascending
 153:Generated_Source\PSoC4/LIN_Dynamic.c **** *  order.
 154:Generated_Source\PSoC4/LIN_Dynamic.c **** *
 155:Generated_Source\PSoC4/LIN_Dynamic.c **** * Parameters:
 156:Generated_Source\PSoC4/LIN_Dynamic.c **** *  sss   - Signal handle of the signal to read.
 157:Generated_Source\PSoC4/LIN_Dynamic.c **** *  start - First byte to read from.
 158:Generated_Source\PSoC4/LIN_Dynamic.c **** *  count - Number of bytes to read.
 159:Generated_Source\PSoC4/LIN_Dynamic.c **** *  data  - Pointer to array, in which the data read from the signal is stored.
 160:Generated_Source\PSoC4/LIN_Dynamic.c **** *
 161:Generated_Source\PSoC4/LIN_Dynamic.c **** * Return:
 162:Generated_Source\PSoC4/LIN_Dynamic.c **** *  None
 163:Generated_Source\PSoC4/LIN_Dynamic.c **** *
 164:Generated_Source\PSoC4/LIN_Dynamic.c **** *******************************************************************************/
 165:Generated_Source\PSoC4/LIN_Dynamic.c **** void l_bytes_rd(l_signal_handle sss, l_u8 start, l_u8 count, l_u8* pData)
 166:Generated_Source\PSoC4/LIN_Dynamic.c **** {
 167:Generated_Source\PSoC4/LIN_Dynamic.c ****     l_bytes_rd_LINS(sss, start, count, pData);
 168:Generated_Source\PSoC4/LIN_Dynamic.c **** }
 169:Generated_Source\PSoC4/LIN_Dynamic.c **** #endif /*(L_BYTES_RD_INST1 || L_BYTES_RD_INST2)*/
 170:Generated_Source\PSoC4/LIN_Dynamic.c **** 
 171:Generated_Source\PSoC4/LIN_Dynamic.c **** 
 172:Generated_Source\PSoC4/LIN_Dynamic.c **** #if (L_BOOL_WR_INST1 || L_BOOL_WR_INST2)
 173:Generated_Source\PSoC4/LIN_Dynamic.c **** /*******************************************************************************
 174:Generated_Source\PSoC4/LIN_Dynamic.c **** * Function Name: l_bool_wr
 175:Generated_Source\PSoC4/LIN_Dynamic.c **** ********************************************************************************
 176:Generated_Source\PSoC4/LIN_Dynamic.c **** *
 177:Generated_Source\PSoC4/LIN_Dynamic.c **** * Summary:
 178:Generated_Source\PSoC4/LIN_Dynamic.c **** *  Sets the current value of the signal for one bit signals to "v".
 179:Generated_Source\PSoC4/LIN_Dynamic.c **** *  If an invalid signal handle is passed into the function, no action is done. 
 180:Generated_Source\PSoC4/LIN_Dynamic.c **** *
ARM GAS  C:\Users\jagumiel\AppData\Local\Temp\ccut8RYQ.s 			page 6


 181:Generated_Source\PSoC4/LIN_Dynamic.c **** * Parameters:
 182:Generated_Source\PSoC4/LIN_Dynamic.c **** *  sss - signal handle of the signal to be set.
 183:Generated_Source\PSoC4/LIN_Dynamic.c **** *  v - value of the signal to be set.
 184:Generated_Source\PSoC4/LIN_Dynamic.c **** *
 185:Generated_Source\PSoC4/LIN_Dynamic.c **** * Return:
 186:Generated_Source\PSoC4/LIN_Dynamic.c **** *  None
 187:Generated_Source\PSoC4/LIN_Dynamic.c **** *
 188:Generated_Source\PSoC4/LIN_Dynamic.c **** * Reentrant:
 189:Generated_Source\PSoC4/LIN_Dynamic.c **** *  No
 190:Generated_Source\PSoC4/LIN_Dynamic.c **** *
 191:Generated_Source\PSoC4/LIN_Dynamic.c **** *******************************************************************************/
 192:Generated_Source\PSoC4/LIN_Dynamic.c **** void l_bool_wr(l_signal_handle sss, l_bool v)
 193:Generated_Source\PSoC4/LIN_Dynamic.c **** {
 106              		.loc 1 193 0
 107              		.cfi_startproc
 108              		@ args = 0, pretend = 0, frame = 0
 109              		@ frame_needed = 0, uses_anonymous_args = 0
 110              	.LVL6:
 111 0000 10B5     		push	{r4, lr}
 112              		.cfi_def_cfa_offset 8
 113              		.cfi_offset 4, -8
 114              		.cfi_offset 14, -4
 194:Generated_Source\PSoC4/LIN_Dynamic.c ****     l_bool_wr_LINS(sss, v);
 115              		.loc 1 194 0
 116 0002 FFF7FEFF 		bl	l_bool_wr_LINS
 117              	.LVL7:
 195:Generated_Source\PSoC4/LIN_Dynamic.c **** }
 118              		.loc 1 195 0
 119              		@ sp needed
 120 0006 10BD     		pop	{r4, pc}
 121              		.cfi_endproc
 122              	.LFE3:
 123              		.size	l_bool_wr, .-l_bool_wr
 124              		.section	.text.l_u8_wr,"ax",%progbits
 125              		.align	2
 126              		.global	l_u8_wr
 127              		.code	16
 128              		.thumb_func
 129              		.type	l_u8_wr, %function
 130              	l_u8_wr:
 131              	.LFB4:
 196:Generated_Source\PSoC4/LIN_Dynamic.c **** #endif /*(L_BOOL_WR_INST1 || L_BOOL_WR_INST2)*/
 197:Generated_Source\PSoC4/LIN_Dynamic.c **** 
 198:Generated_Source\PSoC4/LIN_Dynamic.c **** 
 199:Generated_Source\PSoC4/LIN_Dynamic.c **** #if (L_U8_WR_INST1 || L_U8_WR_INST2)
 200:Generated_Source\PSoC4/LIN_Dynamic.c **** /*******************************************************************************
 201:Generated_Source\PSoC4/LIN_Dynamic.c **** * Function Name: l_u8_wr
 202:Generated_Source\PSoC4/LIN_Dynamic.c **** ********************************************************************************
 203:Generated_Source\PSoC4/LIN_Dynamic.c **** *
 204:Generated_Source\PSoC4/LIN_Dynamic.c **** * Summary:
 205:Generated_Source\PSoC4/LIN_Dynamic.c **** *  Sets the current value of the signal for signals of the size 2 - 8 bits to v.
 206:Generated_Source\PSoC4/LIN_Dynamic.c **** *  If an invalid signal handle is passed into the function, no action is done.
 207:Generated_Source\PSoC4/LIN_Dynamic.c **** *
 208:Generated_Source\PSoC4/LIN_Dynamic.c **** * Parameters:
 209:Generated_Source\PSoC4/LIN_Dynamic.c **** *  sss - signal handle of the signal to write.
 210:Generated_Source\PSoC4/LIN_Dynamic.c **** *  v   - value of the signal to be set.
 211:Generated_Source\PSoC4/LIN_Dynamic.c **** *
ARM GAS  C:\Users\jagumiel\AppData\Local\Temp\ccut8RYQ.s 			page 7


 212:Generated_Source\PSoC4/LIN_Dynamic.c **** * Return:
 213:Generated_Source\PSoC4/LIN_Dynamic.c **** *  None
 214:Generated_Source\PSoC4/LIN_Dynamic.c **** *
 215:Generated_Source\PSoC4/LIN_Dynamic.c **** * Reentrant:
 216:Generated_Source\PSoC4/LIN_Dynamic.c **** *  No
 217:Generated_Source\PSoC4/LIN_Dynamic.c **** *
 218:Generated_Source\PSoC4/LIN_Dynamic.c **** *******************************************************************************/
 219:Generated_Source\PSoC4/LIN_Dynamic.c **** void l_u8_wr(l_signal_handle sss, l_u8 v)
 220:Generated_Source\PSoC4/LIN_Dynamic.c **** {
 132              		.loc 1 220 0
 133              		.cfi_startproc
 134              		@ args = 0, pretend = 0, frame = 0
 135              		@ frame_needed = 0, uses_anonymous_args = 0
 136              	.LVL8:
 137 0000 10B5     		push	{r4, lr}
 138              		.cfi_def_cfa_offset 8
 139              		.cfi_offset 4, -8
 140              		.cfi_offset 14, -4
 221:Generated_Source\PSoC4/LIN_Dynamic.c ****     l_u8_wr_LINS(sss, v);
 141              		.loc 1 221 0
 142 0002 FFF7FEFF 		bl	l_u8_wr_LINS
 143              	.LVL9:
 222:Generated_Source\PSoC4/LIN_Dynamic.c **** }
 144              		.loc 1 222 0
 145              		@ sp needed
 146 0006 10BD     		pop	{r4, pc}
 147              		.cfi_endproc
 148              	.LFE4:
 149              		.size	l_u8_wr, .-l_u8_wr
 150              		.section	.text.l_sys_init,"ax",%progbits
 151              		.align	2
 152              		.global	l_sys_init
 153              		.code	16
 154              		.thumb_func
 155              		.type	l_sys_init, %function
 156              	l_sys_init:
 157              	.LFB5:
 223:Generated_Source\PSoC4/LIN_Dynamic.c **** #endif /*(L_U8_WR_INST1 || L_U8_WR_INST2)*/
 224:Generated_Source\PSoC4/LIN_Dynamic.c **** 
 225:Generated_Source\PSoC4/LIN_Dynamic.c **** 
 226:Generated_Source\PSoC4/LIN_Dynamic.c **** #if (L_U16_WR_INST1 || L_U16_WR_INST2)
 227:Generated_Source\PSoC4/LIN_Dynamic.c **** /*******************************************************************************
 228:Generated_Source\PSoC4/LIN_Dynamic.c **** * Function Name: l_u16_wr
 229:Generated_Source\PSoC4/LIN_Dynamic.c **** ********************************************************************************
 230:Generated_Source\PSoC4/LIN_Dynamic.c **** *
 231:Generated_Source\PSoC4/LIN_Dynamic.c **** * Summary:
 232:Generated_Source\PSoC4/LIN_Dynamic.c **** *  Writes the value v to the signal. If an invalid signal handle is passed
 233:Generated_Source\PSoC4/LIN_Dynamic.c **** *  into the function, no action is done.
 234:Generated_Source\PSoC4/LIN_Dynamic.c **** *
 235:Generated_Source\PSoC4/LIN_Dynamic.c **** * Parameters:
 236:Generated_Source\PSoC4/LIN_Dynamic.c **** *  sss - signal handle of the signal to write.
 237:Generated_Source\PSoC4/LIN_Dynamic.c **** *  v   - value of the signal to be set.
 238:Generated_Source\PSoC4/LIN_Dynamic.c **** *
 239:Generated_Source\PSoC4/LIN_Dynamic.c **** * Return:
 240:Generated_Source\PSoC4/LIN_Dynamic.c **** *  None
 241:Generated_Source\PSoC4/LIN_Dynamic.c **** *
 242:Generated_Source\PSoC4/LIN_Dynamic.c **** * Reentrant:
ARM GAS  C:\Users\jagumiel\AppData\Local\Temp\ccut8RYQ.s 			page 8


 243:Generated_Source\PSoC4/LIN_Dynamic.c **** *  No
 244:Generated_Source\PSoC4/LIN_Dynamic.c **** *
 245:Generated_Source\PSoC4/LIN_Dynamic.c **** *******************************************************************************/
 246:Generated_Source\PSoC4/LIN_Dynamic.c **** void l_u16_wr(l_signal_handle sss, l_u16 v)
 247:Generated_Source\PSoC4/LIN_Dynamic.c **** {
 248:Generated_Source\PSoC4/LIN_Dynamic.c ****     l_u16_wr_LINS(sss, v);
 249:Generated_Source\PSoC4/LIN_Dynamic.c **** }
 250:Generated_Source\PSoC4/LIN_Dynamic.c **** #endif /*(L_U16_WR_INST1 || L_U16_WR_INST2)*/
 251:Generated_Source\PSoC4/LIN_Dynamic.c **** 
 252:Generated_Source\PSoC4/LIN_Dynamic.c **** 
 253:Generated_Source\PSoC4/LIN_Dynamic.c **** #if (L_BYTES_WR_INST1 || L_BYTES_WR_INST2)
 254:Generated_Source\PSoC4/LIN_Dynamic.c **** /*******************************************************************************
 255:Generated_Source\PSoC4/LIN_Dynamic.c **** * Function Name: l_bytes_wr
 256:Generated_Source\PSoC4/LIN_Dynamic.c **** ********************************************************************************
 257:Generated_Source\PSoC4/LIN_Dynamic.c **** *
 258:Generated_Source\PSoC4/LIN_Dynamic.c **** * Summary:
 259:Generated_Source\PSoC4/LIN_Dynamic.c **** *  Writes the current value of the selected bytes to the signal specified by
 260:Generated_Source\PSoC4/LIN_Dynamic.c **** *  the name "sss". The sum of "start" and "count" must never be greater than
 261:Generated_Source\PSoC4/LIN_Dynamic.c **** *  the length of the byte array, although the device driver may choose not to
 262:Generated_Source\PSoC4/LIN_Dynamic.c **** *  enforce this in runtime. Note that when the sum of "start" and "count" is
 263:Generated_Source\PSoC4/LIN_Dynamic.c **** *  greater than the length of the signal byte array then an accidental memory
 264:Generated_Source\PSoC4/LIN_Dynamic.c **** *  area is to be affected.
 265:Generated_Source\PSoC4/LIN_Dynamic.c **** *
 266:Generated_Source\PSoC4/LIN_Dynamic.c **** *  If an invalid signal handle is passed into the function, no action is done.
 267:Generated_Source\PSoC4/LIN_Dynamic.c **** *  Assume that a byte array signal is 8 bytes long, numbered 0 to 7. Writing
 268:Generated_Source\PSoC4/LIN_Dynamic.c **** *  byte 3 and 4 of this array requires "start" to be 3 (skipping byte 0, 1 and
 269:Generated_Source\PSoC4/LIN_Dynamic.c **** *  2) and "count" to be 2. In this case byte 3 of the byte array signal is
 270:Generated_Source\PSoC4/LIN_Dynamic.c **** *  written from user_selected_array[0] and byte 4 is written from
 271:Generated_Source\PSoC4/LIN_Dynamic.c **** *  user_selected_array[1].
 272:Generated_Source\PSoC4/LIN_Dynamic.c **** *
 273:Generated_Source\PSoC4/LIN_Dynamic.c **** * Parameters:
 274:Generated_Source\PSoC4/LIN_Dynamic.c **** *  sss   - signal handle of the signal to write.
 275:Generated_Source\PSoC4/LIN_Dynamic.c **** *  start - first byte to write to.
 276:Generated_Source\PSoC4/LIN_Dynamic.c **** *  count - number of bytes to write.
 277:Generated_Source\PSoC4/LIN_Dynamic.c **** *  data  - pointer to array, in which the data to transmit to LIN master is
 278:Generated_Source\PSoC4/LIN_Dynamic.c **** *          located.
 279:Generated_Source\PSoC4/LIN_Dynamic.c **** *
 280:Generated_Source\PSoC4/LIN_Dynamic.c **** * Return:
 281:Generated_Source\PSoC4/LIN_Dynamic.c **** *  None
 282:Generated_Source\PSoC4/LIN_Dynamic.c **** *
 283:Generated_Source\PSoC4/LIN_Dynamic.c **** * Reentrant:
 284:Generated_Source\PSoC4/LIN_Dynamic.c **** *  No
 285:Generated_Source\PSoC4/LIN_Dynamic.c **** *
 286:Generated_Source\PSoC4/LIN_Dynamic.c **** *******************************************************************************/
 287:Generated_Source\PSoC4/LIN_Dynamic.c **** void l_bytes_wr(l_signal_handle sss, l_u8 start, l_u8 count, const l_u8* const pData)
 288:Generated_Source\PSoC4/LIN_Dynamic.c **** {
 289:Generated_Source\PSoC4/LIN_Dynamic.c ****     l_bytes_wr_LINS(sss, start, count, pData);
 290:Generated_Source\PSoC4/LIN_Dynamic.c **** }
 291:Generated_Source\PSoC4/LIN_Dynamic.c **** #endif /*(L_BYTES_WR_INST1 || L_BYTES_WR_INST2)*/
 292:Generated_Source\PSoC4/LIN_Dynamic.c **** 
 293:Generated_Source\PSoC4/LIN_Dynamic.c **** 
 294:Generated_Source\PSoC4/LIN_Dynamic.c **** 
 295:Generated_Source\PSoC4/LIN_Dynamic.c **** /******************************************************************************
 296:Generated_Source\PSoC4/LIN_Dynamic.c **** * Variables
 297:Generated_Source\PSoC4/LIN_Dynamic.c **** ******************************************************************************/
 298:Generated_Source\PSoC4/LIN_Dynamic.c **** static uint8   LINS_initVar = 0u;
 299:Generated_Source\PSoC4/LIN_Dynamic.c **** 
ARM GAS  C:\Users\jagumiel\AppData\Local\Temp\ccut8RYQ.s 			page 9


 300:Generated_Source\PSoC4/LIN_Dynamic.c **** 
 301:Generated_Source\PSoC4/LIN_Dynamic.c **** /******************************************************************************
 302:Generated_Source\PSoC4/LIN_Dynamic.c **** * Function Name: l_sys_init
 303:Generated_Source\PSoC4/LIN_Dynamic.c **** *******************************************************************************
 304:Generated_Source\PSoC4/LIN_Dynamic.c **** *
 305:Generated_Source\PSoC4/LIN_Dynamic.c **** * Summary:
 306:Generated_Source\PSoC4/LIN_Dynamic.c **** *  Initializes the LIN core. If the Automatic Baud Rate Synchronization 
 307:Generated_Source\PSoC4/LIN_Dynamic.c **** *  parameter is enabled in the Configure dialog, then this function saves the
 308:Generated_Source\PSoC4/LIN_Dynamic.c **** *  initial SYSCLK-to-UARTCLK divider’s value, calculated by PSoC Creator. 
 309:Generated_Source\PSoC4/LIN_Dynamic.c **** *  If the parameter is not enabled, this function does nothing and always
 310:Generated_Source\PSoC4/LIN_Dynamic.c **** *  returns zero.
 311:Generated_Source\PSoC4/LIN_Dynamic.c **** *
 312:Generated_Source\PSoC4/LIN_Dynamic.c **** * Return:
 313:Generated_Source\PSoC4/LIN_Dynamic.c **** *  Zero     - If the initialization succeeded.
 314:Generated_Source\PSoC4/LIN_Dynamic.c **** *  Non-zero - If the initialization failed.
 315:Generated_Source\PSoC4/LIN_Dynamic.c **** *
 316:Generated_Source\PSoC4/LIN_Dynamic.c **** ******************************************************************************/
 317:Generated_Source\PSoC4/LIN_Dynamic.c **** l_bool l_sys_init(void)
 318:Generated_Source\PSoC4/LIN_Dynamic.c **** {
 158              		.loc 1 318 0
 159              		.cfi_startproc
 160              		@ args = 0, pretend = 0, frame = 0
 161              		@ frame_needed = 0, uses_anonymous_args = 0
 162 0000 10B5     		push	{r4, lr}
 163              		.cfi_def_cfa_offset 8
 164              		.cfi_offset 4, -8
 165              		.cfi_offset 14, -4
 319:Generated_Source\PSoC4/LIN_Dynamic.c ****     /* If not already initialized, then initializes the hardware and variables. */
 320:Generated_Source\PSoC4/LIN_Dynamic.c ****     if(LINS_initVar == 0u)
 166              		.loc 1 320 0
 167 0002 074B     		ldr	r3, .L8
 168 0004 1B78     		ldrb	r3, [r3]
 169 0006 002B     		cmp	r3, #0
 170 0008 07D1     		bne	.L7
 321:Generated_Source\PSoC4/LIN_Dynamic.c ****     {
 322:Generated_Source\PSoC4/LIN_Dynamic.c ****         #if(1u == LINS_AUTO_BAUD_RATE_SYNC)
 323:Generated_Source\PSoC4/LIN_Dynamic.c ****             /* Saves the original clock divider */
 324:Generated_Source\PSoC4/LIN_Dynamic.c ****             LINS_initialClockDivider =
 325:Generated_Source\PSoC4/LIN_Dynamic.c ****                 (uint16) (LINS_IntClk_GetDividerRegister() + 1u);
 171              		.loc 1 325 0
 172 000a FFF7FEFF 		bl	LINS_IntClk_GetDividerRegister
 173              	.LVL10:
 174 000e 0130     		adds	r0, r0, #1
 324:Generated_Source\PSoC4/LIN_Dynamic.c ****                 (uint16) (LINS_IntClk_GetDividerRegister() + 1u);
 175              		.loc 1 324 0
 176 0010 044B     		ldr	r3, .L8+4
 177 0012 1880     		strh	r0, [r3]
 326:Generated_Source\PSoC4/LIN_Dynamic.c ****         #endif  /* (1u == LINS_AUTO_BAUD_RATE_SYNC) */
 327:Generated_Source\PSoC4/LIN_Dynamic.c **** 
 328:Generated_Source\PSoC4/LIN_Dynamic.c ****         #if(LINS_IS_MULTI_INSTANCE)
 329:Generated_Source\PSoC4/LIN_Dynamic.c ****              #if(1u == NOT_DEFINED_AUTO_BAUD_RATE_SYNC)
 330:Generated_Source\PSoC4/LIN_Dynamic.c ****     		    /* Saves the original clock divider */
 331:Generated_Source\PSoC4/LIN_Dynamic.c ****                 NOT_DEFINED_initialClockDivider = (uint16) (NOT_DEFINED_IntClk_GetDividerRegister()
 332:Generated_Source\PSoC4/LIN_Dynamic.c ****             #endif  /* (1u == NOT_DEFINED_AUTO_BAUD_RATE_SYNC) */
 333:Generated_Source\PSoC4/LIN_Dynamic.c ****         #endif /* (LINS_IS_MULTI_INSTANCE) */
 334:Generated_Source\PSoC4/LIN_Dynamic.c **** 
 335:Generated_Source\PSoC4/LIN_Dynamic.c ****         LINS_initVar = 1u;
ARM GAS  C:\Users\jagumiel\AppData\Local\Temp\ccut8RYQ.s 			page 10


 178              		.loc 1 335 0
 179 0014 0122     		movs	r2, #1
 180 0016 024B     		ldr	r3, .L8
 181 0018 1A70     		strb	r2, [r3]
 182              	.L7:
 336:Generated_Source\PSoC4/LIN_Dynamic.c ****     }
 337:Generated_Source\PSoC4/LIN_Dynamic.c **** 
 338:Generated_Source\PSoC4/LIN_Dynamic.c ****     return (LINS_FALSE);
 339:Generated_Source\PSoC4/LIN_Dynamic.c **** }
 183              		.loc 1 339 0
 184 001a 0020     		movs	r0, #0
 185              		@ sp needed
 186 001c 10BD     		pop	{r4, pc}
 187              	.L9:
 188 001e C046     		.align	2
 189              	.L8:
 190 0020 00000000 		.word	.LANCHOR0
 191 0024 00000000 		.word	LINS_initialClockDivider
 192              		.cfi_endproc
 193              	.LFE5:
 194              		.size	l_sys_init, .-l_sys_init
 195              		.section	.text.l_ifc_init,"ax",%progbits
 196              		.align	2
 197              		.global	l_ifc_init
 198              		.code	16
 199              		.thumb_func
 200              		.type	l_ifc_init, %function
 201              	l_ifc_init:
 202              	.LFB6:
 340:Generated_Source\PSoC4/LIN_Dynamic.c **** 
 341:Generated_Source\PSoC4/LIN_Dynamic.c **** 
 342:Generated_Source\PSoC4/LIN_Dynamic.c **** #if(1u == LINS_LIN_1_3)
 343:Generated_Source\PSoC4/LIN_Dynamic.c **** 
 344:Generated_Source\PSoC4/LIN_Dynamic.c ****     /**************************************************************************
 345:Generated_Source\PSoC4/LIN_Dynamic.c ****     * Function Name: l_ifc_connect
 346:Generated_Source\PSoC4/LIN_Dynamic.c ****     ***************************************************************************
 347:Generated_Source\PSoC4/LIN_Dynamic.c ****     *
 348:Generated_Source\PSoC4/LIN_Dynamic.c ****     * Summary:
 349:Generated_Source\PSoC4/LIN_Dynamic.c ****     *  The same as l_ifc_init.This function is not required to be used.
 350:Generated_Source\PSoC4/LIN_Dynamic.c ****     *  Declared for consistency with LIN v.1.3 only.
 351:Generated_Source\PSoC4/LIN_Dynamic.c ****     *
 352:Generated_Source\PSoC4/LIN_Dynamic.c ****     * Return:
 353:Generated_Source\PSoC4/LIN_Dynamic.c ****     *  Zero     - If the initialization succeeded.
 354:Generated_Source\PSoC4/LIN_Dynamic.c ****     *  Non-zero - If the initialization failed.
 355:Generated_Source\PSoC4/LIN_Dynamic.c ****     *
 356:Generated_Source\PSoC4/LIN_Dynamic.c ****     **************************************************************************/
 357:Generated_Source\PSoC4/LIN_Dynamic.c ****     l_bool l_ifc_connect(l_ifc_handle iii)
 358:Generated_Source\PSoC4/LIN_Dynamic.c ****     {
 359:Generated_Source\PSoC4/LIN_Dynamic.c ****         l_bool returnValue = LINS_FALSE;
 360:Generated_Source\PSoC4/LIN_Dynamic.c **** 
 361:Generated_Source\PSoC4/LIN_Dynamic.c ****         switch(iii)
 362:Generated_Source\PSoC4/LIN_Dynamic.c ****         {
 363:Generated_Source\PSoC4/LIN_Dynamic.c ****             #if(1u == LINS_LIN_1_3)
 364:Generated_Source\PSoC4/LIN_Dynamic.c ****                 case LINS_IFC_HANDLE:
 365:Generated_Source\PSoC4/LIN_Dynamic.c ****                     returnValue = l_ifc_connect_LINS();
 366:Generated_Source\PSoC4/LIN_Dynamic.c ****                 break;
 367:Generated_Source\PSoC4/LIN_Dynamic.c ****             #endif /* (1u == LINS_LIN_1_3) */
ARM GAS  C:\Users\jagumiel\AppData\Local\Temp\ccut8RYQ.s 			page 11


 368:Generated_Source\PSoC4/LIN_Dynamic.c **** 
 369:Generated_Source\PSoC4/LIN_Dynamic.c ****             #if(LINS_IS_MULTI_INSTANCE)
 370:Generated_Source\PSoC4/LIN_Dynamic.c ****                 #if(1u == NOT_DEFINED_LIN_1_3)
 371:Generated_Source\PSoC4/LIN_Dynamic.c ****                     /* Goes here if interface 2 is specified. */
 372:Generated_Source\PSoC4/LIN_Dynamic.c ****                     case NOT_DEFINED_IFC_HANDLE:
 373:Generated_Source\PSoC4/LIN_Dynamic.c ****                         returnValue = l_ifc_connect_NOT_DEFINED();
 374:Generated_Source\PSoC4/LIN_Dynamic.c ****                     break;
 375:Generated_Source\PSoC4/LIN_Dynamic.c ****                 #endif /* (1u == NOT_DEFINED_LIN_1_3) */
 376:Generated_Source\PSoC4/LIN_Dynamic.c ****             #endif /* (LINS_IS_MULTI_INSTANCE) */
 377:Generated_Source\PSoC4/LIN_Dynamic.c **** 
 378:Generated_Source\PSoC4/LIN_Dynamic.c ****             default:
 379:Generated_Source\PSoC4/LIN_Dynamic.c ****                 /* Unknown interface handle */
 380:Generated_Source\PSoC4/LIN_Dynamic.c ****                 returnValue = LINS_TRUE;
 381:Generated_Source\PSoC4/LIN_Dynamic.c ****             break;
 382:Generated_Source\PSoC4/LIN_Dynamic.c ****         }
 383:Generated_Source\PSoC4/LIN_Dynamic.c **** 
 384:Generated_Source\PSoC4/LIN_Dynamic.c ****         return(returnValue);
 385:Generated_Source\PSoC4/LIN_Dynamic.c ****     }
 386:Generated_Source\PSoC4/LIN_Dynamic.c **** 
 387:Generated_Source\PSoC4/LIN_Dynamic.c ****     
 388:Generated_Source\PSoC4/LIN_Dynamic.c ****     /*******************************************************************************
 389:Generated_Source\PSoC4/LIN_Dynamic.c ****     * Function Name: l_ifc_disconnect
 390:Generated_Source\PSoC4/LIN_Dynamic.c ****     ********************************************************************************
 391:Generated_Source\PSoC4/LIN_Dynamic.c ****     *
 392:Generated_Source\PSoC4/LIN_Dynamic.c ****     * Summary:
 393:Generated_Source\PSoC4/LIN_Dynamic.c ****     *  Stops the component operation. This function is required for LIN v.1.3 only.
 394:Generated_Source\PSoC4/LIN_Dynamic.c ****     *
 395:Generated_Source\PSoC4/LIN_Dynamic.c ****     * Return:
 396:Generated_Source\PSoC4/LIN_Dynamic.c ****     *  Zero     - If the initialization succeeded.
 397:Generated_Source\PSoC4/LIN_Dynamic.c ****     *  Non-zero - If the initialization failed.
 398:Generated_Source\PSoC4/LIN_Dynamic.c ****     *
 399:Generated_Source\PSoC4/LIN_Dynamic.c ****     *******************************************************************************/
 400:Generated_Source\PSoC4/LIN_Dynamic.c ****     l_bool l_ifc_disconnect(l_ifc_handle iii)
 401:Generated_Source\PSoC4/LIN_Dynamic.c ****     {
 402:Generated_Source\PSoC4/LIN_Dynamic.c ****         l_bool returnValue = LINS_FALSE;
 403:Generated_Source\PSoC4/LIN_Dynamic.c **** 
 404:Generated_Source\PSoC4/LIN_Dynamic.c ****         switch(iii)
 405:Generated_Source\PSoC4/LIN_Dynamic.c ****         {
 406:Generated_Source\PSoC4/LIN_Dynamic.c ****             #if(1u == LINS_LIN_1_3)
 407:Generated_Source\PSoC4/LIN_Dynamic.c ****                 case LINS_IFC_HANDLE:
 408:Generated_Source\PSoC4/LIN_Dynamic.c ****                     returnValue = l_ifc_disconnect_LINS();
 409:Generated_Source\PSoC4/LIN_Dynamic.c ****                 break;
 410:Generated_Source\PSoC4/LIN_Dynamic.c ****             #endif /* (1u == LINS_LIN_1_3) */
 411:Generated_Source\PSoC4/LIN_Dynamic.c **** 
 412:Generated_Source\PSoC4/LIN_Dynamic.c ****             #if(LINS_IS_MULTI_INSTANCE)
 413:Generated_Source\PSoC4/LIN_Dynamic.c ****                 #if(1u == NOT_DEFINED_LIN_1_3)
 414:Generated_Source\PSoC4/LIN_Dynamic.c ****                     /* Goes here if interface 2 is specified. */
 415:Generated_Source\PSoC4/LIN_Dynamic.c ****                     case NOT_DEFINED_IFC_HANDLE:
 416:Generated_Source\PSoC4/LIN_Dynamic.c ****                         returnValue = l_ifc_disconnect_NOT_DEFINED();
 417:Generated_Source\PSoC4/LIN_Dynamic.c ****                     break;
 418:Generated_Source\PSoC4/LIN_Dynamic.c ****                 #endif /* (1u == NOT_DEFINED_LIN_1_3) */
 419:Generated_Source\PSoC4/LIN_Dynamic.c ****             #endif /* (LINS_IS_MULTI_INSTANCE) */
 420:Generated_Source\PSoC4/LIN_Dynamic.c **** 
 421:Generated_Source\PSoC4/LIN_Dynamic.c ****             default:
 422:Generated_Source\PSoC4/LIN_Dynamic.c ****                 /* Unknown interface handle */
 423:Generated_Source\PSoC4/LIN_Dynamic.c ****                 returnValue = LINS_TRUE;
 424:Generated_Source\PSoC4/LIN_Dynamic.c ****             break;
ARM GAS  C:\Users\jagumiel\AppData\Local\Temp\ccut8RYQ.s 			page 12


 425:Generated_Source\PSoC4/LIN_Dynamic.c ****         }
 426:Generated_Source\PSoC4/LIN_Dynamic.c **** 
 427:Generated_Source\PSoC4/LIN_Dynamic.c ****         return(returnValue);
 428:Generated_Source\PSoC4/LIN_Dynamic.c ****     }
 429:Generated_Source\PSoC4/LIN_Dynamic.c **** 
 430:Generated_Source\PSoC4/LIN_Dynamic.c **** #endif /* ( 1u == LINS_LIN_1_3) */
 431:Generated_Source\PSoC4/LIN_Dynamic.c **** 
 432:Generated_Source\PSoC4/LIN_Dynamic.c **** 
 433:Generated_Source\PSoC4/LIN_Dynamic.c **** /******************************************************************************
 434:Generated_Source\PSoC4/LIN_Dynamic.c **** * Function Name: l_ifc_init
 435:Generated_Source\PSoC4/LIN_Dynamic.c **** *******************************************************************************
 436:Generated_Source\PSoC4/LIN_Dynamic.c **** *
 437:Generated_Source\PSoC4/LIN_Dynamic.c **** * Summary:
 438:Generated_Source\PSoC4/LIN_Dynamic.c **** *  The function initializes the LIN Slave component instance that is specified
 439:Generated_Source\PSoC4/LIN_Dynamic.c **** *  by the name iii. It sets up internal functions such as the baud rate and
 440:Generated_Source\PSoC4/LIN_Dynamic.c **** *  starts up digital blocks that are used by the LIN Slave component. This is
 441:Generated_Source\PSoC4/LIN_Dynamic.c **** *  the first call that must be performed, before using any other interface-
 442:Generated_Source\PSoC4/LIN_Dynamic.c **** *  related LIN Slave API functions.
 443:Generated_Source\PSoC4/LIN_Dynamic.c **** *
 444:Generated_Source\PSoC4/LIN_Dynamic.c **** * NOTE This function is defined only for Main Instance in the project
 445:Generated_Source\PSoC4/LIN_Dynamic.c **** * with multiple LIN instances.
 446:Generated_Source\PSoC4/LIN_Dynamic.c **** *
 447:Generated_Source\PSoC4/LIN_Dynamic.c **** * Parameters:
 448:Generated_Source\PSoC4/LIN_Dynamic.c **** *  iii - The name of the interface handle.
 449:Generated_Source\PSoC4/LIN_Dynamic.c **** *
 450:Generated_Source\PSoC4/LIN_Dynamic.c **** * Return:
 451:Generated_Source\PSoC4/LIN_Dynamic.c **** *  0 is returned if the operation succeeded, 1 if an invalid operation
 452:Generated_Source\PSoC4/LIN_Dynamic.c **** *  parameter was passed to the function.
 453:Generated_Source\PSoC4/LIN_Dynamic.c **** *
 454:Generated_Source\PSoC4/LIN_Dynamic.c **** ******************************************************************************/
 455:Generated_Source\PSoC4/LIN_Dynamic.c **** l_bool l_ifc_init(l_ifc_handle iii)
 456:Generated_Source\PSoC4/LIN_Dynamic.c **** {
 203              		.loc 1 456 0
 204              		.cfi_startproc
 205              		@ args = 0, pretend = 0, frame = 0
 206              		@ frame_needed = 0, uses_anonymous_args = 0
 207              	.LVL11:
 208 0000 10B5     		push	{r4, lr}
 209              		.cfi_def_cfa_offset 8
 210              		.cfi_offset 4, -8
 211              		.cfi_offset 14, -4
 457:Generated_Source\PSoC4/LIN_Dynamic.c ****     l_bool returnValue;
 458:Generated_Source\PSoC4/LIN_Dynamic.c **** 
 459:Generated_Source\PSoC4/LIN_Dynamic.c ****     switch(iii)
 212              		.loc 1 459 0
 213 0002 0028     		cmp	r0, #0
 214 0004 02D1     		bne	.L14
 460:Generated_Source\PSoC4/LIN_Dynamic.c ****     {
 461:Generated_Source\PSoC4/LIN_Dynamic.c ****         case LINS_IFC_HANDLE:
 462:Generated_Source\PSoC4/LIN_Dynamic.c ****             returnValue = l_ifc_init_LINS();
 215              		.loc 1 462 0
 216 0006 FFF7FEFF 		bl	l_ifc_init_LINS
 217              	.LVL12:
 463:Generated_Source\PSoC4/LIN_Dynamic.c ****         break;
 218              		.loc 1 463 0
 219 000a 00E0     		b	.L11
 220              	.LVL13:
ARM GAS  C:\Users\jagumiel\AppData\Local\Temp\ccut8RYQ.s 			page 13


 221              	.L14:
 464:Generated_Source\PSoC4/LIN_Dynamic.c **** 
 465:Generated_Source\PSoC4/LIN_Dynamic.c ****         #if(LINS_IS_MULTI_INSTANCE)
 466:Generated_Source\PSoC4/LIN_Dynamic.c ****             /* Goes here if interface 1 is specified */
 467:Generated_Source\PSoC4/LIN_Dynamic.c ****             case NOT_DEFINED_IFC_HANDLE:
 468:Generated_Source\PSoC4/LIN_Dynamic.c ****                 returnValue = l_ifc_init_NOT_DEFINED();
 469:Generated_Source\PSoC4/LIN_Dynamic.c ****             break;
 470:Generated_Source\PSoC4/LIN_Dynamic.c ****         #endif /* (LINS_IS_MULTI_INSTANCE) */
 471:Generated_Source\PSoC4/LIN_Dynamic.c **** 
 472:Generated_Source\PSoC4/LIN_Dynamic.c ****         default:
 473:Generated_Source\PSoC4/LIN_Dynamic.c ****             /* Unknown interface handle */
 474:Generated_Source\PSoC4/LIN_Dynamic.c ****             returnValue = LINS_TRUE;
 222              		.loc 1 474 0
 223 000c 0120     		movs	r0, #1
 224              	.LVL14:
 225              	.L11:
 475:Generated_Source\PSoC4/LIN_Dynamic.c ****         break;
 476:Generated_Source\PSoC4/LIN_Dynamic.c ****     }
 477:Generated_Source\PSoC4/LIN_Dynamic.c **** 
 478:Generated_Source\PSoC4/LIN_Dynamic.c ****     return (returnValue);
 479:Generated_Source\PSoC4/LIN_Dynamic.c **** }
 226              		.loc 1 479 0
 227              		@ sp needed
 228 000e 10BD     		pop	{r4, pc}
 229              		.cfi_endproc
 230              	.LFE6:
 231              		.size	l_ifc_init, .-l_ifc_init
 232              		.section	.text.l_ifc_wake_up,"ax",%progbits
 233              		.align	2
 234              		.global	l_ifc_wake_up
 235              		.code	16
 236              		.thumb_func
 237              		.type	l_ifc_wake_up, %function
 238              	l_ifc_wake_up:
 239              	.LFB7:
 480:Generated_Source\PSoC4/LIN_Dynamic.c **** 
 481:Generated_Source\PSoC4/LIN_Dynamic.c **** 
 482:Generated_Source\PSoC4/LIN_Dynamic.c **** /******************************************************************************
 483:Generated_Source\PSoC4/LIN_Dynamic.c **** * Function Name: l_ifc_wake_up
 484:Generated_Source\PSoC4/LIN_Dynamic.c **** *******************************************************************************
 485:Generated_Source\PSoC4/LIN_Dynamic.c **** *
 486:Generated_Source\PSoC4/LIN_Dynamic.c **** * Summary:
 487:Generated_Source\PSoC4/LIN_Dynamic.c **** *  This function transmits one wakeup signal. The wakeup signal is transmitted
 488:Generated_Source\PSoC4/LIN_Dynamic.c **** *  directly when this function is called. When you call this API function, the
 489:Generated_Source\PSoC4/LIN_Dynamic.c **** *  application is blocked until a wakeup signal is transmitted on the LIN bus.
 490:Generated_Source\PSoC4/LIN_Dynamic.c **** *  The CyDelayUs() function is used as the timing source. The delay is
 491:Generated_Source\PSoC4/LIN_Dynamic.c **** *  calculated based on the clock configuration entered in PSoC Creator.
 492:Generated_Source\PSoC4/LIN_Dynamic.c **** *
 493:Generated_Source\PSoC4/LIN_Dynamic.c **** * NOTE This function is defined only for Main Instance in the project
 494:Generated_Source\PSoC4/LIN_Dynamic.c **** *  with multiple LIN instances.
 495:Generated_Source\PSoC4/LIN_Dynamic.c **** *
 496:Generated_Source\PSoC4/LIN_Dynamic.c **** * Parameters:
 497:Generated_Source\PSoC4/LIN_Dynamic.c **** *  iii - The name of the interface handle.
 498:Generated_Source\PSoC4/LIN_Dynamic.c **** *
 499:Generated_Source\PSoC4/LIN_Dynamic.c **** ******************************************************************************/
 500:Generated_Source\PSoC4/LIN_Dynamic.c **** void l_ifc_wake_up(l_ifc_handle iii)
 501:Generated_Source\PSoC4/LIN_Dynamic.c **** {
ARM GAS  C:\Users\jagumiel\AppData\Local\Temp\ccut8RYQ.s 			page 14


 240              		.loc 1 501 0
 241              		.cfi_startproc
 242              		@ args = 0, pretend = 0, frame = 0
 243              		@ frame_needed = 0, uses_anonymous_args = 0
 244              	.LVL15:
 245 0000 10B5     		push	{r4, lr}
 246              		.cfi_def_cfa_offset 8
 247              		.cfi_offset 4, -8
 248              		.cfi_offset 14, -4
 502:Generated_Source\PSoC4/LIN_Dynamic.c ****     switch(iii)
 249              		.loc 1 502 0
 250 0002 0028     		cmp	r0, #0
 251 0004 01D1     		bne	.L15
 503:Generated_Source\PSoC4/LIN_Dynamic.c ****     {
 504:Generated_Source\PSoC4/LIN_Dynamic.c ****         case LINS_IFC_HANDLE:
 505:Generated_Source\PSoC4/LIN_Dynamic.c ****             l_ifc_wake_up_LINS();
 252              		.loc 1 505 0
 253 0006 FFF7FEFF 		bl	l_ifc_wake_up_LINS
 254              	.LVL16:
 255              	.L15:
 506:Generated_Source\PSoC4/LIN_Dynamic.c ****         break;
 507:Generated_Source\PSoC4/LIN_Dynamic.c **** 
 508:Generated_Source\PSoC4/LIN_Dynamic.c ****         #if(LINS_IS_MULTI_INSTANCE)
 509:Generated_Source\PSoC4/LIN_Dynamic.c ****             /* Goes here if interface 1 is specified. */
 510:Generated_Source\PSoC4/LIN_Dynamic.c ****             case NOT_DEFINED_IFC_HANDLE:
 511:Generated_Source\PSoC4/LIN_Dynamic.c ****                 l_ifc_wake_up_NOT_DEFINED();
 512:Generated_Source\PSoC4/LIN_Dynamic.c ****             break;
 513:Generated_Source\PSoC4/LIN_Dynamic.c ****         #endif /* (LINS_IS_MULTI_INSTANCE) */
 514:Generated_Source\PSoC4/LIN_Dynamic.c **** 
 515:Generated_Source\PSoC4/LIN_Dynamic.c ****         default:
 516:Generated_Source\PSoC4/LIN_Dynamic.c ****             /* Unknown interface handle - do nothing. */
 517:Generated_Source\PSoC4/LIN_Dynamic.c ****         break;
 518:Generated_Source\PSoC4/LIN_Dynamic.c ****     }
 519:Generated_Source\PSoC4/LIN_Dynamic.c **** }
 256              		.loc 1 519 0
 257              		@ sp needed
 258 000a 10BD     		pop	{r4, pc}
 259              		.cfi_endproc
 260              	.LFE7:
 261              		.size	l_ifc_wake_up, .-l_ifc_wake_up
 262              		.section	.text.l_ifc_ioctl,"ax",%progbits
 263              		.align	2
 264              		.global	l_ifc_ioctl
 265              		.code	16
 266              		.thumb_func
 267              		.type	l_ifc_ioctl, %function
 268              	l_ifc_ioctl:
 269              	.LFB8:
 520:Generated_Source\PSoC4/LIN_Dynamic.c **** 
 521:Generated_Source\PSoC4/LIN_Dynamic.c **** 
 522:Generated_Source\PSoC4/LIN_Dynamic.c **** /******************************************************************************
 523:Generated_Source\PSoC4/LIN_Dynamic.c **** * Function Name: l_ifc_ioctl
 524:Generated_Source\PSoC4/LIN_Dynamic.c **** *******************************************************************************
 525:Generated_Source\PSoC4/LIN_Dynamic.c **** *
 526:Generated_Source\PSoC4/LIN_Dynamic.c **** * Summary:
 527:Generated_Source\PSoC4/LIN_Dynamic.c **** *  This function controls functionality that is not covered by the other API
 528:Generated_Source\PSoC4/LIN_Dynamic.c **** *  calls. It is used for protocol specific parameters or hardware specific
ARM GAS  C:\Users\jagumiel\AppData\Local\Temp\ccut8RYQ.s 			page 15


 529:Generated_Source\PSoC4/LIN_Dynamic.c **** *  functionality. Example of such functionality can be to switch on/off the
 530:Generated_Source\PSoC4/LIN_Dynamic.c **** *  wake up signal detection.
 531:Generated_Source\PSoC4/LIN_Dynamic.c **** *
 532:Generated_Source\PSoC4/LIN_Dynamic.c **** * Parameters:
 533:Generated_Source\PSoC4/LIN_Dynamic.c **** *  iii - The name of the interface handle.
 534:Generated_Source\PSoC4/LIN_Dynamic.c **** *  op  - The operation that should be applied.
 535:Generated_Source\PSoC4/LIN_Dynamic.c **** *  pv  - The pointer to the optional parameter.
 536:Generated_Source\PSoC4/LIN_Dynamic.c **** *
 537:Generated_Source\PSoC4/LIN_Dynamic.c **** * Return:
 538:Generated_Source\PSoC4/LIN_Dynamic.c **** *  There is no error code value returned for operation selected. This means that
 539:Generated_Source\PSoC4/LIN_Dynamic.c **** *  you must ensure that the values passed into the function are correct.
 540:Generated_Source\PSoC4/LIN_Dynamic.c **** *
 541:Generated_Source\PSoC4/LIN_Dynamic.c **** *  L_IOCTL_READ_STATUS operation
 542:Generated_Source\PSoC4/LIN_Dynamic.c **** *  The first bit in this byte is the flag that indicates that there has been no
 543:Generated_Source\PSoC4/LIN_Dynamic.c **** *  signaling on the bus for a certain elapsed time (available when
 544:Generated_Source\PSoC4/LIN_Dynamic.c **** *  Bus Inactivity Timeout Detection option is enabled). If the elapsed time
 545:Generated_Source\PSoC4/LIN_Dynamic.c **** *  passes a certain threshold, then this flag is set. Calling this API clears
 546:Generated_Source\PSoC4/LIN_Dynamic.c **** *  all status bits after they are returned. The second bit is the flag that
 547:Generated_Source\PSoC4/LIN_Dynamic.c **** *  indicates that a Targeted Reset service request (0xB5) was received
 548:Generated_Source\PSoC4/LIN_Dynamic.c **** *  (when J2602-1 Compliance is enabled).
 549:Generated_Source\PSoC4/LIN_Dynamic.c **** *
 550:Generated_Source\PSoC4/LIN_Dynamic.c **** *  Symbolic Name : LINS_IOCTL_STS_BUS_INACTIVITY
 551:Generated_Source\PSoC4/LIN_Dynamic.c **** *  Value         : 0x0001u
 552:Generated_Source\PSoC4/LIN_Dynamic.c **** *  Description   : No signal was detected on the bus for a certain elapsed time
 553:Generated_Source\PSoC4/LIN_Dynamic.c **** *
 554:Generated_Source\PSoC4/LIN_Dynamic.c **** *  Symbolic Name : LINS_IOCTL_STS_TARGET_RESET
 555:Generated_Source\PSoC4/LIN_Dynamic.c **** *  Value         : 0x0002u
 556:Generated_Source\PSoC4/LIN_Dynamic.c **** *  Description   : Targeted Reset service request (0xB5) was received.
 557:Generated_Source\PSoC4/LIN_Dynamic.c **** *
 558:Generated_Source\PSoC4/LIN_Dynamic.c **** *  L_IOCTL_SET_BAUD_RATE operation
 559:Generated_Source\PSoC4/LIN_Dynamic.c **** *  0 is returned if the operation succeeded, 1 if an invalid operation
 560:Generated_Source\PSoC4/LIN_Dynamic.c **** *  parameter was passed to the function.
 561:Generated_Source\PSoC4/LIN_Dynamic.c **** *
 562:Generated_Source\PSoC4/LIN_Dynamic.c **** *  L_IOCTL_SLEEP operation
 563:Generated_Source\PSoC4/LIN_Dynamic.c **** *  0 is returned if the operation succeeded, 1 if an invalid operation
 564:Generated_Source\PSoC4/LIN_Dynamic.c **** *  parameter was passed to the function.
 565:Generated_Source\PSoC4/LIN_Dynamic.c **** *
 566:Generated_Source\PSoC4/LIN_Dynamic.c **** *  L_IOCTL_WAKEUP operation
 567:Generated_Source\PSoC4/LIN_Dynamic.c **** *  0 is returned if the operation succeeded, 1 if an invalid operation
 568:Generated_Source\PSoC4/LIN_Dynamic.c **** *  parameter was passed to the function.
 569:Generated_Source\PSoC4/LIN_Dynamic.c **** *
 570:Generated_Source\PSoC4/LIN_Dynamic.c **** *  L_IOCTL_SYNC_COUNTS operation
 571:Generated_Source\PSoC4/LIN_Dynamic.c **** *  Returns the current number of sync field timer counts.
 572:Generated_Source\PSoC4/LIN_Dynamic.c **** *
 573:Generated_Source\PSoC4/LIN_Dynamic.c **** *  L_IOCTL_SET_SERIAL_NUMBER operation
 574:Generated_Source\PSoC4/LIN_Dynamic.c **** *  0 is returned if the operation succeeded, 1 if an invalid operation
 575:Generated_Source\PSoC4/LIN_Dynamic.c **** *  parameter was passed to the function.
 576:Generated_Source\PSoC4/LIN_Dynamic.c **** *
 577:Generated_Source\PSoC4/LIN_Dynamic.c **** *******************************************************************************/
 578:Generated_Source\PSoC4/LIN_Dynamic.c **** l_u16 l_ifc_ioctl(l_ifc_handle iii, l_ioctl_op op, void* pv)
 579:Generated_Source\PSoC4/LIN_Dynamic.c **** {
 270              		.loc 1 579 0
 271              		.cfi_startproc
 272              		@ args = 0, pretend = 0, frame = 0
 273              		@ frame_needed = 0, uses_anonymous_args = 0
 274              	.LVL17:
 275 0000 10B5     		push	{r4, lr}
ARM GAS  C:\Users\jagumiel\AppData\Local\Temp\ccut8RYQ.s 			page 16


 276              		.cfi_def_cfa_offset 8
 277              		.cfi_offset 4, -8
 278              		.cfi_offset 14, -4
 279 0002 0B00     		movs	r3, r1
 580:Generated_Source\PSoC4/LIN_Dynamic.c ****     l_u16 returnValue;
 581:Generated_Source\PSoC4/LIN_Dynamic.c **** 
 582:Generated_Source\PSoC4/LIN_Dynamic.c ****     switch(iii)
 280              		.loc 1 582 0
 281 0004 0028     		cmp	r0, #0
 282 0006 04D1     		bne	.L22
 583:Generated_Source\PSoC4/LIN_Dynamic.c ****     {
 584:Generated_Source\PSoC4/LIN_Dynamic.c ****         case LINS_IFC_HANDLE:
 585:Generated_Source\PSoC4/LIN_Dynamic.c ****             returnValue = l_ifc_ioctl_LINS(op, pv);
 283              		.loc 1 585 0
 284 0008 1100     		movs	r1, r2
 285              	.LVL18:
 286 000a 1800     		movs	r0, r3
 287              	.LVL19:
 288 000c FFF7FEFF 		bl	l_ifc_ioctl_LINS
 289              	.LVL20:
 586:Generated_Source\PSoC4/LIN_Dynamic.c ****         break;
 290              		.loc 1 586 0
 291 0010 00E0     		b	.L19
 292              	.LVL21:
 293              	.L22:
 587:Generated_Source\PSoC4/LIN_Dynamic.c **** 
 588:Generated_Source\PSoC4/LIN_Dynamic.c ****         #if(LINS_IS_MULTI_INSTANCE)
 589:Generated_Source\PSoC4/LIN_Dynamic.c ****             /* Goes here if interface 1 is specified. */
 590:Generated_Source\PSoC4/LIN_Dynamic.c ****             case NOT_DEFINED_IFC_HANDLE:
 591:Generated_Source\PSoC4/LIN_Dynamic.c ****                 returnValue = l_ifc_ioctl_NOT_DEFINED(op, pv);
 592:Generated_Source\PSoC4/LIN_Dynamic.c ****             break;
 593:Generated_Source\PSoC4/LIN_Dynamic.c ****         #endif /* (LINS_IS_MULTI_INSTANCE) */
 594:Generated_Source\PSoC4/LIN_Dynamic.c **** 
 595:Generated_Source\PSoC4/LIN_Dynamic.c ****         default:
 596:Generated_Source\PSoC4/LIN_Dynamic.c ****             /* Unknown operation */
 597:Generated_Source\PSoC4/LIN_Dynamic.c ****             returnValue = (l_u16) CYRET_BAD_PARAM;
 294              		.loc 1 597 0
 295 0012 0120     		movs	r0, #1
 296              	.LVL22:
 297              	.L19:
 598:Generated_Source\PSoC4/LIN_Dynamic.c ****         break;
 599:Generated_Source\PSoC4/LIN_Dynamic.c ****     }
 600:Generated_Source\PSoC4/LIN_Dynamic.c **** 
 601:Generated_Source\PSoC4/LIN_Dynamic.c ****     return (returnValue);
 602:Generated_Source\PSoC4/LIN_Dynamic.c **** }
 298              		.loc 1 602 0
 299              		@ sp needed
 300 0014 10BD     		pop	{r4, pc}
 301              		.cfi_endproc
 302              	.LFE8:
 303              		.size	l_ifc_ioctl, .-l_ifc_ioctl
 304 0016 C046     		.section	.text.l_ifc_rx,"ax",%progbits
 305              		.align	2
 306              		.global	l_ifc_rx
 307              		.code	16
 308              		.thumb_func
 309              		.type	l_ifc_rx, %function
ARM GAS  C:\Users\jagumiel\AppData\Local\Temp\ccut8RYQ.s 			page 17


 310              	l_ifc_rx:
 311              	.LFB9:
 603:Generated_Source\PSoC4/LIN_Dynamic.c **** 
 604:Generated_Source\PSoC4/LIN_Dynamic.c **** 
 605:Generated_Source\PSoC4/LIN_Dynamic.c **** /******************************************************************************
 606:Generated_Source\PSoC4/LIN_Dynamic.c **** * Function Name: l_ifc_rx
 607:Generated_Source\PSoC4/LIN_Dynamic.c **** *******************************************************************************
 608:Generated_Source\PSoC4/LIN_Dynamic.c **** *
 609:Generated_Source\PSoC4/LIN_Dynamic.c **** * Summary:
 610:Generated_Source\PSoC4/LIN_Dynamic.c **** *  The LIN Slave component takes care of calling this API routine automatically.
 611:Generated_Source\PSoC4/LIN_Dynamic.c **** *  Therefore, this API routine must not be called by the application code.
 612:Generated_Source\PSoC4/LIN_Dynamic.c **** *
 613:Generated_Source\PSoC4/LIN_Dynamic.c **** * Parameters:
 614:Generated_Source\PSoC4/LIN_Dynamic.c **** *  iii - The name of the interface handle.
 615:Generated_Source\PSoC4/LIN_Dynamic.c **** *
 616:Generated_Source\PSoC4/LIN_Dynamic.c **** ******************************************************************************/
 617:Generated_Source\PSoC4/LIN_Dynamic.c **** void l_ifc_rx(l_ifc_handle iii)
 618:Generated_Source\PSoC4/LIN_Dynamic.c **** {
 312              		.loc 1 618 0
 313              		.cfi_startproc
 314              		@ args = 0, pretend = 0, frame = 0
 315              		@ frame_needed = 0, uses_anonymous_args = 0
 316              	.LVL23:
 317 0000 10B5     		push	{r4, lr}
 318              		.cfi_def_cfa_offset 8
 319              		.cfi_offset 4, -8
 320              		.cfi_offset 14, -4
 619:Generated_Source\PSoC4/LIN_Dynamic.c ****     switch(iii)
 321              		.loc 1 619 0
 322 0002 0028     		cmp	r0, #0
 323 0004 01D1     		bne	.L23
 620:Generated_Source\PSoC4/LIN_Dynamic.c ****     {
 621:Generated_Source\PSoC4/LIN_Dynamic.c ****         case LINS_IFC_HANDLE:
 622:Generated_Source\PSoC4/LIN_Dynamic.c ****             l_ifc_rx_LINS();
 324              		.loc 1 622 0
 325 0006 FFF7FEFF 		bl	l_ifc_rx_LINS
 326              	.LVL24:
 327              	.L23:
 623:Generated_Source\PSoC4/LIN_Dynamic.c ****         break;
 624:Generated_Source\PSoC4/LIN_Dynamic.c **** 
 625:Generated_Source\PSoC4/LIN_Dynamic.c ****         #if(LINS_IS_MULTI_INSTANCE)
 626:Generated_Source\PSoC4/LIN_Dynamic.c ****             case NOT_DEFINED_IFC_HANDLE:
 627:Generated_Source\PSoC4/LIN_Dynamic.c ****                 l_ifc_rx_NOT_DEFINED();
 628:Generated_Source\PSoC4/LIN_Dynamic.c ****             break;
 629:Generated_Source\PSoC4/LIN_Dynamic.c ****         #endif /* (LINS_IS_MULTI_INSTANCE) */
 630:Generated_Source\PSoC4/LIN_Dynamic.c **** 
 631:Generated_Source\PSoC4/LIN_Dynamic.c ****         default:
 632:Generated_Source\PSoC4/LIN_Dynamic.c ****         break;
 633:Generated_Source\PSoC4/LIN_Dynamic.c ****     }
 634:Generated_Source\PSoC4/LIN_Dynamic.c **** }
 328              		.loc 1 634 0
 329              		@ sp needed
 330 000a 10BD     		pop	{r4, pc}
 331              		.cfi_endproc
 332              	.LFE9:
 333              		.size	l_ifc_rx, .-l_ifc_rx
 334              		.section	.text.l_ifc_tx,"ax",%progbits
ARM GAS  C:\Users\jagumiel\AppData\Local\Temp\ccut8RYQ.s 			page 18


 335              		.align	2
 336              		.global	l_ifc_tx
 337              		.code	16
 338              		.thumb_func
 339              		.type	l_ifc_tx, %function
 340              	l_ifc_tx:
 341              	.LFB10:
 635:Generated_Source\PSoC4/LIN_Dynamic.c **** 
 636:Generated_Source\PSoC4/LIN_Dynamic.c **** 
 637:Generated_Source\PSoC4/LIN_Dynamic.c **** /******************************************************************************
 638:Generated_Source\PSoC4/LIN_Dynamic.c **** * Function Name: l_ifc_tx
 639:Generated_Source\PSoC4/LIN_Dynamic.c **** *******************************************************************************
 640:Generated_Source\PSoC4/LIN_Dynamic.c **** *
 641:Generated_Source\PSoC4/LIN_Dynamic.c **** * Summary:
 642:Generated_Source\PSoC4/LIN_Dynamic.c **** *  The LIN Slave component takes care of calling this API routine automatically.
 643:Generated_Source\PSoC4/LIN_Dynamic.c **** *  Therefore, this API routine must not be called by the application code.
 644:Generated_Source\PSoC4/LIN_Dynamic.c **** *
 645:Generated_Source\PSoC4/LIN_Dynamic.c **** * Parameters:
 646:Generated_Source\PSoC4/LIN_Dynamic.c **** *  iii - is the name of the interface handle.
 647:Generated_Source\PSoC4/LIN_Dynamic.c **** *
 648:Generated_Source\PSoC4/LIN_Dynamic.c **** ******************************************************************************/
 649:Generated_Source\PSoC4/LIN_Dynamic.c **** void l_ifc_tx(l_ifc_handle iii)
 650:Generated_Source\PSoC4/LIN_Dynamic.c **** {
 342              		.loc 1 650 0
 343              		.cfi_startproc
 344              		@ args = 0, pretend = 0, frame = 0
 345              		@ frame_needed = 0, uses_anonymous_args = 0
 346              	.LVL25:
 347 0000 10B5     		push	{r4, lr}
 348              		.cfi_def_cfa_offset 8
 349              		.cfi_offset 4, -8
 350              		.cfi_offset 14, -4
 651:Generated_Source\PSoC4/LIN_Dynamic.c ****     switch(iii)
 351              		.loc 1 651 0
 352 0002 0028     		cmp	r0, #0
 353 0004 01D1     		bne	.L26
 652:Generated_Source\PSoC4/LIN_Dynamic.c ****     {
 653:Generated_Source\PSoC4/LIN_Dynamic.c ****         case LINS_IFC_HANDLE:
 654:Generated_Source\PSoC4/LIN_Dynamic.c ****             l_ifc_tx_LINS();
 354              		.loc 1 654 0
 355 0006 FFF7FEFF 		bl	l_ifc_tx_LINS
 356              	.LVL26:
 357              	.L26:
 655:Generated_Source\PSoC4/LIN_Dynamic.c ****         break;
 656:Generated_Source\PSoC4/LIN_Dynamic.c **** 
 657:Generated_Source\PSoC4/LIN_Dynamic.c ****         #if(LINS_IS_MULTI_INSTANCE)
 658:Generated_Source\PSoC4/LIN_Dynamic.c ****             case NOT_DEFINED_IFC_HANDLE:
 659:Generated_Source\PSoC4/LIN_Dynamic.c ****                 l_ifc_tx_NOT_DEFINED();
 660:Generated_Source\PSoC4/LIN_Dynamic.c ****             break;
 661:Generated_Source\PSoC4/LIN_Dynamic.c ****         #endif /* (LINS_IS_MULTI_INSTANCE) */
 662:Generated_Source\PSoC4/LIN_Dynamic.c **** 
 663:Generated_Source\PSoC4/LIN_Dynamic.c ****         default:
 664:Generated_Source\PSoC4/LIN_Dynamic.c ****         break;
 665:Generated_Source\PSoC4/LIN_Dynamic.c ****     }
 666:Generated_Source\PSoC4/LIN_Dynamic.c **** }
 358              		.loc 1 666 0
 359              		@ sp needed
ARM GAS  C:\Users\jagumiel\AppData\Local\Temp\ccut8RYQ.s 			page 19


 360 000a 10BD     		pop	{r4, pc}
 361              		.cfi_endproc
 362              	.LFE10:
 363              		.size	l_ifc_tx, .-l_ifc_tx
 364              		.section	.text.l_ifc_aux,"ax",%progbits
 365              		.align	2
 366              		.global	l_ifc_aux
 367              		.code	16
 368              		.thumb_func
 369              		.type	l_ifc_aux, %function
 370              	l_ifc_aux:
 371              	.LFB11:
 667:Generated_Source\PSoC4/LIN_Dynamic.c **** 
 668:Generated_Source\PSoC4/LIN_Dynamic.c **** 
 669:Generated_Source\PSoC4/LIN_Dynamic.c **** /******************************************************************************
 670:Generated_Source\PSoC4/LIN_Dynamic.c **** * Function Name: l_ifc_aux
 671:Generated_Source\PSoC4/LIN_Dynamic.c **** *******************************************************************************
 672:Generated_Source\PSoC4/LIN_Dynamic.c **** *
 673:Generated_Source\PSoC4/LIN_Dynamic.c **** * Summary:
 674:Generated_Source\PSoC4/LIN_Dynamic.c **** *  The LIN Slave component takes care of calling this API routine automatically.
 675:Generated_Source\PSoC4/LIN_Dynamic.c **** *  Therefore, this API routine must not be called by the application code.
 676:Generated_Source\PSoC4/LIN_Dynamic.c **** *
 677:Generated_Source\PSoC4/LIN_Dynamic.c **** * Parameters:
 678:Generated_Source\PSoC4/LIN_Dynamic.c **** *  iii - The name of the interface handle.
 679:Generated_Source\PSoC4/LIN_Dynamic.c **** *
 680:Generated_Source\PSoC4/LIN_Dynamic.c **** ******************************************************************************/
 681:Generated_Source\PSoC4/LIN_Dynamic.c **** void l_ifc_aux(l_ifc_handle iii)
 682:Generated_Source\PSoC4/LIN_Dynamic.c **** {
 372              		.loc 1 682 0
 373              		.cfi_startproc
 374              		@ args = 0, pretend = 0, frame = 0
 375              		@ frame_needed = 0, uses_anonymous_args = 0
 376              	.LVL27:
 377 0000 10B5     		push	{r4, lr}
 378              		.cfi_def_cfa_offset 8
 379              		.cfi_offset 4, -8
 380              		.cfi_offset 14, -4
 683:Generated_Source\PSoC4/LIN_Dynamic.c ****     switch(iii)
 381              		.loc 1 683 0
 382 0002 0028     		cmp	r0, #0
 383 0004 01D1     		bne	.L29
 684:Generated_Source\PSoC4/LIN_Dynamic.c ****     {
 685:Generated_Source\PSoC4/LIN_Dynamic.c ****         case LINS_IFC_HANDLE:
 686:Generated_Source\PSoC4/LIN_Dynamic.c ****             l_ifc_aux_LINS();
 384              		.loc 1 686 0
 385 0006 FFF7FEFF 		bl	l_ifc_aux_LINS
 386              	.LVL28:
 387              	.L29:
 687:Generated_Source\PSoC4/LIN_Dynamic.c ****         break;
 688:Generated_Source\PSoC4/LIN_Dynamic.c **** 
 689:Generated_Source\PSoC4/LIN_Dynamic.c ****         #if(LINS_IS_MULTI_INSTANCE)
 690:Generated_Source\PSoC4/LIN_Dynamic.c ****             /* Goes here if interface 1 is specified. */
 691:Generated_Source\PSoC4/LIN_Dynamic.c ****             case NOT_DEFINED_IFC_HANDLE:
 692:Generated_Source\PSoC4/LIN_Dynamic.c ****                 l_ifc_aux_NOT_DEFINED();
 693:Generated_Source\PSoC4/LIN_Dynamic.c ****             break;
 694:Generated_Source\PSoC4/LIN_Dynamic.c ****         #endif /* (LINS_IS_MULTI_INSTANCE) */
 695:Generated_Source\PSoC4/LIN_Dynamic.c **** 
ARM GAS  C:\Users\jagumiel\AppData\Local\Temp\ccut8RYQ.s 			page 20


 696:Generated_Source\PSoC4/LIN_Dynamic.c ****         default:
 697:Generated_Source\PSoC4/LIN_Dynamic.c ****         break;
 698:Generated_Source\PSoC4/LIN_Dynamic.c ****     }
 699:Generated_Source\PSoC4/LIN_Dynamic.c **** }
 388              		.loc 1 699 0
 389              		@ sp needed
 390 000a 10BD     		pop	{r4, pc}
 391              		.cfi_endproc
 392              	.LFE11:
 393              		.size	l_ifc_aux, .-l_ifc_aux
 394              		.section	.text.l_ifc_read_status,"ax",%progbits
 395              		.align	2
 396              		.global	l_ifc_read_status
 397              		.code	16
 398              		.thumb_func
 399              		.type	l_ifc_read_status, %function
 400              	l_ifc_read_status:
 401              	.LFB12:
 700:Generated_Source\PSoC4/LIN_Dynamic.c **** 
 701:Generated_Source\PSoC4/LIN_Dynamic.c **** 
 702:Generated_Source\PSoC4/LIN_Dynamic.c **** /******************************************************************************
 703:Generated_Source\PSoC4/LIN_Dynamic.c **** * Function Name: l_ifc_read_status
 704:Generated_Source\PSoC4/LIN_Dynamic.c **** *******************************************************************************
 705:Generated_Source\PSoC4/LIN_Dynamic.c **** *
 706:Generated_Source\PSoC4/LIN_Dynamic.c **** * Summary:
 707:Generated_Source\PSoC4/LIN_Dynamic.c **** *  This function is defined by the LIN specification. This returns the status of
 708:Generated_Source\PSoC4/LIN_Dynamic.c **** *  the specified LIN interface and then clears all status bits for that
 709:Generated_Source\PSoC4/LIN_Dynamic.c **** *  interface. See Section 7.2.5.8 of the LIN 2.1 specification.
 710:Generated_Source\PSoC4/LIN_Dynamic.c **** *
 711:Generated_Source\PSoC4/LIN_Dynamic.c **** *
 712:Generated_Source\PSoC4/LIN_Dynamic.c **** * Parameters:
 713:Generated_Source\PSoC4/LIN_Dynamic.c **** *  iii - The name of the interface handle.
 714:Generated_Source\PSoC4/LIN_Dynamic.c **** *
 715:Generated_Source\PSoC4/LIN_Dynamic.c **** * Return:
 716:Generated_Source\PSoC4/LIN_Dynamic.c **** *  The status bits of the specified LIN interface are returned. These bits have
 717:Generated_Source\PSoC4/LIN_Dynamic.c **** *  the following meanings:
 718:Generated_Source\PSoC4/LIN_Dynamic.c **** *    [15:8]    Last Received PID
 719:Generated_Source\PSoC4/LIN_Dynamic.c **** *    [7]        0
 720:Generated_Source\PSoC4/LIN_Dynamic.c **** *    [6]        Save Configuration flag
 721:Generated_Source\PSoC4/LIN_Dynamic.c **** *    [5]        0
 722:Generated_Source\PSoC4/LIN_Dynamic.c **** *    [4]        Bus Activity flag
 723:Generated_Source\PSoC4/LIN_Dynamic.c **** *    [3]        Go To Sleep flag
 724:Generated_Source\PSoC4/LIN_Dynamic.c **** *    [2]        Overrun flag
 725:Generated_Source\PSoC4/LIN_Dynamic.c **** *    [1]        Successful Transfer flag
 726:Generated_Source\PSoC4/LIN_Dynamic.c **** *    [0]        Error in Response flag
 727:Generated_Source\PSoC4/LIN_Dynamic.c **** *
 728:Generated_Source\PSoC4/LIN_Dynamic.c **** ******************************************************************************/
 729:Generated_Source\PSoC4/LIN_Dynamic.c **** l_u16 l_ifc_read_status(l_ifc_handle iii)
 730:Generated_Source\PSoC4/LIN_Dynamic.c **** {
 402              		.loc 1 730 0
 403              		.cfi_startproc
 404              		@ args = 0, pretend = 0, frame = 0
 405              		@ frame_needed = 0, uses_anonymous_args = 0
 406              	.LVL29:
 407 0000 10B5     		push	{r4, lr}
 408              		.cfi_def_cfa_offset 8
 409              		.cfi_offset 4, -8
ARM GAS  C:\Users\jagumiel\AppData\Local\Temp\ccut8RYQ.s 			page 21


 410              		.cfi_offset 14, -4
 731:Generated_Source\PSoC4/LIN_Dynamic.c ****     l_u16 returnValue;
 732:Generated_Source\PSoC4/LIN_Dynamic.c **** 
 733:Generated_Source\PSoC4/LIN_Dynamic.c ****     /* Determines which interface is specified. */
 734:Generated_Source\PSoC4/LIN_Dynamic.c ****     switch(iii)
 411              		.loc 1 734 0
 412 0002 0028     		cmp	r0, #0
 413 0004 02D1     		bne	.L36
 735:Generated_Source\PSoC4/LIN_Dynamic.c ****     {
 736:Generated_Source\PSoC4/LIN_Dynamic.c ****         /* Goes here if interface 0 is specified. */
 737:Generated_Source\PSoC4/LIN_Dynamic.c ****         case LINS_IFC_HANDLE:
 738:Generated_Source\PSoC4/LIN_Dynamic.c ****             returnValue = l_ifc_read_status_LINS();
 414              		.loc 1 738 0
 415 0006 FFF7FEFF 		bl	l_ifc_read_status_LINS
 416              	.LVL30:
 739:Generated_Source\PSoC4/LIN_Dynamic.c ****         break;
 417              		.loc 1 739 0
 418 000a 00E0     		b	.L33
 419              	.LVL31:
 420              	.L36:
 740:Generated_Source\PSoC4/LIN_Dynamic.c **** 
 741:Generated_Source\PSoC4/LIN_Dynamic.c ****         #if(LINS_IS_MULTI_INSTANCE)
 742:Generated_Source\PSoC4/LIN_Dynamic.c ****             /* Goes here if interface 1 is specified. */
 743:Generated_Source\PSoC4/LIN_Dynamic.c ****             case NOT_DEFINED_IFC_HANDLE:
 744:Generated_Source\PSoC4/LIN_Dynamic.c ****                 returnValue = l_ifc_read_status_NOT_DEFINED();
 745:Generated_Source\PSoC4/LIN_Dynamic.c ****             break;
 746:Generated_Source\PSoC4/LIN_Dynamic.c ****         #endif /* (LINS_IS_MULTI_INSTANCE) */
 747:Generated_Source\PSoC4/LIN_Dynamic.c **** 
 748:Generated_Source\PSoC4/LIN_Dynamic.c ****         default:
 749:Generated_Source\PSoC4/LIN_Dynamic.c ****             returnValue = (l_u16) CYRET_BAD_PARAM;
 421              		.loc 1 749 0
 422 000c 0120     		movs	r0, #1
 423              	.LVL32:
 424              	.L33:
 750:Generated_Source\PSoC4/LIN_Dynamic.c ****         break;
 751:Generated_Source\PSoC4/LIN_Dynamic.c ****     }
 752:Generated_Source\PSoC4/LIN_Dynamic.c **** 
 753:Generated_Source\PSoC4/LIN_Dynamic.c ****     return (returnValue);
 754:Generated_Source\PSoC4/LIN_Dynamic.c **** }
 425              		.loc 1 754 0
 426              		@ sp needed
 427 000e 10BD     		pop	{r4, pc}
 428              		.cfi_endproc
 429              	.LFE12:
 430              		.size	l_ifc_read_status, .-l_ifc_read_status
 431              		.section	.text.ld_init,"ax",%progbits
 432              		.align	2
 433              		.global	ld_init
 434              		.code	16
 435              		.thumb_func
 436              		.type	ld_init, %function
 437              	ld_init:
 438              	.LFB13:
 755:Generated_Source\PSoC4/LIN_Dynamic.c **** 
 756:Generated_Source\PSoC4/LIN_Dynamic.c **** 
 757:Generated_Source\PSoC4/LIN_Dynamic.c **** /******************************************************************************
 758:Generated_Source\PSoC4/LIN_Dynamic.c **** * LIN Transport layer API wrappers
ARM GAS  C:\Users\jagumiel\AppData\Local\Temp\ccut8RYQ.s 			page 22


 759:Generated_Source\PSoC4/LIN_Dynamic.c **** *******************************************************************************
 760:Generated_Source\PSoC4/LIN_Dynamic.c **** * Summary:
 761:Generated_Source\PSoC4/LIN_Dynamic.c **** *
 762:Generated_Source\PSoC4/LIN_Dynamic.c **** * The below wrappers are provided only for compatibility with LIN API TL.
 763:Generated_Source\PSoC4/LIN_Dynamic.c **** * Because LIN API defines only dynamic calls to TL API functions with the iii
 764:Generated_Source\PSoC4/LIN_Dynamic.c **** * interface as a parameter, these wrappers redirect the call to the "hidden"
 765:Generated_Source\PSoC4/LIN_Dynamic.c **** * static function ld_function_LINS(...).
 766:Generated_Source\PSoC4/LIN_Dynamic.c **** * It is supposed that the customer's code can directly call the static TL function
 767:Generated_Source\PSoC4/LIN_Dynamic.c **** * without using the below wrappers.
 768:Generated_Source\PSoC4/LIN_Dynamic.c **** *
 769:Generated_Source\PSoC4/LIN_Dynamic.c **** ******************************************************************************/
 770:Generated_Source\PSoC4/LIN_Dynamic.c **** 
 771:Generated_Source\PSoC4/LIN_Dynamic.c **** /******************************************************************************
 772:Generated_Source\PSoC4/LIN_Dynamic.c **** * Function Name: ld_init
 773:Generated_Source\PSoC4/LIN_Dynamic.c **** *******************************************************************************
 774:Generated_Source\PSoC4/LIN_Dynamic.c **** *
 775:Generated_Source\PSoC4/LIN_Dynamic.c **** * Summary:
 776:Generated_Source\PSoC4/LIN_Dynamic.c **** *  This call will (re)initialize the raw and the cooked layers on the interface
 777:Generated_Source\PSoC4/LIN_Dynamic.c **** *  iii.
 778:Generated_Source\PSoC4/LIN_Dynamic.c **** *
 779:Generated_Source\PSoC4/LIN_Dynamic.c **** *  All transport layer buffers will be initialized.
 780:Generated_Source\PSoC4/LIN_Dynamic.c **** *
 781:Generated_Source\PSoC4/LIN_Dynamic.c **** *  If there is an ongoing diagnostic frame transporting a cooked or raw message
 782:Generated_Source\PSoC4/LIN_Dynamic.c **** *  on the bus, it will not be aborted.
 783:Generated_Source\PSoC4/LIN_Dynamic.c **** *
 784:Generated_Source\PSoC4/LIN_Dynamic.c **** * Parameters:
 785:Generated_Source\PSoC4/LIN_Dynamic.c **** *  iii - Interface.
 786:Generated_Source\PSoC4/LIN_Dynamic.c **** *
 787:Generated_Source\PSoC4/LIN_Dynamic.c **** ******************************************************************************/
 788:Generated_Source\PSoC4/LIN_Dynamic.c **** void ld_init(l_ifc_handle iii)
 789:Generated_Source\PSoC4/LIN_Dynamic.c **** {
 439              		.loc 1 789 0
 440              		.cfi_startproc
 441              		@ args = 0, pretend = 0, frame = 0
 442              		@ frame_needed = 0, uses_anonymous_args = 0
 443              	.LVL33:
 444 0000 10B5     		push	{r4, lr}
 445              		.cfi_def_cfa_offset 8
 446              		.cfi_offset 4, -8
 447              		.cfi_offset 14, -4
 790:Generated_Source\PSoC4/LIN_Dynamic.c ****     switch(iii)
 448              		.loc 1 790 0
 449 0002 0028     		cmp	r0, #0
 450 0004 01D1     		bne	.L37
 791:Generated_Source\PSoC4/LIN_Dynamic.c ****     {
 792:Generated_Source\PSoC4/LIN_Dynamic.c ****         #if(1u == LINS_TL_ENABLED)        
 793:Generated_Source\PSoC4/LIN_Dynamic.c ****             case LINS_IFC_HANDLE:
 794:Generated_Source\PSoC4/LIN_Dynamic.c ****                 ld_init_LINS();
 451              		.loc 1 794 0
 452 0006 FFF7FEFF 		bl	ld_init_LINS
 453              	.LVL34:
 454              	.L37:
 795:Generated_Source\PSoC4/LIN_Dynamic.c ****             break;
 796:Generated_Source\PSoC4/LIN_Dynamic.c ****         #endif /* (1u == LINS_TL_ENABLED) */
 797:Generated_Source\PSoC4/LIN_Dynamic.c ****         
 798:Generated_Source\PSoC4/LIN_Dynamic.c ****         #if(LINS_IS_MULTI_INSTANCE)
 799:Generated_Source\PSoC4/LIN_Dynamic.c ****             #if(1u == NOT_DEFINED_TL_ENABLED)
ARM GAS  C:\Users\jagumiel\AppData\Local\Temp\ccut8RYQ.s 			page 23


 800:Generated_Source\PSoC4/LIN_Dynamic.c ****                 /* Go here is interface 1 is specified */
 801:Generated_Source\PSoC4/LIN_Dynamic.c ****                 case NOT_DEFINED_IFC_HANDLE:
 802:Generated_Source\PSoC4/LIN_Dynamic.c ****                     ld_init_NOT_DEFINED();
 803:Generated_Source\PSoC4/LIN_Dynamic.c ****                 break;
 804:Generated_Source\PSoC4/LIN_Dynamic.c ****             #endif /* (1u == NOT_DEFINED_TL_ENABLED) */
 805:Generated_Source\PSoC4/LIN_Dynamic.c ****         #endif /* (LINS_IS_MULTI_INSTANCE) */
 806:Generated_Source\PSoC4/LIN_Dynamic.c **** 
 807:Generated_Source\PSoC4/LIN_Dynamic.c ****         default:
 808:Generated_Source\PSoC4/LIN_Dynamic.c ****         break;
 809:Generated_Source\PSoC4/LIN_Dynamic.c ****     }
 810:Generated_Source\PSoC4/LIN_Dynamic.c **** }
 455              		.loc 1 810 0
 456              		@ sp needed
 457 000a 10BD     		pop	{r4, pc}
 458              		.cfi_endproc
 459              	.LFE13:
 460              		.size	ld_init, .-ld_init
 461              		.section	.text.ld_read_configuration,"ax",%progbits
 462              		.align	2
 463              		.global	ld_read_configuration
 464              		.code	16
 465              		.thumb_func
 466              		.type	ld_read_configuration, %function
 467              	ld_read_configuration:
 468              	.LFB14:
 811:Generated_Source\PSoC4/LIN_Dynamic.c **** 
 812:Generated_Source\PSoC4/LIN_Dynamic.c **** 
 813:Generated_Source\PSoC4/LIN_Dynamic.c **** /******************************************************************************
 814:Generated_Source\PSoC4/LIN_Dynamic.c **** * Function Name: ld_read_configuration
 815:Generated_Source\PSoC4/LIN_Dynamic.c **** ********************************************************************************
 816:Generated_Source\PSoC4/LIN_Dynamic.c **** *
 817:Generated_Source\PSoC4/LIN_Dynamic.c **** * Summary:
 818:Generated_Source\PSoC4/LIN_Dynamic.c **** *  This function is used to read the NAD and PID values from volatile memory.
 819:Generated_Source\PSoC4/LIN_Dynamic.c **** *  This function can be used to read the current configuration data, and then
 820:Generated_Source\PSoC4/LIN_Dynamic.c **** *  save this data into non-volatile (flash) memory. The application should save
 821:Generated_Source\PSoC4/LIN_Dynamic.c **** *  the configuration data to flash when the "Save Configuration" bit is set in
 822:Generated_Source\PSoC4/LIN_Dynamic.c **** *  the LIN status register (returned by l_ifc_read_status_).
 823:Generated_Source\PSoC4/LIN_Dynamic.c **** *  The configuration data that is read is a series of bytes. The first byte is
 824:Generated_Source\PSoC4/LIN_Dynamic.c **** *  the current NAD of the slave. The next bytes are the current PID values for
 825:Generated_Source\PSoC4/LIN_Dynamic.c **** *  the frames that the slave responds to. The PID values are in the order in
 826:Generated_Source\PSoC4/LIN_Dynamic.c **** *  which the frames appear in the LDF or NCF file.
 827:Generated_Source\PSoC4/LIN_Dynamic.c **** *
 828:Generated_Source\PSoC4/LIN_Dynamic.c **** * Parameters:
 829:Generated_Source\PSoC4/LIN_Dynamic.c **** *  iii - Interface.
 830:Generated_Source\PSoC4/LIN_Dynamic.c **** *
 831:Generated_Source\PSoC4/LIN_Dynamic.c **** * Return:
 832:Generated_Source\PSoC4/LIN_Dynamic.c **** *  LD_READ_OK - If the service was successful.
 833:Generated_Source\PSoC4/LIN_Dynamic.c **** *
 834:Generated_Source\PSoC4/LIN_Dynamic.c **** *  LD_LENGTH_TOO_SHORT - If the configuration size is greater than the length,
 835:Generated_Source\PSoC4/LIN_Dynamic.c **** *                        It means that the data area does not contain valid
 836:Generated_Source\PSoC4/LIN_Dynamic.c **** *                        configuration.
 837:Generated_Source\PSoC4/LIN_Dynamic.c **** *
 838:Generated_Source\PSoC4/LIN_Dynamic.c **** *******************************************************************************/
 839:Generated_Source\PSoC4/LIN_Dynamic.c **** l_u8 ld_read_configuration(l_ifc_handle iii, l_u8* pData, l_u8* const length)
 840:Generated_Source\PSoC4/LIN_Dynamic.c **** {
 469              		.loc 1 840 0
 470              		.cfi_startproc
ARM GAS  C:\Users\jagumiel\AppData\Local\Temp\ccut8RYQ.s 			page 24


 471              		@ args = 0, pretend = 0, frame = 0
 472              		@ frame_needed = 0, uses_anonymous_args = 0
 473              	.LVL35:
 474 0000 10B5     		push	{r4, lr}
 475              		.cfi_def_cfa_offset 8
 476              		.cfi_offset 4, -8
 477              		.cfi_offset 14, -4
 478 0002 0B00     		movs	r3, r1
 479              	.LVL36:
 841:Generated_Source\PSoC4/LIN_Dynamic.c ****     l_u8 returnValue = LINS_LD_READ_OK;
 842:Generated_Source\PSoC4/LIN_Dynamic.c **** 
 843:Generated_Source\PSoC4/LIN_Dynamic.c ****     #if((0u == LINS_TL_ENABLED) && \
 844:Generated_Source\PSoC4/LIN_Dynamic.c ****        ((0u == LINS_IS_MULTI_INSTANCE) || (1u != NOT_DEFINED_TL_ENABLED)))
 845:Generated_Source\PSoC4/LIN_Dynamic.c **** 
 846:Generated_Source\PSoC4/LIN_Dynamic.c ****         if((0u != iii) || (0u != *pData) || (0u != *length))
 847:Generated_Source\PSoC4/LIN_Dynamic.c ****         {
 848:Generated_Source\PSoC4/LIN_Dynamic.c ****             /* Suppresses the compiler warning. */
 849:Generated_Source\PSoC4/LIN_Dynamic.c ****         }
 850:Generated_Source\PSoC4/LIN_Dynamic.c **** 
 851:Generated_Source\PSoC4/LIN_Dynamic.c ****     #else
 852:Generated_Source\PSoC4/LIN_Dynamic.c **** 
 853:Generated_Source\PSoC4/LIN_Dynamic.c ****     switch(iii)
 480              		.loc 1 853 0
 481 0004 0028     		cmp	r0, #0
 482 0006 04D1     		bne	.L44
 854:Generated_Source\PSoC4/LIN_Dynamic.c ****     {
 855:Generated_Source\PSoC4/LIN_Dynamic.c ****         #if(1u == LINS_TL_ENABLED)
 856:Generated_Source\PSoC4/LIN_Dynamic.c ****             case LINS_IFC_HANDLE:
 857:Generated_Source\PSoC4/LIN_Dynamic.c ****                 returnValue = ld_read_configuration_LINS(pData, length);
 483              		.loc 1 857 0
 484 0008 1100     		movs	r1, r2
 485              	.LVL37:
 486 000a 1800     		movs	r0, r3
 487              	.LVL38:
 488 000c FFF7FEFF 		bl	ld_read_configuration_LINS
 489              	.LVL39:
 858:Generated_Source\PSoC4/LIN_Dynamic.c ****             break;
 490              		.loc 1 858 0
 491 0010 00E0     		b	.L41
 492              	.LVL40:
 493              	.L44:
 841:Generated_Source\PSoC4/LIN_Dynamic.c ****     l_u8 returnValue = LINS_LD_READ_OK;
 494              		.loc 1 841 0
 495 0012 0120     		movs	r0, #1
 496              	.LVL41:
 497              	.L41:
 859:Generated_Source\PSoC4/LIN_Dynamic.c ****         #endif /* (1u == LINS_TL_ENABLED) */
 860:Generated_Source\PSoC4/LIN_Dynamic.c **** 
 861:Generated_Source\PSoC4/LIN_Dynamic.c ****         #if(LINS_IS_MULTI_INSTANCE)
 862:Generated_Source\PSoC4/LIN_Dynamic.c ****             #if(1u == NOT_DEFINED_TL_ENABLED)
 863:Generated_Source\PSoC4/LIN_Dynamic.c ****                 /* Go here is interface 1 is specified */
 864:Generated_Source\PSoC4/LIN_Dynamic.c ****                 case NOT_DEFINED_IFC_HANDLE:
 865:Generated_Source\PSoC4/LIN_Dynamic.c ****                     returnValue = ld_read_configuration_NOT_DEFINED(pData, length);
 866:Generated_Source\PSoC4/LIN_Dynamic.c ****                 break;
 867:Generated_Source\PSoC4/LIN_Dynamic.c ****             #endif /* (1u == NOT_DEFINED_TL_ENABLED) */
 868:Generated_Source\PSoC4/LIN_Dynamic.c ****         #endif /* (LINS_IS_MULTI_INSTANCE) */
 869:Generated_Source\PSoC4/LIN_Dynamic.c **** 
ARM GAS  C:\Users\jagumiel\AppData\Local\Temp\ccut8RYQ.s 			page 25


 870:Generated_Source\PSoC4/LIN_Dynamic.c ****         default:
 871:Generated_Source\PSoC4/LIN_Dynamic.c ****         break;
 872:Generated_Source\PSoC4/LIN_Dynamic.c ****     }
 873:Generated_Source\PSoC4/LIN_Dynamic.c **** 
 874:Generated_Source\PSoC4/LIN_Dynamic.c ****     #endif /* ((0u == LINS_TL_ENABLED) || \
 875:Generated_Source\PSoC4/LIN_Dynamic.c ****               ((0u == LINS_IS_MULTI_INSTANCE) && (1u != NOT_DEFINED_TL_ENABLED))) */
 876:Generated_Source\PSoC4/LIN_Dynamic.c ****     
 877:Generated_Source\PSoC4/LIN_Dynamic.c ****     return(returnValue);
 878:Generated_Source\PSoC4/LIN_Dynamic.c **** }
 498              		.loc 1 878 0
 499              		@ sp needed
 500 0014 10BD     		pop	{r4, pc}
 501              		.cfi_endproc
 502              	.LFE14:
 503              		.size	ld_read_configuration, .-ld_read_configuration
 504 0016 C046     		.section	.text.ld_set_configuration,"ax",%progbits
 505              		.align	2
 506              		.global	ld_set_configuration
 507              		.code	16
 508              		.thumb_func
 509              		.type	ld_set_configuration, %function
 510              	ld_set_configuration:
 511              	.LFB15:
 879:Generated_Source\PSoC4/LIN_Dynamic.c **** 
 880:Generated_Source\PSoC4/LIN_Dynamic.c **** 
 881:Generated_Source\PSoC4/LIN_Dynamic.c **** /******************************************************************************
 882:Generated_Source\PSoC4/LIN_Dynamic.c **** * Function Name: ld_set_configuration
 883:Generated_Source\PSoC4/LIN_Dynamic.c **** *******************************************************************************
 884:Generated_Source\PSoC4/LIN_Dynamic.c **** *
 885:Generated_Source\PSoC4/LIN_Dynamic.c **** * Summary:
 886:Generated_Source\PSoC4/LIN_Dynamic.c **** *  This call does not transport anything on the bus.
 887:Generated_Source\PSoC4/LIN_Dynamic.c **** *
 888:Generated_Source\PSoC4/LIN_Dynamic.c **** *  The function configures the NAD and the PIDs according to the
 889:Generated_Source\PSoC4/LIN_Dynamic.c **** *  configuration given by data. The intended usage is to restore a saved
 890:Generated_Source\PSoC4/LIN_Dynamic.c **** *  configuration or set an initial configuration (e.g. coded by I/O pins).
 891:Generated_Source\PSoC4/LIN_Dynamic.c **** *
 892:Generated_Source\PSoC4/LIN_Dynamic.c **** *  The function is called after calling l_ifc_init.
 893:Generated_Source\PSoC4/LIN_Dynamic.c **** *
 894:Generated_Source\PSoC4/LIN_Dynamic.c **** *  The caller sets the size of the data area before calling the function.
 895:Generated_Source\PSoC4/LIN_Dynamic.c **** *
 896:Generated_Source\PSoC4/LIN_Dynamic.c **** *  The data contains the NAD and the PIDs and occupies one byte each.
 897:Generated_Source\PSoC4/LIN_Dynamic.c **** *  The structure of the data is: NAD and then all PIDs for the frames.
 898:Generated_Source\PSoC4/LIN_Dynamic.c **** *  The order of the PIDs are the same as the frame list in the LDF,
 899:Generated_Source\PSoC4/LIN_Dynamic.c **** *  Section 9.2.2.2, and NCF, Section 8.2.5.
 900:Generated_Source\PSoC4/LIN_Dynamic.c **** *
 901:Generated_Source\PSoC4/LIN_Dynamic.c **** * Parameters:
 902:Generated_Source\PSoC4/LIN_Dynamic.c **** *  iii - Interface.
 903:Generated_Source\PSoC4/LIN_Dynamic.c **** *
 904:Generated_Source\PSoC4/LIN_Dynamic.c **** * Return:
 905:Generated_Source\PSoC4/LIN_Dynamic.c **** *  LD_SET_OK             - If the service was successful.
 906:Generated_Source\PSoC4/LIN_Dynamic.c **** *
 907:Generated_Source\PSoC4/LIN_Dynamic.c **** *  LD_LENGTH_NOT_CORRECT - If the required size of the configuration is not
 908:Generated_Source\PSoC4/LIN_Dynamic.c **** *                          equal to the given length.
 909:Generated_Source\PSoC4/LIN_Dynamic.c **** *
 910:Generated_Source\PSoC4/LIN_Dynamic.c **** *  LD_DATA_ERROR         - The set of configuration could not be set. An error
 911:Generated_Source\PSoC4/LIN_Dynamic.c **** *                          occurred while setting the configuration and the readback
 912:Generated_Source\PSoC4/LIN_Dynamic.c **** *                          configuration settings do not match the required settings.
ARM GAS  C:\Users\jagumiel\AppData\Local\Temp\ccut8RYQ.s 			page 26


 913:Generated_Source\PSoC4/LIN_Dynamic.c **** *
 914:Generated_Source\PSoC4/LIN_Dynamic.c **** *  _volatileConfig - New frame PIDs are copied.
 915:Generated_Source\PSoC4/LIN_Dynamic.c **** *
 916:Generated_Source\PSoC4/LIN_Dynamic.c **** ******************************************************************************/
 917:Generated_Source\PSoC4/LIN_Dynamic.c **** l_u8 ld_set_configuration(l_ifc_handle iii, const l_u8* const pData, l_u16 length)
 918:Generated_Source\PSoC4/LIN_Dynamic.c **** {
 512              		.loc 1 918 0
 513              		.cfi_startproc
 514              		@ args = 0, pretend = 0, frame = 0
 515              		@ frame_needed = 0, uses_anonymous_args = 0
 516              	.LVL42:
 517 0000 10B5     		push	{r4, lr}
 518              		.cfi_def_cfa_offset 8
 519              		.cfi_offset 4, -8
 520              		.cfi_offset 14, -4
 521 0002 0B00     		movs	r3, r1
 522              	.LVL43:
 919:Generated_Source\PSoC4/LIN_Dynamic.c ****     l_u8 returnValue = LINS_LD_SET_OK;
 920:Generated_Source\PSoC4/LIN_Dynamic.c **** 
 921:Generated_Source\PSoC4/LIN_Dynamic.c ****     #if((0u == LINS_TL_ENABLED) && \
 922:Generated_Source\PSoC4/LIN_Dynamic.c ****        ((0u == LINS_IS_MULTI_INSTANCE) || (1u != NOT_DEFINED_TL_ENABLED)))
 923:Generated_Source\PSoC4/LIN_Dynamic.c **** 
 924:Generated_Source\PSoC4/LIN_Dynamic.c ****         if((0u != iii) || (0u != *pData) || (0u != length))
 925:Generated_Source\PSoC4/LIN_Dynamic.c ****         {
 926:Generated_Source\PSoC4/LIN_Dynamic.c ****             /* Suppresses the compiler warning. */
 927:Generated_Source\PSoC4/LIN_Dynamic.c ****         }
 928:Generated_Source\PSoC4/LIN_Dynamic.c **** 
 929:Generated_Source\PSoC4/LIN_Dynamic.c ****     #else
 930:Generated_Source\PSoC4/LIN_Dynamic.c **** 
 931:Generated_Source\PSoC4/LIN_Dynamic.c ****         switch(iii)
 523              		.loc 1 931 0
 524 0004 0028     		cmp	r0, #0
 525 0006 04D1     		bne	.L49
 932:Generated_Source\PSoC4/LIN_Dynamic.c ****         {
 933:Generated_Source\PSoC4/LIN_Dynamic.c ****             #if(1u == LINS_TL_ENABLED)
 934:Generated_Source\PSoC4/LIN_Dynamic.c ****                 case LINS_IFC_HANDLE:
 935:Generated_Source\PSoC4/LIN_Dynamic.c ****                     returnValue = ld_set_configuration_LINS(pData, length);
 526              		.loc 1 935 0
 527 0008 1100     		movs	r1, r2
 528              	.LVL44:
 529 000a 1800     		movs	r0, r3
 530              	.LVL45:
 531 000c FFF7FEFF 		bl	ld_set_configuration_LINS
 532              	.LVL46:
 936:Generated_Source\PSoC4/LIN_Dynamic.c ****                 break;
 533              		.loc 1 936 0
 534 0010 00E0     		b	.L46
 535              	.LVL47:
 536              	.L49:
 919:Generated_Source\PSoC4/LIN_Dynamic.c ****     l_u8 returnValue = LINS_LD_SET_OK;
 537              		.loc 1 919 0
 538 0012 0120     		movs	r0, #1
 539              	.LVL48:
 540              	.L46:
 937:Generated_Source\PSoC4/LIN_Dynamic.c ****             #endif /* (1u == LINS_TL_ENABLED) */
 938:Generated_Source\PSoC4/LIN_Dynamic.c **** 
 939:Generated_Source\PSoC4/LIN_Dynamic.c ****             #if(LINS_IS_MULTI_INSTANCE)
ARM GAS  C:\Users\jagumiel\AppData\Local\Temp\ccut8RYQ.s 			page 27


 940:Generated_Source\PSoC4/LIN_Dynamic.c ****                 #if(1u == NOT_DEFINED_TL_ENABLED)
 941:Generated_Source\PSoC4/LIN_Dynamic.c ****                     /* Go here is interface 1 is specified */
 942:Generated_Source\PSoC4/LIN_Dynamic.c ****                     case NOT_DEFINED_IFC_HANDLE:
 943:Generated_Source\PSoC4/LIN_Dynamic.c ****                         returnValue = ld_set_configuration_NOT_DEFINED(pData, length);
 944:Generated_Source\PSoC4/LIN_Dynamic.c ****                     break;
 945:Generated_Source\PSoC4/LIN_Dynamic.c ****                 #endif /* (1u == NOT_DEFINED_TL_ENABLED) */
 946:Generated_Source\PSoC4/LIN_Dynamic.c ****             #endif /* (NOT_DEFINED_IS_MULTI_INSTANCE) */
 947:Generated_Source\PSoC4/LIN_Dynamic.c **** 
 948:Generated_Source\PSoC4/LIN_Dynamic.c ****             default:
 949:Generated_Source\PSoC4/LIN_Dynamic.c ****             break;
 950:Generated_Source\PSoC4/LIN_Dynamic.c ****         }
 951:Generated_Source\PSoC4/LIN_Dynamic.c **** 
 952:Generated_Source\PSoC4/LIN_Dynamic.c ****     #endif /* ((0u == LINS_TL_ENABLED) && \
 953:Generated_Source\PSoC4/LIN_Dynamic.c ****               ((0u == LINS_IS_MULTI_INSTANCE) && (1u != NOT_DEFINED_TL_ENABLED))) */
 954:Generated_Source\PSoC4/LIN_Dynamic.c **** 
 955:Generated_Source\PSoC4/LIN_Dynamic.c ****     return(returnValue);
 956:Generated_Source\PSoC4/LIN_Dynamic.c **** }
 541              		.loc 1 956 0
 542              		@ sp needed
 543 0014 10BD     		pop	{r4, pc}
 544              		.cfi_endproc
 545              	.LFE15:
 546              		.size	ld_set_configuration, .-ld_set_configuration
 547 0016 C046     		.section	.text.ld_read_by_id_callout,"ax",%progbits
 548              		.align	2
 549              		.global	ld_read_by_id_callout
 550              		.code	16
 551              		.thumb_func
 552              		.type	ld_read_by_id_callout, %function
 553              	ld_read_by_id_callout:
 554              	.LFB16:
 957:Generated_Source\PSoC4/LIN_Dynamic.c **** 
 958:Generated_Source\PSoC4/LIN_Dynamic.c **** 
 959:Generated_Source\PSoC4/LIN_Dynamic.c **** /******************************************************************************
 960:Generated_Source\PSoC4/LIN_Dynamic.c **** * Function Name: ld_read_by_id_callout
 961:Generated_Source\PSoC4/LIN_Dynamic.c **** *******************************************************************************
 962:Generated_Source\PSoC4/LIN_Dynamic.c **** *
 963:Generated_Source\PSoC4/LIN_Dynamic.c **** * Summary:
 964:Generated_Source\PSoC4/LIN_Dynamic.c **** *  This callout is used when Master node transmits a Read by an identifier
 965:Generated_Source\PSoC4/LIN_Dynamic.c **** *  request with an identifier in the user-defined area. The Slave node
 966:Generated_Source\PSoC4/LIN_Dynamic.c **** *  application  is called from the driver when such a request is received.
 967:Generated_Source\PSoC4/LIN_Dynamic.c **** *
 968:Generated_Source\PSoC4/LIN_Dynamic.c **** * Parameters:
 969:Generated_Source\PSoC4/LIN_Dynamic.c **** *  iii        - Interface.
 970:Generated_Source\PSoC4/LIN_Dynamic.c **** *  id         - The ID parameter is the identifier in the user-defined area (32 to 63),
 971:Generated_Source\PSoC4/LIN_Dynamic.c **** *               from the Read by the identifier configuration request.
 972:Generated_Source\PSoC4/LIN_Dynamic.c **** *  frameData  - The data pointer points to a data area with 5 bytes. This area
 973:Generated_Source\PSoC4/LIN_Dynamic.c **** *               is used by the application to set up a positive response.
 974:Generated_Source\PSoC4/LIN_Dynamic.c **** *
 975:Generated_Source\PSoC4/LIN_Dynamic.c **** * Return:
 976:Generated_Source\PSoC4/LIN_Dynamic.c **** *  LD_NEGATIVE_RESPONSE - The slave node responds with a negative response.
 977:Generated_Source\PSoC4/LIN_Dynamic.c **** *                         The data area is not considered.
 978:Generated_Source\PSoC4/LIN_Dynamic.c **** *
 979:Generated_Source\PSoC4/LIN_Dynamic.c **** *  LD_POSTIVE_RESPONSE - Slave node sets up a positive response using
 980:Generated_Source\PSoC4/LIN_Dynamic.c **** *                        data provided by the application.
 981:Generated_Source\PSoC4/LIN_Dynamic.c **** *
 982:Generated_Source\PSoC4/LIN_Dynamic.c **** *  LD_NO_RESPONSE - Slave node will not answer.
ARM GAS  C:\Users\jagumiel\AppData\Local\Temp\ccut8RYQ.s 			page 28


 983:Generated_Source\PSoC4/LIN_Dynamic.c **** *
 984:Generated_Source\PSoC4/LIN_Dynamic.c **** ******************************************************************************/
 985:Generated_Source\PSoC4/LIN_Dynamic.c **** l_u8 ld_read_by_id_callout(l_ifc_handle iii, l_u8 id, l_u8* frameData)
 986:Generated_Source\PSoC4/LIN_Dynamic.c **** {
 555              		.loc 1 986 0
 556              		.cfi_startproc
 557              		@ args = 0, pretend = 0, frame = 0
 558              		@ frame_needed = 0, uses_anonymous_args = 0
 559              	.LVL49:
 560 0000 10B5     		push	{r4, lr}
 561              		.cfi_def_cfa_offset 8
 562              		.cfi_offset 4, -8
 563              		.cfi_offset 14, -4
 564 0002 0B00     		movs	r3, r1
 565              	.LVL50:
 987:Generated_Source\PSoC4/LIN_Dynamic.c ****     l_u8 returnValue = LD_NEGATIVE_RESPONSE;
 988:Generated_Source\PSoC4/LIN_Dynamic.c **** 
 989:Generated_Source\PSoC4/LIN_Dynamic.c ****     #if( ((1u != LINS_TL_ENABLED) || \
 990:Generated_Source\PSoC4/LIN_Dynamic.c ****           (1u != LINS_CS_ENABLED) || \
 991:Generated_Source\PSoC4/LIN_Dynamic.c ****           ((0u == (LINS_CS_SEL_SERVICES01 & LINS_NCS_0xB2_SEL)) && \
 992:Generated_Source\PSoC4/LIN_Dynamic.c ****            (0u == (LINS_CS_SEL_SERVICES01 & LINS_NCS_0xB3_SEL)))) \
 993:Generated_Source\PSoC4/LIN_Dynamic.c ****          && \
 994:Generated_Source\PSoC4/LIN_Dynamic.c ****          ((0u == LINS_IS_MULTI_INSTANCE) || \
 995:Generated_Source\PSoC4/LIN_Dynamic.c ****           (1u != NOT_DEFINED_TL_ENABLED) || \
 996:Generated_Source\PSoC4/LIN_Dynamic.c ****           (1u != NOT_DEFINED_CS_ENABLED) || \
 997:Generated_Source\PSoC4/LIN_Dynamic.c ****           ((0u == (NOT_DEFINED_CS_SEL_SERVICES01 & NOT_DEFINED_NCS_0xB2_SEL)) && \
 998:Generated_Source\PSoC4/LIN_Dynamic.c ****            (0u == (NOT_DEFINED_CS_SEL_SERVICES01 & NOT_DEFINED_NCS_0xB3_SEL)))) )
 999:Generated_Source\PSoC4/LIN_Dynamic.c **** 
1000:Generated_Source\PSoC4/LIN_Dynamic.c ****         if((0u != iii) || (0u != id) || (0u != *frameData))
1001:Generated_Source\PSoC4/LIN_Dynamic.c ****         {
1002:Generated_Source\PSoC4/LIN_Dynamic.c ****             /* Suppresses the compiler warning. */
1003:Generated_Source\PSoC4/LIN_Dynamic.c ****         }
1004:Generated_Source\PSoC4/LIN_Dynamic.c **** 
1005:Generated_Source\PSoC4/LIN_Dynamic.c ****     #else
1006:Generated_Source\PSoC4/LIN_Dynamic.c **** 
1007:Generated_Source\PSoC4/LIN_Dynamic.c ****         switch(iii)
 566              		.loc 1 1007 0
 567 0004 0028     		cmp	r0, #0
 568 0006 04D1     		bne	.L54
1008:Generated_Source\PSoC4/LIN_Dynamic.c ****         {
1009:Generated_Source\PSoC4/LIN_Dynamic.c ****             #if(1u == LINS_TL_ENABLED)
1010:Generated_Source\PSoC4/LIN_Dynamic.c ****                 #if(1u == LINS_CS_ENABLED)
1011:Generated_Source\PSoC4/LIN_Dynamic.c ****                     #if((0u != (LINS_CS_SEL_SERVICES01 & LINS_NCS_0xB2_SEL)) || \
1012:Generated_Source\PSoC4/LIN_Dynamic.c ****                         (0u != (LINS_CS_SEL_SERVICES01 & LINS_NCS_0xB3_SEL)))
1013:Generated_Source\PSoC4/LIN_Dynamic.c ****                         case LINS_IFC_HANDLE:
1014:Generated_Source\PSoC4/LIN_Dynamic.c ****                             returnValue = ld_read_by_id_callout_LINS(id,frameData);
 569              		.loc 1 1014 0
 570 0008 1100     		movs	r1, r2
 571              	.LVL51:
 572 000a 1800     		movs	r0, r3
 573              	.LVL52:
 574 000c FFF7FEFF 		bl	ld_read_by_id_callout_LINS
 575              	.LVL53:
1015:Generated_Source\PSoC4/LIN_Dynamic.c ****                         break;
 576              		.loc 1 1015 0
 577 0010 00E0     		b	.L51
 578              	.LVL54:
ARM GAS  C:\Users\jagumiel\AppData\Local\Temp\ccut8RYQ.s 			page 29


 579              	.L54:
 987:Generated_Source\PSoC4/LIN_Dynamic.c ****     l_u8 returnValue = LD_NEGATIVE_RESPONSE;
 580              		.loc 1 987 0
 581 0012 0020     		movs	r0, #0
 582              	.LVL55:
 583              	.L51:
1016:Generated_Source\PSoC4/LIN_Dynamic.c ****                     #endif /* ((0u != (LINS_CS_SEL_SERVICES01 & LINS_NCS_0xB2_SEL)) || \
1017:Generated_Source\PSoC4/LIN_Dynamic.c ****                               (0u != (LINS_CS_SEL_SERVICES01 & LINS_NCS_0xB3_SEL))) */
1018:Generated_Source\PSoC4/LIN_Dynamic.c ****                 #endif /* (1u == LINS_CS_ENABLED) */
1019:Generated_Source\PSoC4/LIN_Dynamic.c ****             #endif /* (1u == LINS_TL_ENABLED) */
1020:Generated_Source\PSoC4/LIN_Dynamic.c ****             
1021:Generated_Source\PSoC4/LIN_Dynamic.c ****             #if(LINS_IS_MULTI_INSTANCE)
1022:Generated_Source\PSoC4/LIN_Dynamic.c ****                 /* Goes here if interface 2 is specified. */
1023:Generated_Source\PSoC4/LIN_Dynamic.c ****                 #if(1u == NOT_DEFINED_TL_ENABLED)
1024:Generated_Source\PSoC4/LIN_Dynamic.c ****                     #if(1u == NOT_DEFINED_CS_ENABLED)
1025:Generated_Source\PSoC4/LIN_Dynamic.c ****                         #if((0u != (NOT_DEFINED_CS_SEL_SERVICES01 & NOT_DEFINED_NCS_0xB2_SEL)) || \
1026:Generated_Source\PSoC4/LIN_Dynamic.c ****                             (0u != (NOT_DEFINED_CS_SEL_SERVICES01 & NOT_DEFINED_NCS_0xB3_SEL)))
1027:Generated_Source\PSoC4/LIN_Dynamic.c ****                                 case NOT_DEFINED_IFC_HANDLE:
1028:Generated_Source\PSoC4/LIN_Dynamic.c ****                                     returnValue = ld_read_by_id_callout_NOT_DEFINED(id,frameData);
1029:Generated_Source\PSoC4/LIN_Dynamic.c ****                                 break;
1030:Generated_Source\PSoC4/LIN_Dynamic.c ****                         #endif /* ((0u != (NOT_DEFINED_CS_SEL_SERVICES01 & NOT_DEFINED_NCS_0xB2_SEL
1031:Generated_Source\PSoC4/LIN_Dynamic.c ****                             (0u != (NOT_DEFINED_CS_SEL_SERVICES01 & NOT_DEFINED_NCS_0xB3_SEL))) */
1032:Generated_Source\PSoC4/LIN_Dynamic.c ****                     #endif /* (1u == NOT_DEFINED_CS_ENABLED) */
1033:Generated_Source\PSoC4/LIN_Dynamic.c ****                 #endif /* (1u == NOT_DEFINED_TL_ENABLED) */
1034:Generated_Source\PSoC4/LIN_Dynamic.c ****             #endif /* (LINS_IS_MULTI_INSTANCE) */
1035:Generated_Source\PSoC4/LIN_Dynamic.c **** 
1036:Generated_Source\PSoC4/LIN_Dynamic.c ****             default:
1037:Generated_Source\PSoC4/LIN_Dynamic.c ****             break;
1038:Generated_Source\PSoC4/LIN_Dynamic.c ****         }
1039:Generated_Source\PSoC4/LIN_Dynamic.c **** 
1040:Generated_Source\PSoC4/LIN_Dynamic.c ****     #endif /* (1u != LINS_TL_ENABLED) */
1041:Generated_Source\PSoC4/LIN_Dynamic.c **** 
1042:Generated_Source\PSoC4/LIN_Dynamic.c ****     return(returnValue);
1043:Generated_Source\PSoC4/LIN_Dynamic.c **** }
 584              		.loc 1 1043 0
 585              		@ sp needed
 586 0014 10BD     		pop	{r4, pc}
 587              		.cfi_endproc
 588              	.LFE16:
 589              		.size	ld_read_by_id_callout, .-ld_read_by_id_callout
 590 0016 C046     		.section	.text.ld_send_message,"ax",%progbits
 591              		.align	2
 592              		.global	ld_send_message
 593              		.code	16
 594              		.thumb_func
 595              		.type	ld_send_message, %function
 596              	ld_send_message:
 597              	.LFB17:
1044:Generated_Source\PSoC4/LIN_Dynamic.c **** 
1045:Generated_Source\PSoC4/LIN_Dynamic.c **** 
1046:Generated_Source\PSoC4/LIN_Dynamic.c **** /******************************************************************************
1047:Generated_Source\PSoC4/LIN_Dynamic.c **** * Function Name: ld_send_message
1048:Generated_Source\PSoC4/LIN_Dynamic.c **** *******************************************************************************
1049:Generated_Source\PSoC4/LIN_Dynamic.c **** *
1050:Generated_Source\PSoC4/LIN_Dynamic.c **** * Summary:
1051:Generated_Source\PSoC4/LIN_Dynamic.c **** *  The call packs the information specified by data and length into one or
1052:Generated_Source\PSoC4/LIN_Dynamic.c **** *  multiple diagnostic frames. If a call is made in the Master node application,
ARM GAS  C:\Users\jagumiel\AppData\Local\Temp\ccut8RYQ.s 			page 30


1053:Generated_Source\PSoC4/LIN_Dynamic.c **** *  the frames are transmitted to Slave node with the address NAD. If a
1054:Generated_Source\PSoC4/LIN_Dynamic.c **** *  call is made in the Slave node application, the frames are transmitted to 
1055:Generated_Source\PSoC4/LIN_Dynamic.c **** *  Master node with the address NAD. The parameter NAD is not used in Slave
1056:Generated_Source\PSoC4/LIN_Dynamic.c **** *  nodes.
1057:Generated_Source\PSoC4/LIN_Dynamic.c **** *
1058:Generated_Source\PSoC4/LIN_Dynamic.c **** *  The value of the SID (or RSID) is the first byte in the data area.
1059:Generated_Source\PSoC4/LIN_Dynamic.c **** *
1060:Generated_Source\PSoC4/LIN_Dynamic.c **** *  The length must be in the range of 1 to 4095 bytes. The length also includes
1061:Generated_Source\PSoC4/LIN_Dynamic.c **** *  the SID (or RSID) value, i.e. message length plus one.
1062:Generated_Source\PSoC4/LIN_Dynamic.c **** *
1063:Generated_Source\PSoC4/LIN_Dynamic.c **** *  The call is asynchronous, i.e. not suspended until the message has been sent,
1064:Generated_Source\PSoC4/LIN_Dynamic.c **** *  and the buffer may not be changed by the application as long as calls to
1065:Generated_Source\PSoC4/LIN_Dynamic.c **** *  ld_tx_status returns LD_IN_PROGRESS.
1066:Generated_Source\PSoC4/LIN_Dynamic.c **** *
1067:Generated_Source\PSoC4/LIN_Dynamic.c **** *  The data is transmitted in suitable frames (Master request frame for Master
1068:Generated_Source\PSoC4/LIN_Dynamic.c **** *  nodes and Slave response frame for Slave nodes).
1069:Generated_Source\PSoC4/LIN_Dynamic.c **** *
1070:Generated_Source\PSoC4/LIN_Dynamic.c **** *  If there is a message in progress, the call will return with no action.
1071:Generated_Source\PSoC4/LIN_Dynamic.c **** *
1072:Generated_Source\PSoC4/LIN_Dynamic.c **** * Parameters:
1073:Generated_Source\PSoC4/LIN_Dynamic.c **** *  iii        - Interface.
1074:Generated_Source\PSoC4/LIN_Dynamic.c **** *  length     - The size of data to be sent in bytes.
1075:Generated_Source\PSoC4/LIN_Dynamic.c **** *  nad        - The address of Slave node to which data is sent.
1076:Generated_Source\PSoC4/LIN_Dynamic.c **** *  data       - The array of data to be sent. The value of the RSID is the first byte in
1077:Generated_Source\PSoC4/LIN_Dynamic.c **** *               the data area.
1078:Generated_Source\PSoC4/LIN_Dynamic.c **** *
1079:Generated_Source\PSoC4/LIN_Dynamic.c **** *******************************************************************************/
1080:Generated_Source\PSoC4/LIN_Dynamic.c **** void ld_send_message(l_ifc_handle iii, l_u16 length, l_u8 nad, const l_u8* const ld_data)
1081:Generated_Source\PSoC4/LIN_Dynamic.c **** {
 598              		.loc 1 1081 0
 599              		.cfi_startproc
 600              		@ args = 0, pretend = 0, frame = 0
 601              		@ frame_needed = 0, uses_anonymous_args = 0
 602              	.LVL56:
 603 0000 10B5     		push	{r4, lr}
 604              		.cfi_def_cfa_offset 8
 605              		.cfi_offset 4, -8
 606              		.cfi_offset 14, -4
 607 0002 0C00     		movs	r4, r1
 608 0004 1100     		movs	r1, r2
 609              	.LVL57:
1082:Generated_Source\PSoC4/LIN_Dynamic.c ****     /* The below switch statement is defined only when Transport layer with Cooked 
1083:Generated_Source\PSoC4/LIN_Dynamic.c ****     *  interface is enabled at least in one of the two possible component instances. 
1084:Generated_Source\PSoC4/LIN_Dynamic.c ****     */
1085:Generated_Source\PSoC4/LIN_Dynamic.c **** 
1086:Generated_Source\PSoC4/LIN_Dynamic.c ****     #if( ((1u != LINS_TL_ENABLED) || (1u != LINS_TL_API_FORMAT)) && \
1087:Generated_Source\PSoC4/LIN_Dynamic.c ****          ((0u == LINS_IS_MULTI_INSTANCE) || (1u != NOT_DEFINED_TL_ENABLED) || \
1088:Generated_Source\PSoC4/LIN_Dynamic.c ****           (1u != NOT_DEFINED_TL_API_FORMAT)) )
1089:Generated_Source\PSoC4/LIN_Dynamic.c **** 
1090:Generated_Source\PSoC4/LIN_Dynamic.c ****         if((0u != iii) || (0u != length) || (0u != nad) || (0u != *ld_data))
1091:Generated_Source\PSoC4/LIN_Dynamic.c ****         {
1092:Generated_Source\PSoC4/LIN_Dynamic.c ****             /* Suppresses the compiler warning. */
1093:Generated_Source\PSoC4/LIN_Dynamic.c ****         }
1094:Generated_Source\PSoC4/LIN_Dynamic.c **** 
1095:Generated_Source\PSoC4/LIN_Dynamic.c ****     #else
1096:Generated_Source\PSoC4/LIN_Dynamic.c **** 
1097:Generated_Source\PSoC4/LIN_Dynamic.c ****         switch(iii)
ARM GAS  C:\Users\jagumiel\AppData\Local\Temp\ccut8RYQ.s 			page 31


 610              		.loc 1 1097 0
 611 0006 0028     		cmp	r0, #0
 612 0008 03D1     		bne	.L55
1098:Generated_Source\PSoC4/LIN_Dynamic.c ****         {
1099:Generated_Source\PSoC4/LIN_Dynamic.c ****             #if(1u == LINS_TL_ENABLED)
1100:Generated_Source\PSoC4/LIN_Dynamic.c ****                 #if(1u == LINS_TL_API_FORMAT)
1101:Generated_Source\PSoC4/LIN_Dynamic.c ****                     case LINS_IFC_HANDLE:
1102:Generated_Source\PSoC4/LIN_Dynamic.c ****                         ld_send_message_LINS(length,nad, ld_data);
 613              		.loc 1 1102 0
 614 000a 1A00     		movs	r2, r3
 615              	.LVL58:
 616 000c 2000     		movs	r0, r4
 617              	.LVL59:
 618 000e FFF7FEFF 		bl	ld_send_message_LINS
 619              	.LVL60:
 620              	.L55:
1103:Generated_Source\PSoC4/LIN_Dynamic.c ****                     break;
1104:Generated_Source\PSoC4/LIN_Dynamic.c ****                     #endif /* (1u == LINS_TL_API_FORMAT) */
1105:Generated_Source\PSoC4/LIN_Dynamic.c ****                 #endif /* (1u == LINS_TL_ENABLED) */
1106:Generated_Source\PSoC4/LIN_Dynamic.c **** 
1107:Generated_Source\PSoC4/LIN_Dynamic.c ****             #if(LINS_IS_MULTI_INSTANCE)
1108:Generated_Source\PSoC4/LIN_Dynamic.c ****                 #if(1u == NOT_DEFINED_TL_ENABLED)
1109:Generated_Source\PSoC4/LIN_Dynamic.c ****                     #if(1u == NOT_DEFINED_TL_API_FORMAT)
1110:Generated_Source\PSoC4/LIN_Dynamic.c ****                        /* Goes here if interface 1 is specified. */
1111:Generated_Source\PSoC4/LIN_Dynamic.c ****                         case NOT_DEFINED_IFC_HANDLE:
1112:Generated_Source\PSoC4/LIN_Dynamic.c ****                             ld_send_message_NOT_DEFINED(length,nad,ld_data);
1113:Generated_Source\PSoC4/LIN_Dynamic.c ****                         break;
1114:Generated_Source\PSoC4/LIN_Dynamic.c ****                     #endif /* (1u == NOT_DEFINED_TL_API_FORMAT) */
1115:Generated_Source\PSoC4/LIN_Dynamic.c ****                 #endif /* (1u == NOT_DEFINED_TL_ENABLED) */
1116:Generated_Source\PSoC4/LIN_Dynamic.c ****             #endif /* (LINS_IS_MULTI_INSTANCE) */
1117:Generated_Source\PSoC4/LIN_Dynamic.c **** 
1118:Generated_Source\PSoC4/LIN_Dynamic.c ****             default:
1119:Generated_Source\PSoC4/LIN_Dynamic.c ****             break;
1120:Generated_Source\PSoC4/LIN_Dynamic.c ****         }
1121:Generated_Source\PSoC4/LIN_Dynamic.c **** 
1122:Generated_Source\PSoC4/LIN_Dynamic.c ****     #endif /* (1u != LINS_TL_ENABLED) */
1123:Generated_Source\PSoC4/LIN_Dynamic.c **** }
 621              		.loc 1 1123 0
 622              		@ sp needed
 623 0012 10BD     		pop	{r4, pc}
 624              		.cfi_endproc
 625              	.LFE17:
 626              		.size	ld_send_message, .-ld_send_message
 627              		.section	.text.ld_receive_message,"ax",%progbits
 628              		.align	2
 629              		.global	ld_receive_message
 630              		.code	16
 631              		.thumb_func
 632              		.type	ld_receive_message, %function
 633              	ld_receive_message:
 634              	.LFB18:
1124:Generated_Source\PSoC4/LIN_Dynamic.c **** 
1125:Generated_Source\PSoC4/LIN_Dynamic.c **** 
1126:Generated_Source\PSoC4/LIN_Dynamic.c **** /******************************************************************************
1127:Generated_Source\PSoC4/LIN_Dynamic.c **** * Function Name: ld_receive_message
1128:Generated_Source\PSoC4/LIN_Dynamic.c **** *******************************************************************************
1129:Generated_Source\PSoC4/LIN_Dynamic.c **** *
ARM GAS  C:\Users\jagumiel\AppData\Local\Temp\ccut8RYQ.s 			page 32


1130:Generated_Source\PSoC4/LIN_Dynamic.c **** * Summary:
1131:Generated_Source\PSoC4/LIN_Dynamic.c **** *  The call prepares the LIN diagnostic module to receive one message and store
1132:Generated_Source\PSoC4/LIN_Dynamic.c **** *  it in the buffer pointed to by data. in the call, length specifies the
1133:Generated_Source\PSoC4/LIN_Dynamic.c **** *  maximum length allowed. When the reception completes, the length changes
1134:Generated_Source\PSoC4/LIN_Dynamic.c **** *  to the actual length and NAD to the NAD in the message.
1135:Generated_Source\PSoC4/LIN_Dynamic.c **** *
1136:Generated_Source\PSoC4/LIN_Dynamic.c **** *  SID (or RSID) is the first byte in the data area.
1137:Generated_Source\PSoC4/LIN_Dynamic.c **** *
1138:Generated_Source\PSoC4/LIN_Dynamic.c **** *  The length is in the range of 1 to 4095 bytes, but never more than the value
1139:Generated_Source\PSoC4/LIN_Dynamic.c **** *  originally set in the call. SID (or RSID) is included in the length.
1140:Generated_Source\PSoC4/LIN_Dynamic.c **** *
1141:Generated_Source\PSoC4/LIN_Dynamic.c **** *  The parameter NAD is not used in Slave nodes.
1142:Generated_Source\PSoC4/LIN_Dynamic.c **** *
1143:Generated_Source\PSoC4/LIN_Dynamic.c **** *  The call is asynchronous, i.e. not suspended until the message is
1144:Generated_Source\PSoC4/LIN_Dynamic.c **** *  received, and the buffer may not be changed by the application as long as
1145:Generated_Source\PSoC4/LIN_Dynamic.c **** *  calls to ld_rx_status returns LD_IN_PROGRESS. If the call is made after the
1146:Generated_Source\PSoC4/LIN_Dynamic.c **** *  message transmission has commenced on the bus (i.e. the SF or FF is already
1147:Generated_Source\PSoC4/LIN_Dynamic.c **** *  transmitted), this message will not be received. Instead, the function will
1148:Generated_Source\PSoC4/LIN_Dynamic.c **** *  wait until the next message commence.
1149:Generated_Source\PSoC4/LIN_Dynamic.c **** *
1150:Generated_Source\PSoC4/LIN_Dynamic.c **** *  Data is received from the succeeding suitable frames (Master request
1151:Generated_Source\PSoC4/LIN_Dynamic.c **** *  frame for Slave nodes and Slave response frame for Master nodes).
1152:Generated_Source\PSoC4/LIN_Dynamic.c **** *
1153:Generated_Source\PSoC4/LIN_Dynamic.c **** *  The application monitors the ld_rx_status and does not call this
1154:Generated_Source\PSoC4/LIN_Dynamic.c **** *  function until the status is LD_COMPLETED. Otherwise, this function may  
1155:Generated_Source\PSoC4/LIN_Dynamic.c **** *  return inconsistent data in the parameters.
1156:Generated_Source\PSoC4/LIN_Dynamic.c **** *
1157:Generated_Source\PSoC4/LIN_Dynamic.c **** * Parameters:
1158:Generated_Source\PSoC4/LIN_Dynamic.c **** *  iii        - Interface.
1159:Generated_Source\PSoC4/LIN_Dynamic.c **** *  length     - Size of data to be received in bytes.
1160:Generated_Source\PSoC4/LIN_Dynamic.c **** *             - The NAD Address of Slave node from which data is received.
1161:Generated_Source\PSoC4/LIN_Dynamic.c **** *             - The data Array of data to be received. The value of the SID is the first byte
1162:Generated_Source\PSoC4/LIN_Dynamic.c **** *               in the data area.
1163:Generated_Source\PSoC4/LIN_Dynamic.c **** *
1164:Generated_Source\PSoC4/LIN_Dynamic.c **** ******************************************************************************/
1165:Generated_Source\PSoC4/LIN_Dynamic.c **** void ld_receive_message(l_ifc_handle iii, l_u16* const length, l_u8* const nad, l_u8* const ld_data
1166:Generated_Source\PSoC4/LIN_Dynamic.c **** {
 635              		.loc 1 1166 0
 636              		.cfi_startproc
 637              		@ args = 0, pretend = 0, frame = 0
 638              		@ frame_needed = 0, uses_anonymous_args = 0
 639              	.LVL61:
 640 0000 10B5     		push	{r4, lr}
 641              		.cfi_def_cfa_offset 8
 642              		.cfi_offset 4, -8
 643              		.cfi_offset 14, -4
 644 0002 0C00     		movs	r4, r1
 645 0004 1100     		movs	r1, r2
 646              	.LVL62:
1167:Generated_Source\PSoC4/LIN_Dynamic.c ****     /* The below switch statement is defined only when Transport layer with Cooked
1168:Generated_Source\PSoC4/LIN_Dynamic.c ****        interface is enabled at least in one of the two possible component instances. */
1169:Generated_Source\PSoC4/LIN_Dynamic.c **** 
1170:Generated_Source\PSoC4/LIN_Dynamic.c ****     #if( ((1u != LINS_TL_ENABLED) || (1u != LINS_TL_API_FORMAT)) && \
1171:Generated_Source\PSoC4/LIN_Dynamic.c ****          ((0u == LINS_IS_MULTI_INSTANCE) || (1u != NOT_DEFINED_TL_ENABLED) || \
1172:Generated_Source\PSoC4/LIN_Dynamic.c ****           (1u != NOT_DEFINED_TL_API_FORMAT)) )
1173:Generated_Source\PSoC4/LIN_Dynamic.c **** 
1174:Generated_Source\PSoC4/LIN_Dynamic.c ****         if((0u != iii) || (0u != *length) || (0u != *nad) || (0u != *ld_data))
ARM GAS  C:\Users\jagumiel\AppData\Local\Temp\ccut8RYQ.s 			page 33


1175:Generated_Source\PSoC4/LIN_Dynamic.c ****         {
1176:Generated_Source\PSoC4/LIN_Dynamic.c ****             /* Suppresses the compiler warning. */
1177:Generated_Source\PSoC4/LIN_Dynamic.c ****         }
1178:Generated_Source\PSoC4/LIN_Dynamic.c **** 
1179:Generated_Source\PSoC4/LIN_Dynamic.c ****     #else
1180:Generated_Source\PSoC4/LIN_Dynamic.c **** 
1181:Generated_Source\PSoC4/LIN_Dynamic.c ****         switch(iii)
 647              		.loc 1 1181 0
 648 0006 0028     		cmp	r0, #0
 649 0008 03D1     		bne	.L58
1182:Generated_Source\PSoC4/LIN_Dynamic.c ****         {
1183:Generated_Source\PSoC4/LIN_Dynamic.c ****             #if(1u == LINS_TL_ENABLED)
1184:Generated_Source\PSoC4/LIN_Dynamic.c ****                 #if(1u == LINS_TL_API_FORMAT)
1185:Generated_Source\PSoC4/LIN_Dynamic.c ****                     case LINS_IFC_HANDLE:
1186:Generated_Source\PSoC4/LIN_Dynamic.c ****                         ld_receive_message_LINS(length,nad, ld_data);
 650              		.loc 1 1186 0
 651 000a 1A00     		movs	r2, r3
 652              	.LVL63:
 653 000c 2000     		movs	r0, r4
 654              	.LVL64:
 655 000e FFF7FEFF 		bl	ld_receive_message_LINS
 656              	.LVL65:
 657              	.L58:
1187:Generated_Source\PSoC4/LIN_Dynamic.c ****                     break;
1188:Generated_Source\PSoC4/LIN_Dynamic.c ****                 #endif /* (1u == LINS_TL_API_FORMAT) */
1189:Generated_Source\PSoC4/LIN_Dynamic.c ****             #endif /* (1u == LINS_TL_ENABLED) */
1190:Generated_Source\PSoC4/LIN_Dynamic.c **** 
1191:Generated_Source\PSoC4/LIN_Dynamic.c ****             #if(LINS_IS_MULTI_INSTANCE)
1192:Generated_Source\PSoC4/LIN_Dynamic.c ****                 #if(1u == NOT_DEFINED_TL_ENABLED)
1193:Generated_Source\PSoC4/LIN_Dynamic.c ****                     #if(1u == NOT_DEFINED_TL_API_FORMAT)
1194:Generated_Source\PSoC4/LIN_Dynamic.c ****                         /* Goes here if interface 2 is specified. */
1195:Generated_Source\PSoC4/LIN_Dynamic.c ****                         case NOT_DEFINED_IFC_HANDLE:
1196:Generated_Source\PSoC4/LIN_Dynamic.c ****                             ld_receive_message_NOT_DEFINED(length,nad,ld_data);
1197:Generated_Source\PSoC4/LIN_Dynamic.c ****                         break;
1198:Generated_Source\PSoC4/LIN_Dynamic.c ****                     #endif /* (1u == NOT_DEFINED_TL_API_FORMAT) */
1199:Generated_Source\PSoC4/LIN_Dynamic.c ****                 #endif /* (1u == NOT_DEFINED_TL_ENABLED) */
1200:Generated_Source\PSoC4/LIN_Dynamic.c ****             #endif /* (LINS_IS_MULTI_INSTANCE) */
1201:Generated_Source\PSoC4/LIN_Dynamic.c **** 
1202:Generated_Source\PSoC4/LIN_Dynamic.c ****             default:
1203:Generated_Source\PSoC4/LIN_Dynamic.c ****             break;
1204:Generated_Source\PSoC4/LIN_Dynamic.c ****         }
1205:Generated_Source\PSoC4/LIN_Dynamic.c **** 
1206:Generated_Source\PSoC4/LIN_Dynamic.c ****     #endif /* (1u != LINS_TL_ENABLED) */
1207:Generated_Source\PSoC4/LIN_Dynamic.c **** }
 658              		.loc 1 1207 0
 659              		@ sp needed
 660              	.LVL66:
 661 0012 10BD     		pop	{r4, pc}
 662              		.cfi_endproc
 663              	.LFE18:
 664              		.size	ld_receive_message, .-ld_receive_message
 665              		.section	.text.ld_tx_status,"ax",%progbits
 666              		.align	2
 667              		.global	ld_tx_status
 668              		.code	16
 669              		.thumb_func
 670              		.type	ld_tx_status, %function
ARM GAS  C:\Users\jagumiel\AppData\Local\Temp\ccut8RYQ.s 			page 34


 671              	ld_tx_status:
 672              	.LFB19:
1208:Generated_Source\PSoC4/LIN_Dynamic.c **** 
1209:Generated_Source\PSoC4/LIN_Dynamic.c **** 
1210:Generated_Source\PSoC4/LIN_Dynamic.c **** /******************************************************************************
1211:Generated_Source\PSoC4/LIN_Dynamic.c **** * Function Name: ld_tx_status
1212:Generated_Source\PSoC4/LIN_Dynamic.c **** *******************************************************************************
1213:Generated_Source\PSoC4/LIN_Dynamic.c **** *
1214:Generated_Source\PSoC4/LIN_Dynamic.c **** * Summary:
1215:Generated_Source\PSoC4/LIN_Dynamic.c **** *  The call returns the status of the last call made to ld_send_message.
1216:Generated_Source\PSoC4/LIN_Dynamic.c **** *
1217:Generated_Source\PSoC4/LIN_Dynamic.c **** * Parameters:
1218:Generated_Source\PSoC4/LIN_Dynamic.c **** *  iii - Interface.
1219:Generated_Source\PSoC4/LIN_Dynamic.c **** *
1220:Generated_Source\PSoC4/LIN_Dynamic.c **** * Return:
1221:Generated_Source\PSoC4/LIN_Dynamic.c **** *  LD_IN_PROGRESS - The transmission is not yet completed.
1222:Generated_Source\PSoC4/LIN_Dynamic.c **** *
1223:Generated_Source\PSoC4/LIN_Dynamic.c **** *  LD_COMPLETED   - The transmission completed successfully (and you can
1224:Generated_Source\PSoC4/LIN_Dynamic.c **** *                   issue a new ld_send_message call). This value is also
1225:Generated_Source\PSoC4/LIN_Dynamic.c **** *                   returned after initialization of the Transport layer.
1226:Generated_Source\PSoC4/LIN_Dynamic.c **** *
1227:Generated_Source\PSoC4/LIN_Dynamic.c **** *  LD_FAILED      - The transmission ended in an error. The data was only partially
1228:Generated_Source\PSoC4/LIN_Dynamic.c **** *                   sent. Transport layer is re-initialized before
1229:Generated_Source\PSoC4/LIN_Dynamic.c **** *                   processing further messages. To find out why transmission
1230:Generated_Source\PSoC4/LIN_Dynamic.c **** *                   failed, check the status management function l_read_status.
1231:Generated_Source\PSoC4/LIN_Dynamic.c **** *
1232:Generated_Source\PSoC4/LIN_Dynamic.c **** *  LD_N_AS_TIMEOUT - The transmission failed because of an N_As timeout,
1233:Generated_Source\PSoC4/LIN_Dynamic.c **** *
1234:Generated_Source\PSoC4/LIN_Dynamic.c **** ******************************************************************************/
1235:Generated_Source\PSoC4/LIN_Dynamic.c **** l_u8 ld_tx_status(l_ifc_handle iii)
1236:Generated_Source\PSoC4/LIN_Dynamic.c **** {
 673              		.loc 1 1236 0
 674              		.cfi_startproc
 675              		@ args = 0, pretend = 0, frame = 0
 676              		@ frame_needed = 0, uses_anonymous_args = 0
 677              	.LVL67:
 678 0000 10B5     		push	{r4, lr}
 679              		.cfi_def_cfa_offset 8
 680              		.cfi_offset 4, -8
 681              		.cfi_offset 14, -4
 682              	.LVL68:
1237:Generated_Source\PSoC4/LIN_Dynamic.c ****     l_u8 returnValue = LD_COMPLETED;
1238:Generated_Source\PSoC4/LIN_Dynamic.c **** 
1239:Generated_Source\PSoC4/LIN_Dynamic.c ****     switch(iii)
 683              		.loc 1 1239 0
 684 0002 0028     		cmp	r0, #0
 685 0004 02D1     		bne	.L65
1240:Generated_Source\PSoC4/LIN_Dynamic.c ****     {
1241:Generated_Source\PSoC4/LIN_Dynamic.c ****         #if(1u == LINS_TL_ENABLED)
1242:Generated_Source\PSoC4/LIN_Dynamic.c ****             #if(1u == LINS_TL_API_FORMAT)
1243:Generated_Source\PSoC4/LIN_Dynamic.c ****                 case LINS_IFC_HANDLE:
1244:Generated_Source\PSoC4/LIN_Dynamic.c ****                     returnValue = ld_tx_status_LINS();
 686              		.loc 1 1244 0
 687 0006 FFF7FEFF 		bl	ld_tx_status_LINS
 688              	.LVL69:
1245:Generated_Source\PSoC4/LIN_Dynamic.c ****                 break;
 689              		.loc 1 1245 0
ARM GAS  C:\Users\jagumiel\AppData\Local\Temp\ccut8RYQ.s 			page 35


 690 000a 00E0     		b	.L62
 691              	.LVL70:
 692              	.L65:
1237:Generated_Source\PSoC4/LIN_Dynamic.c ****     l_u8 returnValue = LD_COMPLETED;
 693              		.loc 1 1237 0
 694 000c 0220     		movs	r0, #2
 695              	.LVL71:
 696              	.L62:
1246:Generated_Source\PSoC4/LIN_Dynamic.c ****                 #endif /* (1u == LINS_TL_API_FORMAT) */
1247:Generated_Source\PSoC4/LIN_Dynamic.c ****             #endif /* (1u == LINS_TL_ENABLED) */
1248:Generated_Source\PSoC4/LIN_Dynamic.c **** 
1249:Generated_Source\PSoC4/LIN_Dynamic.c ****         #if(LINS_IS_MULTI_INSTANCE)
1250:Generated_Source\PSoC4/LIN_Dynamic.c ****             #if(1u == NOT_DEFINED_TL_ENABLED)
1251:Generated_Source\PSoC4/LIN_Dynamic.c ****                 #if(1u == NOT_DEFINED_TL_API_FORMAT)
1252:Generated_Source\PSoC4/LIN_Dynamic.c ****                     /* Goes here if interface 1 is specified. */
1253:Generated_Source\PSoC4/LIN_Dynamic.c ****                     case NOT_DEFINED_IFC_HANDLE:
1254:Generated_Source\PSoC4/LIN_Dynamic.c ****                         returnValue = ld_tx_status_NOT_DEFINED();
1255:Generated_Source\PSoC4/LIN_Dynamic.c ****                     break;
1256:Generated_Source\PSoC4/LIN_Dynamic.c ****                 #endif /* (1u == NOT_DEFINED_TL_API_FORMAT) */
1257:Generated_Source\PSoC4/LIN_Dynamic.c ****             #endif /* (1u == NOT_DEFINED_TL_ENABLED) */
1258:Generated_Source\PSoC4/LIN_Dynamic.c ****         #endif /* (LINS_IS_MULTI_INSTANCE) */
1259:Generated_Source\PSoC4/LIN_Dynamic.c **** 
1260:Generated_Source\PSoC4/LIN_Dynamic.c ****         default:
1261:Generated_Source\PSoC4/LIN_Dynamic.c ****         break;
1262:Generated_Source\PSoC4/LIN_Dynamic.c ****     }
1263:Generated_Source\PSoC4/LIN_Dynamic.c **** 
1264:Generated_Source\PSoC4/LIN_Dynamic.c ****     return(returnValue);
1265:Generated_Source\PSoC4/LIN_Dynamic.c **** }
 697              		.loc 1 1265 0
 698              		@ sp needed
 699 000e 10BD     		pop	{r4, pc}
 700              		.cfi_endproc
 701              	.LFE19:
 702              		.size	ld_tx_status, .-ld_tx_status
 703              		.section	.text.ld_rx_status,"ax",%progbits
 704              		.align	2
 705              		.global	ld_rx_status
 706              		.code	16
 707              		.thumb_func
 708              		.type	ld_rx_status, %function
 709              	ld_rx_status:
 710              	.LFB20:
1266:Generated_Source\PSoC4/LIN_Dynamic.c **** 
1267:Generated_Source\PSoC4/LIN_Dynamic.c **** 
1268:Generated_Source\PSoC4/LIN_Dynamic.c **** /******************************************************************************
1269:Generated_Source\PSoC4/LIN_Dynamic.c **** * Function Name: ld_rx_status
1270:Generated_Source\PSoC4/LIN_Dynamic.c **** *******************************************************************************
1271:Generated_Source\PSoC4/LIN_Dynamic.c **** *
1272:Generated_Source\PSoC4/LIN_Dynamic.c **** * Summary:
1273:Generated_Source\PSoC4/LIN_Dynamic.c **** *  The call returns the status of the last call made to ld_receive_message.
1274:Generated_Source\PSoC4/LIN_Dynamic.c **** *
1275:Generated_Source\PSoC4/LIN_Dynamic.c **** * Parameters:
1276:Generated_Source\PSoC4/LIN_Dynamic.c **** *  iii - Interface.
1277:Generated_Source\PSoC4/LIN_Dynamic.c **** *
1278:Generated_Source\PSoC4/LIN_Dynamic.c **** * Return:
1279:Generated_Source\PSoC4/LIN_Dynamic.c **** *  LD_IN_PROGRESS - The reception is not yet completed.
1280:Generated_Source\PSoC4/LIN_Dynamic.c **** *
ARM GAS  C:\Users\jagumiel\AppData\Local\Temp\ccut8RYQ.s 			page 36


1281:Generated_Source\PSoC4/LIN_Dynamic.c **** *  LD_COMPLETED - The reception completed successfully and all information
1282:Generated_Source\PSoC4/LIN_Dynamic.c **** *                 (length, NAD, data) is available. (You can also issue a new
1283:Generated_Source\PSoC4/LIN_Dynamic.c **** *                 ld_receive_message call). This value is also returned after
1284:Generated_Source\PSoC4/LIN_Dynamic.c **** *                 initialization of Tansport layer.
1285:Generated_Source\PSoC4/LIN_Dynamic.c **** *
1286:Generated_Source\PSoC4/LIN_Dynamic.c **** *  LD_FAILED    - The reception ended in an error. The data was only partially
1287:Generated_Source\PSoC4/LIN_Dynamic.c **** *                 received and should not be trusted. Initialize before processing
1288:Generated_Source\PSoC4/LIN_Dynamic.c **** *                 further Transport layer messages. To find out why a reception
1289:Generated_Source\PSoC4/LIN_Dynamic.c **** *                 failed, check the status management function l_read_status.
1290:Generated_Source\PSoC4/LIN_Dynamic.c **** *
1291:Generated_Source\PSoC4/LIN_Dynamic.c **** *  LD_N_CR_TIMEOUT - The reception failed because of an N_Cr timeout,
1292:Generated_Source\PSoC4/LIN_Dynamic.c **** *
1293:Generated_Source\PSoC4/LIN_Dynamic.c **** *  LD_WRONG_SN     - The reception failed because of an unexpected sequence
1294:Generated_Source\PSoC4/LIN_Dynamic.c **** *                    number.
1295:Generated_Source\PSoC4/LIN_Dynamic.c **** *
1296:Generated_Source\PSoC4/LIN_Dynamic.c **** ******************************************************************************/
1297:Generated_Source\PSoC4/LIN_Dynamic.c **** l_u8 ld_rx_status(l_ifc_handle iii)
1298:Generated_Source\PSoC4/LIN_Dynamic.c **** {
 711              		.loc 1 1298 0
 712              		.cfi_startproc
 713              		@ args = 0, pretend = 0, frame = 0
 714              		@ frame_needed = 0, uses_anonymous_args = 0
 715              	.LVL72:
 716 0000 10B5     		push	{r4, lr}
 717              		.cfi_def_cfa_offset 8
 718              		.cfi_offset 4, -8
 719              		.cfi_offset 14, -4
 720              	.LVL73:
1299:Generated_Source\PSoC4/LIN_Dynamic.c ****     l_u8 returnValue = LD_COMPLETED;
1300:Generated_Source\PSoC4/LIN_Dynamic.c **** 
1301:Generated_Source\PSoC4/LIN_Dynamic.c ****     switch(iii)
 721              		.loc 1 1301 0
 722 0002 0028     		cmp	r0, #0
 723 0004 02D1     		bne	.L70
1302:Generated_Source\PSoC4/LIN_Dynamic.c ****     {
1303:Generated_Source\PSoC4/LIN_Dynamic.c ****         #if(1u == LINS_TL_ENABLED)
1304:Generated_Source\PSoC4/LIN_Dynamic.c ****             #if(1u == LINS_TL_API_FORMAT)
1305:Generated_Source\PSoC4/LIN_Dynamic.c ****                 case LINS_IFC_HANDLE:
1306:Generated_Source\PSoC4/LIN_Dynamic.c ****                     returnValue = ld_rx_status_LINS();
 724              		.loc 1 1306 0
 725 0006 FFF7FEFF 		bl	ld_rx_status_LINS
 726              	.LVL74:
1307:Generated_Source\PSoC4/LIN_Dynamic.c ****                 break;
 727              		.loc 1 1307 0
 728 000a 00E0     		b	.L67
 729              	.LVL75:
 730              	.L70:
1299:Generated_Source\PSoC4/LIN_Dynamic.c ****     l_u8 returnValue = LD_COMPLETED;
 731              		.loc 1 1299 0
 732 000c 0220     		movs	r0, #2
 733              	.LVL76:
 734              	.L67:
1308:Generated_Source\PSoC4/LIN_Dynamic.c ****             #endif /* (1u == LINS_TL_API_FORMAT) */
1309:Generated_Source\PSoC4/LIN_Dynamic.c ****         #endif /* (1u == LINS_TL_ENABLED) */
1310:Generated_Source\PSoC4/LIN_Dynamic.c **** 
1311:Generated_Source\PSoC4/LIN_Dynamic.c ****         #if(LINS_IS_MULTI_INSTANCE)
1312:Generated_Source\PSoC4/LIN_Dynamic.c ****             #if(1u == NOT_DEFINED_TL_ENABLED)
ARM GAS  C:\Users\jagumiel\AppData\Local\Temp\ccut8RYQ.s 			page 37


1313:Generated_Source\PSoC4/LIN_Dynamic.c ****                 #if(1u == NOT_DEFINED_TL_API_FORMAT)
1314:Generated_Source\PSoC4/LIN_Dynamic.c ****                     /* Goes here if interface 2 is specified. */
1315:Generated_Source\PSoC4/LIN_Dynamic.c ****                     case NOT_DEFINED_IFC_HANDLE:
1316:Generated_Source\PSoC4/LIN_Dynamic.c ****                         returnValue = ld_rx_status_NOT_DEFINED();
1317:Generated_Source\PSoC4/LIN_Dynamic.c ****                     break;
1318:Generated_Source\PSoC4/LIN_Dynamic.c ****                 #endif /* (1u == NOT_DEFINED_TL_API_FORMAT) */
1319:Generated_Source\PSoC4/LIN_Dynamic.c ****             #endif /* (1u == NOT_DEFINED_TL_ENABLED) */
1320:Generated_Source\PSoC4/LIN_Dynamic.c ****         #endif /* (LINS_IS_MULTI_INSTANCE) */
1321:Generated_Source\PSoC4/LIN_Dynamic.c **** 
1322:Generated_Source\PSoC4/LIN_Dynamic.c ****         default:
1323:Generated_Source\PSoC4/LIN_Dynamic.c ****         break;
1324:Generated_Source\PSoC4/LIN_Dynamic.c ****     }
1325:Generated_Source\PSoC4/LIN_Dynamic.c **** 
1326:Generated_Source\PSoC4/LIN_Dynamic.c ****     return(returnValue);
1327:Generated_Source\PSoC4/LIN_Dynamic.c **** }
 735              		.loc 1 1327 0
 736              		@ sp needed
 737 000e 10BD     		pop	{r4, pc}
 738              		.cfi_endproc
 739              	.LFE20:
 740              		.size	ld_rx_status, .-ld_rx_status
 741              		.section	.text.ld_put_raw,"ax",%progbits
 742              		.align	2
 743              		.global	ld_put_raw
 744              		.code	16
 745              		.thumb_func
 746              		.type	ld_put_raw, %function
 747              	ld_put_raw:
 748              	.LFB21:
1328:Generated_Source\PSoC4/LIN_Dynamic.c **** 
1329:Generated_Source\PSoC4/LIN_Dynamic.c **** 
1330:Generated_Source\PSoC4/LIN_Dynamic.c **** /******************************************************************************
1331:Generated_Source\PSoC4/LIN_Dynamic.c **** * Function Name: ld_put_raw
1332:Generated_Source\PSoC4/LIN_Dynamic.c **** *******************************************************************************
1333:Generated_Source\PSoC4/LIN_Dynamic.c **** *
1334:Generated_Source\PSoC4/LIN_Dynamic.c **** * Summary:
1335:Generated_Source\PSoC4/LIN_Dynamic.c **** *  The call queues the transmission of 8 bytes of data in one frame. Data
1336:Generated_Source\PSoC4/LIN_Dynamic.c **** *  is sent in the next suitable frame (Slave response frame). The data area
1337:Generated_Source\PSoC4/LIN_Dynamic.c **** *  is copied in the call, the pointer will not be memorized. If no more
1338:Generated_Source\PSoC4/LIN_Dynamic.c **** *  queue resources are available, the data may be jettisoned and the
1339:Generated_Source\PSoC4/LIN_Dynamic.c **** *  appropriate error status will be set.
1340:Generated_Source\PSoC4/LIN_Dynamic.c **** *
1341:Generated_Source\PSoC4/LIN_Dynamic.c **** * Parameters:
1342:Generated_Source\PSoC4/LIN_Dynamic.c **** *  iii - Interface.
1343:Generated_Source\PSoC4/LIN_Dynamic.c **** *  data - The array of data to be sent.
1344:Generated_Source\PSoC4/LIN_Dynamic.c **** *
1345:Generated_Source\PSoC4/LIN_Dynamic.c **** ******************************************************************************/
1346:Generated_Source\PSoC4/LIN_Dynamic.c **** void ld_put_raw(l_ifc_handle iii, const l_u8* const ld_data)
1347:Generated_Source\PSoC4/LIN_Dynamic.c **** {
 749              		.loc 1 1347 0
 750              		.cfi_startproc
 751              		@ args = 0, pretend = 0, frame = 0
 752              		@ frame_needed = 0, uses_anonymous_args = 0
 753              		@ link register save eliminated.
 754              	.LVL77:
1348:Generated_Source\PSoC4/LIN_Dynamic.c **** 
1349:Generated_Source\PSoC4/LIN_Dynamic.c ****     /* The below switch statement is defined only when Transport layer with Raw
ARM GAS  C:\Users\jagumiel\AppData\Local\Temp\ccut8RYQ.s 			page 38


1350:Generated_Source\PSoC4/LIN_Dynamic.c ****     *  interface is enabled at least in one of two possible component instances
1351:Generated_Source\PSoC4/LIN_Dynamic.c ****     */
1352:Generated_Source\PSoC4/LIN_Dynamic.c **** 
1353:Generated_Source\PSoC4/LIN_Dynamic.c ****     #if( ((1u != LINS_TL_ENABLED) || (1u == LINS_TL_API_FORMAT)) && \
1354:Generated_Source\PSoC4/LIN_Dynamic.c ****          ((0u == LINS_IS_MULTI_INSTANCE) || (1u != NOT_DEFINED_TL_ENABLED) || \
1355:Generated_Source\PSoC4/LIN_Dynamic.c ****           (1u == NOT_DEFINED_TL_API_FORMAT)) )
1356:Generated_Source\PSoC4/LIN_Dynamic.c **** 
1357:Generated_Source\PSoC4/LIN_Dynamic.c ****         if((0u != iii) || (0u != *ld_data))
1358:Generated_Source\PSoC4/LIN_Dynamic.c ****         {
1359:Generated_Source\PSoC4/LIN_Dynamic.c ****             /* Suppresses the compiler warning. */
1360:Generated_Source\PSoC4/LIN_Dynamic.c ****         }
1361:Generated_Source\PSoC4/LIN_Dynamic.c **** 
1362:Generated_Source\PSoC4/LIN_Dynamic.c ****     #else
1363:Generated_Source\PSoC4/LIN_Dynamic.c **** 
1364:Generated_Source\PSoC4/LIN_Dynamic.c ****         switch(iii)
1365:Generated_Source\PSoC4/LIN_Dynamic.c ****         {
1366:Generated_Source\PSoC4/LIN_Dynamic.c ****             #if(1u == LINS_TL_ENABLED)
1367:Generated_Source\PSoC4/LIN_Dynamic.c ****                 #if(1u != LINS_TL_API_FORMAT)
1368:Generated_Source\PSoC4/LIN_Dynamic.c ****                     case LINS_IFC_HANDLE:
1369:Generated_Source\PSoC4/LIN_Dynamic.c ****                         ld_put_raw_LINS(ld_data);
1370:Generated_Source\PSoC4/LIN_Dynamic.c ****                     break;                    
1371:Generated_Source\PSoC4/LIN_Dynamic.c ****                 #endif /* (1u != LINS_TL_API_FORMAT) */
1372:Generated_Source\PSoC4/LIN_Dynamic.c ****             #endif /* (1u == LINS_TL_ENABLED) */
1373:Generated_Source\PSoC4/LIN_Dynamic.c **** 
1374:Generated_Source\PSoC4/LIN_Dynamic.c ****             #if(LINS_IS_MULTI_INSTANCE)
1375:Generated_Source\PSoC4/LIN_Dynamic.c ****                 #if(1u == NOT_DEFINED_TL_ENABLED)
1376:Generated_Source\PSoC4/LIN_Dynamic.c ****                     #if(1u != NOT_DEFINED_TL_API_FORMAT)
1377:Generated_Source\PSoC4/LIN_Dynamic.c ****                         /* Goes here if interface 1 is specified. */
1378:Generated_Source\PSoC4/LIN_Dynamic.c ****                         case NOT_DEFINED_IFC_HANDLE:
1379:Generated_Source\PSoC4/LIN_Dynamic.c ****                             ld_put_raw_NOT_DEFINED(ld_data);
1380:Generated_Source\PSoC4/LIN_Dynamic.c ****                         break;
1381:Generated_Source\PSoC4/LIN_Dynamic.c ****                     #endif /* (1u != NOT_DEFINED_TL_API_FORMAT) */
1382:Generated_Source\PSoC4/LIN_Dynamic.c ****                 #endif /* (1u == NOT_DEFINED_TL_ENABLED) */
1383:Generated_Source\PSoC4/LIN_Dynamic.c ****             #endif /* (LINS_IS_MULTI_INSTANCE) */
1384:Generated_Source\PSoC4/LIN_Dynamic.c **** 
1385:Generated_Source\PSoC4/LIN_Dynamic.c ****             default:
1386:Generated_Source\PSoC4/LIN_Dynamic.c ****             break;
1387:Generated_Source\PSoC4/LIN_Dynamic.c ****         }
1388:Generated_Source\PSoC4/LIN_Dynamic.c **** 
1389:Generated_Source\PSoC4/LIN_Dynamic.c ****     #endif /* (1u != LINS_TL_ENABLED) */
1390:Generated_Source\PSoC4/LIN_Dynamic.c **** }
 755              		.loc 1 1390 0
 756              		@ sp needed
 757 0000 7047     		bx	lr
 758              		.cfi_endproc
 759              	.LFE21:
 760              		.size	ld_put_raw, .-ld_put_raw
 761 0002 C046     		.section	.text.ld_get_raw,"ax",%progbits
 762              		.align	2
 763              		.global	ld_get_raw
 764              		.code	16
 765              		.thumb_func
 766              		.type	ld_get_raw, %function
 767              	ld_get_raw:
 768              	.LFB22:
1391:Generated_Source\PSoC4/LIN_Dynamic.c **** 
1392:Generated_Source\PSoC4/LIN_Dynamic.c **** 
ARM GAS  C:\Users\jagumiel\AppData\Local\Temp\ccut8RYQ.s 			page 39


1393:Generated_Source\PSoC4/LIN_Dynamic.c **** /******************************************************************************
1394:Generated_Source\PSoC4/LIN_Dynamic.c **** * Function Name: ld_get_raw
1395:Generated_Source\PSoC4/LIN_Dynamic.c **** *******************************************************************************
1396:Generated_Source\PSoC4/LIN_Dynamic.c **** *
1397:Generated_Source\PSoC4/LIN_Dynamic.c **** * Summary:
1398:Generated_Source\PSoC4/LIN_Dynamic.c **** *  The call copies the oldest received diagnostic frame data to the memory
1399:Generated_Source\PSoC4/LIN_Dynamic.c **** *  specified by data. The data returned is received from master request frame
1400:Generated_Source\PSoC4/LIN_Dynamic.c **** *  If the receive queue is empty no data is copied.
1401:Generated_Source\PSoC4/LIN_Dynamic.c **** *
1402:Generated_Source\PSoC4/LIN_Dynamic.c **** * Parameters:
1403:Generated_Source\PSoC4/LIN_Dynamic.c **** *  iii - Interface.
1404:Generated_Source\PSoC4/LIN_Dynamic.c **** *  data - The array to which the oldest received diagnostic frame data is copied.
1405:Generated_Source\PSoC4/LIN_Dynamic.c **** *
1406:Generated_Source\PSoC4/LIN_Dynamic.c **** *******************************************************************************/
1407:Generated_Source\PSoC4/LIN_Dynamic.c **** void ld_get_raw(l_ifc_handle iii, l_u8* const ld_data)
1408:Generated_Source\PSoC4/LIN_Dynamic.c **** {
 769              		.loc 1 1408 0
 770              		.cfi_startproc
 771              		@ args = 0, pretend = 0, frame = 0
 772              		@ frame_needed = 0, uses_anonymous_args = 0
 773              		@ link register save eliminated.
 774              	.LVL78:
1409:Generated_Source\PSoC4/LIN_Dynamic.c ****     /* The below switch statement is defined only when Transport layer with Raw
1410:Generated_Source\PSoC4/LIN_Dynamic.c ****     *  interface is enabled at least in one of two possible component instances
1411:Generated_Source\PSoC4/LIN_Dynamic.c ****     */
1412:Generated_Source\PSoC4/LIN_Dynamic.c **** 
1413:Generated_Source\PSoC4/LIN_Dynamic.c ****     #if( ((1u != LINS_TL_ENABLED) || (1u == LINS_TL_API_FORMAT)) && \
1414:Generated_Source\PSoC4/LIN_Dynamic.c ****          ((0u == LINS_IS_MULTI_INSTANCE) || (1u != NOT_DEFINED_TL_ENABLED) || \
1415:Generated_Source\PSoC4/LIN_Dynamic.c ****           (1u == NOT_DEFINED_TL_API_FORMAT)) )
1416:Generated_Source\PSoC4/LIN_Dynamic.c **** 
1417:Generated_Source\PSoC4/LIN_Dynamic.c ****         if((0u != iii) || (0u != *ld_data))
1418:Generated_Source\PSoC4/LIN_Dynamic.c ****         {
1419:Generated_Source\PSoC4/LIN_Dynamic.c ****             /* Suppresses the compiler warning. */
1420:Generated_Source\PSoC4/LIN_Dynamic.c ****         }
1421:Generated_Source\PSoC4/LIN_Dynamic.c **** 
1422:Generated_Source\PSoC4/LIN_Dynamic.c ****     #else
1423:Generated_Source\PSoC4/LIN_Dynamic.c **** 
1424:Generated_Source\PSoC4/LIN_Dynamic.c ****         switch(iii)
1425:Generated_Source\PSoC4/LIN_Dynamic.c ****         {
1426:Generated_Source\PSoC4/LIN_Dynamic.c ****             #if(1u == LINS_TL_ENABLED)
1427:Generated_Source\PSoC4/LIN_Dynamic.c ****                 #if(1u != LINS_TL_API_FORMAT)
1428:Generated_Source\PSoC4/LIN_Dynamic.c ****                     case LINS_IFC_HANDLE:
1429:Generated_Source\PSoC4/LIN_Dynamic.c ****                         ld_get_raw_LINS(ld_data);
1430:Generated_Source\PSoC4/LIN_Dynamic.c ****                     break;
1431:Generated_Source\PSoC4/LIN_Dynamic.c ****                 #endif /* (1u != LINS_TL_API_FORMAT) */
1432:Generated_Source\PSoC4/LIN_Dynamic.c ****             #endif /* (1u == LINS_TL_ENABLED) */
1433:Generated_Source\PSoC4/LIN_Dynamic.c **** 
1434:Generated_Source\PSoC4/LIN_Dynamic.c ****             #if(LINS_IS_MULTI_INSTANCE)
1435:Generated_Source\PSoC4/LIN_Dynamic.c ****                 #if(1u == NOT_DEFINED_TL_ENABLED)
1436:Generated_Source\PSoC4/LIN_Dynamic.c ****                     #if(1u != NOT_DEFINED_TL_API_FORMAT)
1437:Generated_Source\PSoC4/LIN_Dynamic.c ****                         /* Goes here if interface 1 is specified. */
1438:Generated_Source\PSoC4/LIN_Dynamic.c ****                         case NOT_DEFINED_IFC_HANDLE:
1439:Generated_Source\PSoC4/LIN_Dynamic.c ****                             ld_get_raw_NOT_DEFINED(ld_data);
1440:Generated_Source\PSoC4/LIN_Dynamic.c ****                         break;
1441:Generated_Source\PSoC4/LIN_Dynamic.c ****                     #endif /* (1u != NOT_DEFINED_TL_API_FORMAT) */
1442:Generated_Source\PSoC4/LIN_Dynamic.c ****                 #endif /* (1u == NOT_DEFINED_TL_ENABLED) */
1443:Generated_Source\PSoC4/LIN_Dynamic.c ****             #endif /* (LINS_IS_MULTI_INSTANCE) */
ARM GAS  C:\Users\jagumiel\AppData\Local\Temp\ccut8RYQ.s 			page 40


1444:Generated_Source\PSoC4/LIN_Dynamic.c **** 
1445:Generated_Source\PSoC4/LIN_Dynamic.c ****             default:
1446:Generated_Source\PSoC4/LIN_Dynamic.c ****             break;
1447:Generated_Source\PSoC4/LIN_Dynamic.c ****         }
1448:Generated_Source\PSoC4/LIN_Dynamic.c **** 
1449:Generated_Source\PSoC4/LIN_Dynamic.c ****     #endif /* (1u != LINS_TL_ENABLED) */
1450:Generated_Source\PSoC4/LIN_Dynamic.c **** }
 775              		.loc 1 1450 0
 776              		@ sp needed
 777 0000 7047     		bx	lr
 778              		.cfi_endproc
 779              	.LFE22:
 780              		.size	ld_get_raw, .-ld_get_raw
 781 0002 C046     		.section	.text.ld_raw_tx_status,"ax",%progbits
 782              		.align	2
 783              		.global	ld_raw_tx_status
 784              		.code	16
 785              		.thumb_func
 786              		.type	ld_raw_tx_status, %function
 787              	ld_raw_tx_status:
 788              	.LFB23:
1451:Generated_Source\PSoC4/LIN_Dynamic.c **** 
1452:Generated_Source\PSoC4/LIN_Dynamic.c **** 
1453:Generated_Source\PSoC4/LIN_Dynamic.c **** /******************************************************************************
1454:Generated_Source\PSoC4/LIN_Dynamic.c **** * Function Name: ld_raw_tx_status
1455:Generated_Source\PSoC4/LIN_Dynamic.c **** *******************************************************************************
1456:Generated_Source\PSoC4/LIN_Dynamic.c **** *
1457:Generated_Source\PSoC4/LIN_Dynamic.c **** * Summary:
1458:Generated_Source\PSoC4/LIN_Dynamic.c **** *  The call returns the status of the raw frame transmission function.
1459:Generated_Source\PSoC4/LIN_Dynamic.c **** *
1460:Generated_Source\PSoC4/LIN_Dynamic.c **** * Parameters:
1461:Generated_Source\PSoC4/LIN_Dynamic.c **** *  iii - Interface.
1462:Generated_Source\PSoC4/LIN_Dynamic.c **** *
1463:Generated_Source\PSoC4/LIN_Dynamic.c **** * Return:
1464:Generated_Source\PSoC4/LIN_Dynamic.c **** *  Status:
1465:Generated_Source\PSoC4/LIN_Dynamic.c **** *   LD_QUEUE_EMPTY - The transmit queue is empty. If previous calls were to
1466:Generated_Source\PSoC4/LIN_Dynamic.c **** *   ld_put_raw, all the frames in the queue are transmitted.
1467:Generated_Source\PSoC4/LIN_Dynamic.c **** *
1468:Generated_Source\PSoC4/LIN_Dynamic.c **** *   LD_QUEUE_AVAILABLE - The transmit queue contains entries, but is not full.
1469:Generated_Source\PSoC4/LIN_Dynamic.c **** *
1470:Generated_Source\PSoC4/LIN_Dynamic.c **** *   LD_QUEUE_FULL - The transmit queue is full and can not accept further
1471:Generated_Source\PSoC4/LIN_Dynamic.c **** *   frames.
1472:Generated_Source\PSoC4/LIN_Dynamic.c **** *
1473:Generated_Source\PSoC4/LIN_Dynamic.c **** *   LD_TRANSMIT_ERROR - LIN protocol errors occurred during the transfer.
1474:Generated_Source\PSoC4/LIN_Dynamic.c **** *                       Initialize and redo the transfer.
1475:Generated_Source\PSoC4/LIN_Dynamic.c **** *
1476:Generated_Source\PSoC4/LIN_Dynamic.c **** ******************************************************************************/
1477:Generated_Source\PSoC4/LIN_Dynamic.c **** l_u8 ld_raw_tx_status(l_ifc_handle iii)
1478:Generated_Source\PSoC4/LIN_Dynamic.c **** {
 789              		.loc 1 1478 0
 790              		.cfi_startproc
 791              		@ args = 0, pretend = 0, frame = 0
 792              		@ frame_needed = 0, uses_anonymous_args = 0
 793              		@ link register save eliminated.
 794              	.LVL79:
1479:Generated_Source\PSoC4/LIN_Dynamic.c ****     l_u8 returnValue = LD_QUEUE_EMPTY;
1480:Generated_Source\PSoC4/LIN_Dynamic.c **** 
ARM GAS  C:\Users\jagumiel\AppData\Local\Temp\ccut8RYQ.s 			page 41


1481:Generated_Source\PSoC4/LIN_Dynamic.c ****     switch(iii)
1482:Generated_Source\PSoC4/LIN_Dynamic.c ****     {
1483:Generated_Source\PSoC4/LIN_Dynamic.c ****         #if(1u == LINS_TL_ENABLED)
1484:Generated_Source\PSoC4/LIN_Dynamic.c ****             #if(1u != LINS_TL_API_FORMAT)
1485:Generated_Source\PSoC4/LIN_Dynamic.c ****                 case LINS_IFC_HANDLE:
1486:Generated_Source\PSoC4/LIN_Dynamic.c ****                         returnValue = ld_raw_tx_status_LINS();
1487:Generated_Source\PSoC4/LIN_Dynamic.c ****                 break;
1488:Generated_Source\PSoC4/LIN_Dynamic.c ****             #endif /* (1u != LINS_TL_API_FORMAT) */
1489:Generated_Source\PSoC4/LIN_Dynamic.c ****         #endif /* (1u == LINS_TL_ENABLED) */
1490:Generated_Source\PSoC4/LIN_Dynamic.c **** 
1491:Generated_Source\PSoC4/LIN_Dynamic.c ****         #if(LINS_IS_MULTI_INSTANCE)
1492:Generated_Source\PSoC4/LIN_Dynamic.c ****             #if(1u == NOT_DEFINED_TL_ENABLED)
1493:Generated_Source\PSoC4/LIN_Dynamic.c ****                 #if(1u != NOT_DEFINED_TL_API_FORMAT)
1494:Generated_Source\PSoC4/LIN_Dynamic.c ****                     /* Goes here if interface 1 is specified. */
1495:Generated_Source\PSoC4/LIN_Dynamic.c ****                     case NOT_DEFINED_IFC_HANDLE:
1496:Generated_Source\PSoC4/LIN_Dynamic.c ****                         returnValue = ld_raw_tx_status_NOT_DEFINED();
1497:Generated_Source\PSoC4/LIN_Dynamic.c ****                     break;
1498:Generated_Source\PSoC4/LIN_Dynamic.c ****                 #endif /* (1u != NOT_DEFINED_TL_API_FORMAT) */
1499:Generated_Source\PSoC4/LIN_Dynamic.c ****             #endif /* (1u == NOT_DEFINED_TL_ENABLED) */
1500:Generated_Source\PSoC4/LIN_Dynamic.c ****         #endif /* (LINS_IS_MULTI_INSTANCE) */
1501:Generated_Source\PSoC4/LIN_Dynamic.c **** 
1502:Generated_Source\PSoC4/LIN_Dynamic.c ****         default:
1503:Generated_Source\PSoC4/LIN_Dynamic.c ****         break;
1504:Generated_Source\PSoC4/LIN_Dynamic.c ****     }
1505:Generated_Source\PSoC4/LIN_Dynamic.c **** 
1506:Generated_Source\PSoC4/LIN_Dynamic.c ****     return(returnValue);
1507:Generated_Source\PSoC4/LIN_Dynamic.c **** }
 795              		.loc 1 1507 0
 796 0000 0720     		movs	r0, #7
 797              	.LVL80:
 798              		@ sp needed
 799 0002 7047     		bx	lr
 800              		.cfi_endproc
 801              	.LFE23:
 802              		.size	ld_raw_tx_status, .-ld_raw_tx_status
 803              		.section	.text.ld_raw_rx_status,"ax",%progbits
 804              		.align	2
 805              		.global	ld_raw_rx_status
 806              		.code	16
 807              		.thumb_func
 808              		.type	ld_raw_rx_status, %function
 809              	ld_raw_rx_status:
 810              	.LFB24:
1508:Generated_Source\PSoC4/LIN_Dynamic.c **** 
1509:Generated_Source\PSoC4/LIN_Dynamic.c **** 
1510:Generated_Source\PSoC4/LIN_Dynamic.c **** /******************************************************************************
1511:Generated_Source\PSoC4/LIN_Dynamic.c **** * Function Name: _ld_raw_rx_status
1512:Generated_Source\PSoC4/LIN_Dynamic.c **** *******************************************************************************
1513:Generated_Source\PSoC4/LIN_Dynamic.c **** *
1514:Generated_Source\PSoC4/LIN_Dynamic.c **** * Summary:
1515:Generated_Source\PSoC4/LIN_Dynamic.c **** *  The call returns the status of the raw frame receive function.
1516:Generated_Source\PSoC4/LIN_Dynamic.c **** *
1517:Generated_Source\PSoC4/LIN_Dynamic.c **** * Parameters:
1518:Generated_Source\PSoC4/LIN_Dynamic.c **** *  iii - Interface.
1519:Generated_Source\PSoC4/LIN_Dynamic.c **** *
1520:Generated_Source\PSoC4/LIN_Dynamic.c **** * Return:
1521:Generated_Source\PSoC4/LIN_Dynamic.c **** *  Status:
ARM GAS  C:\Users\jagumiel\AppData\Local\Temp\ccut8RYQ.s 			page 42


1522:Generated_Source\PSoC4/LIN_Dynamic.c **** *   LD_NO_DATA        - The receive queue is empty.
1523:Generated_Source\PSoC4/LIN_Dynamic.c **** *
1524:Generated_Source\PSoC4/LIN_Dynamic.c **** *   LD_DATA_AVAILABLE - The receive queue contains data that can be read.
1525:Generated_Source\PSoC4/LIN_Dynamic.c **** *
1526:Generated_Source\PSoC4/LIN_Dynamic.c **** *   LD_RECEIVE_ERROR  - LIN protocol errors occurred during the transfer.
1527:Generated_Source\PSoC4/LIN_Dynamic.c **** *                       Initialize and redo the transfer.
1528:Generated_Source\PSoC4/LIN_Dynamic.c **** *
1529:Generated_Source\PSoC4/LIN_Dynamic.c **** ******************************************************************************/
1530:Generated_Source\PSoC4/LIN_Dynamic.c **** l_u8 ld_raw_rx_status(l_ifc_handle iii)
1531:Generated_Source\PSoC4/LIN_Dynamic.c **** {
 811              		.loc 1 1531 0
 812              		.cfi_startproc
 813              		@ args = 0, pretend = 0, frame = 0
 814              		@ frame_needed = 0, uses_anonymous_args = 0
 815              		@ link register save eliminated.
 816              	.LVL81:
1532:Generated_Source\PSoC4/LIN_Dynamic.c ****     l_u8 returnValue = LD_NO_DATA;
1533:Generated_Source\PSoC4/LIN_Dynamic.c **** 
1534:Generated_Source\PSoC4/LIN_Dynamic.c ****     switch(iii)
1535:Generated_Source\PSoC4/LIN_Dynamic.c ****     {
1536:Generated_Source\PSoC4/LIN_Dynamic.c ****         #if(1u == LINS_TL_ENABLED)
1537:Generated_Source\PSoC4/LIN_Dynamic.c ****             #if(1u != LINS_TL_API_FORMAT)
1538:Generated_Source\PSoC4/LIN_Dynamic.c ****                 case LINS_IFC_HANDLE:
1539:Generated_Source\PSoC4/LIN_Dynamic.c ****                         returnValue = ld_raw_rx_status_LINS();
1540:Generated_Source\PSoC4/LIN_Dynamic.c ****                 break;
1541:Generated_Source\PSoC4/LIN_Dynamic.c ****             #endif /* (1u != LINS_TL_API_FORMAT) */
1542:Generated_Source\PSoC4/LIN_Dynamic.c ****         #endif /* (1u == LINS_TL_ENABLED) */
1543:Generated_Source\PSoC4/LIN_Dynamic.c **** 
1544:Generated_Source\PSoC4/LIN_Dynamic.c ****         #if(LINS_IS_MULTI_INSTANCE)
1545:Generated_Source\PSoC4/LIN_Dynamic.c ****             #if(1u == NOT_DEFINED_TL_ENABLED)
1546:Generated_Source\PSoC4/LIN_Dynamic.c ****                 #if(1u != NOT_DEFINED_TL_API_FORMAT)
1547:Generated_Source\PSoC4/LIN_Dynamic.c ****                     /* Go here is interface 1 is specified */
1548:Generated_Source\PSoC4/LIN_Dynamic.c ****                     case NOT_DEFINED_IFC_HANDLE:
1549:Generated_Source\PSoC4/LIN_Dynamic.c ****                         returnValue = ld_raw_rx_status_NOT_DEFINED();
1550:Generated_Source\PSoC4/LIN_Dynamic.c ****                     break;
1551:Generated_Source\PSoC4/LIN_Dynamic.c ****                 #endif /* (1u != NOT_DEFINED_TL_API_FORMAT) */
1552:Generated_Source\PSoC4/LIN_Dynamic.c ****             #endif /* (1u == NOT_DEFINED_TL_ENABLED) */
1553:Generated_Source\PSoC4/LIN_Dynamic.c ****         #endif /* (LINS_IS_MULTI_INSTANCE) */
1554:Generated_Source\PSoC4/LIN_Dynamic.c **** 
1555:Generated_Source\PSoC4/LIN_Dynamic.c ****         default:
1556:Generated_Source\PSoC4/LIN_Dynamic.c ****         break;
1557:Generated_Source\PSoC4/LIN_Dynamic.c ****     }
1558:Generated_Source\PSoC4/LIN_Dynamic.c **** 
1559:Generated_Source\PSoC4/LIN_Dynamic.c ****     return(returnValue);
1560:Generated_Source\PSoC4/LIN_Dynamic.c **** }
 817              		.loc 1 1560 0
 818 0000 0B20     		movs	r0, #11
 819              	.LVL82:
 820              		@ sp needed
 821 0002 7047     		bx	lr
 822              		.cfi_endproc
 823              	.LFE24:
 824              		.size	ld_raw_rx_status, .-ld_raw_rx_status
 825              		.bss
 826              		.set	.LANCHOR0,. + 0
 827              		.type	LINS_initVar, %object
 828              		.size	LINS_initVar, 1
ARM GAS  C:\Users\jagumiel\AppData\Local\Temp\ccut8RYQ.s 			page 43


 829              	LINS_initVar:
 830 0000 00       		.space	1
 831              		.text
 832              	.Letext0:
 833              		.file 2 "Generated_Source\\PSoC4\\cytypes.h"
 834              		.file 3 "Generated_Source\\PSoC4\\LINS.h"
 835              		.file 4 "Generated_Source\\PSoC4\\LINS_IntClk.h"
 836              		.file 5 "Generated_Source\\PSoC4\\LIN_Dynamic.h"