ARM GAS  C:\Users\jagumiel\AppData\Local\Temp\ccNPR0zc.s 			page 1


   1              		.syntax unified
   2              		.cpu cortex-m0
   3              		.fpu softvfp
   4              		.eabi_attribute 20, 1
   5              		.eabi_attribute 21, 1
   6              		.eabi_attribute 23, 3
   7              		.eabi_attribute 24, 1
   8              		.eabi_attribute 25, 1
   9              		.eabi_attribute 26, 1
  10              		.eabi_attribute 30, 1
  11              		.eabi_attribute 34, 0
  12              		.eabi_attribute 18, 4
  13              		.thumb
  14              		.syntax unified
  15              		.file	"main.c"
  16              		.text
  17              	.Ltext0:
  18              		.cfi_sections	.debug_frame
  19              		.section	.text.main,"ax",%progbits
  20              		.align	2
  21              		.global	main
  22              		.code	16
  23              		.thumb_func
  24              		.type	main, %function
  25              	main:
  26              	.LFB32:
  27              		.file 1 "main.c"
   1:main.c        **** /*****************************************************************************
   2:main.c        **** * File Name: main.c
   3:main.c        **** *
   4:main.c        **** * Version: 1.0
   5:main.c        **** *
   6:main.c        **** * Description:
   7:main.c        **** * ============
   8:main.c        **** * This is a demo or simulation of a car's internal illumination. When the door
   9:main.c        **** * is opened, the lights turns on, and when the doors are closed, the lights 
  10:main.c        **** * turns off. All this whith a dimmer effect.
  11:main.c        **** *
  12:main.c        **** * Command 0x00 --> Turn Off Left Light
  13:main.c        **** * Command 0x01 --> Turn On Left Light
  14:main.c        **** * Command 0x10 --> Turn Off Right Light
  15:main.c        **** * Command 0x11 --> Turn On Right Light
  16:main.c        **** * 
  17:main.c        **** * The LIN Master can read the status of the Lights by sending the Frame ID 0x11
  18:main.c        **** *
  19:main.c        **** * The master receives the following status from LIN Slave based on the lights 
  20:main.c        **** * status as follows:
  21:main.c        **** * Left  Light OFF   --> 0xA0
  22:main.c        **** * Left  Light ON    --> 0xA1
  23:main.c        **** * Right Light OFF   --> 0xB0
  24:main.c        **** * Right Light ON    --> 0xB1
  25:main.c        **** *
  26:main.c        **** *******************************************************************************/
  27:main.c        **** 
  28:main.c        **** #include "header.h"
  29:main.c        **** 
  30:main.c        **** /*******************************************************************************
ARM GAS  C:\Users\jagumiel\AppData\Local\Temp\ccNPR0zc.s 			page 2


  31:main.c        **** * Function Name: main()
  32:main.c        **** ********************************************************************************
  33:main.c        **** *
  34:main.c        **** * Summary:
  35:main.c        **** *  Initialize LIN slave. If the LIN slave receives an unconditional frame from  
  36:main.c        **** *  master with Frame ID 0x10, then the first byte of data (command to control  
  37:main.c        **** *  the lights) is written to the other unconditional frame (OutFrame). Based on 
  38:main.c        **** *  the received command slave will control the lights status.
  39:main.c        **** *
  40:main.c        **** *  The LIN Master can read the status of the LED by sending the Frame ID 0x11
  41:main.c        **** *
  42:main.c        **** * Parameters:
  43:main.c        **** *  None
  44:main.c        **** *
  45:main.c        **** * Return:
  46:main.c        **** *  None
  47:main.c        **** *
  48:main.c        **** *******************************************************************************/
  49:main.c        **** int main(void)
  50:main.c        **** {        
  28              		.loc 1 50 0
  29              		.cfi_startproc
  30              		@ args = 0, pretend = 0, frame = 0
  31              		@ frame_needed = 0, uses_anonymous_args = 0
  32 0000 70B5     		push	{r4, r5, r6, lr}
  33              		.cfi_def_cfa_offset 16
  34              		.cfi_offset 4, -16
  35              		.cfi_offset 5, -12
  36              		.cfi_offset 6, -8
  37              		.cfi_offset 14, -4
  38              	.LVL0:
  51:main.c        ****     /* Local Variables */
  52:main.c        ****     uint8   dataArray = 0u ;
  53:main.c        ****     uint8   dataReceived = 0u;
  54:main.c        ****     uint8_t red, green, blue = 0;
  55:main.c        ****     
  56:main.c        **** 	/* Enable Global Interrupts */
  57:main.c        ****     CyGlobalIntEnable;      
  39              		.loc 1 57 0
  40              		.syntax divided
  41              	@ 57 "main.c" 1
  42 0002 62B6     		CPSIE   i
  43              	@ 0 "" 2
  58:main.c        ****     
  59:main.c        ****     /* Call initialization function */
  60:main.c        ****     l_sys_init();
  44              		.loc 1 60 0
  45              		.thumb
  46              		.syntax unified
  47 0004 FFF7FEFF 		bl	l_sys_init
  48              	.LVL1:
  61:main.c        ****     
  62:main.c        ****     /* Start LINS component */
  63:main.c        ****     if(0u != l_ifc_init(LINS_IFC_HANDLE)){
  49              		.loc 1 63 0
  50 0008 0020     		movs	r0, #0
  51 000a FFF7FEFF 		bl	l_ifc_init
ARM GAS  C:\Users\jagumiel\AppData\Local\Temp\ccNPR0zc.s 			page 3


  52              	.LVL2:
  64:main.c        ****         /* Switch ON the Red LED */
  65:main.c        ****         //LedRed_Write(1);
  66:main.c        ****     }
  67:main.c        ****     
  68:main.c        ****     /* Start PWM components */
  69:main.c        ****     PWM_R_Start();
  53              		.loc 1 69 0
  54 000e FFF7FEFF 		bl	PWM_R_Start
  55              	.LVL3:
  70:main.c        ****     PWM_G_Start();
  56              		.loc 1 70 0
  57 0012 FFF7FEFF 		bl	PWM_G_Start
  58              	.LVL4:
  71:main.c        ****     PWM_B_Start();
  59              		.loc 1 71 0
  60 0016 FFF7FEFF 		bl	PWM_B_Start
  61              	.LVL5:
  62              	.L3:
  72:main.c        ****     
  73:main.c        **** 	while(1){
  74:main.c        ****     	/**********************************************************
  75:main.c        ****     	* Check if "InFrame" frame is received from LIN Master
  76:main.c        ****     	**********************************************************/
  77:main.c        ****     	if (1u == l_flg_tst_InFrame()){           
  63              		.loc 1 77 0
  64 001a FFF7FEFF 		bl	l_flg_tst_InFrame
  65              	.LVL6:
  66 001e 0128     		cmp	r0, #1
  67 0020 1CD1     		bne	.L2
  78:main.c        ****     		/* Clear signal flag */
  79:main.c        ****             l_flg_clr_InFrame();
  68              		.loc 1 79 0
  69 0022 FFF7FEFF 		bl	l_flg_clr_InFrame
  70              	.LVL7:
  80:main.c        ****     		    					
  81:main.c        ****     		/* Copy the value in Insig scalar into OutSig scalar using an
  82:main.c        ****              * intermediate variable (dataReceived) */
  83:main.c        ****             dataReceived = l_u8_rd_InSig();
  71              		.loc 1 83 0
  72 0026 FFF7FEFF 		bl	l_u8_rd_InSig
  73              	.LVL8:
  74 002a 0100     		movs	r1, r0
  75              	.LVL9:
  84:main.c        ****     		l_u8_wr(OutSig_SIGNAL_HANDLE, dataReceived);
  76              		.loc 1 84 0
  77 002c 0520     		movs	r0, #5
  78 002e FFF7FEFF 		bl	l_u8_wr
  79              	.LVL10:
  85:main.c        ****     		red     = l_u8_rd_RedValue();
  80              		.loc 1 85 0
  81 0032 FFF7FEFF 		bl	l_u8_rd_RedValue
  82              	.LVL11:
  83 0036 0400     		movs	r4, r0
  84              	.LVL12:
  86:main.c        ****             green   = l_u8_rd_GreenValue();
  85              		.loc 1 86 0
ARM GAS  C:\Users\jagumiel\AppData\Local\Temp\ccNPR0zc.s 			page 4


  86 0038 FFF7FEFF 		bl	l_u8_rd_GreenValue
  87              	.LVL13:
  88 003c 0600     		movs	r6, r0
  89              	.LVL14:
  87:main.c        ****             blue    = l_u8_rd_BlueValue();
  90              		.loc 1 87 0
  91 003e FFF7FEFF 		bl	l_u8_rd_BlueValue
  92              	.LVL15:
  93 0042 0500     		movs	r5, r0
  94              	.LVL16:
  88:main.c        ****     		
  89:main.c        ****             
  90:main.c        ****             PWM_R_WriteCompare(red);
  95              		.loc 1 90 0
  96 0044 2000     		movs	r0, r4
  97 0046 FFF7FEFF 		bl	PWM_R_WriteCompare
  98              	.LVL17:
  91:main.c        ****             PWM_G_WriteCompare(green);
  99              		.loc 1 91 0
 100 004a 3000     		movs	r0, r6
 101 004c FFF7FEFF 		bl	PWM_G_WriteCompare
 102              	.LVL18:
  92:main.c        ****             PWM_B_WriteCompare(blue);
 103              		.loc 1 92 0
 104 0050 2800     		movs	r0, r5
 105 0052 FFF7FEFF 		bl	PWM_B_WriteCompare
 106              	.LVL19:
  93:main.c        ****             
  94:main.c        ****             dataArray=red;
  95:main.c        ****             
  96:main.c        ****                 
  97:main.c        ****         	/* Copy the status of the LED (dataArray) to OutArraySig */
  98:main.c        ****             l_u8_wr_OutArraySig(dataArray);                
 107              		.loc 1 98 0
 108 0056 2000     		movs	r0, r4
 109 0058 FFF7FEFF 		bl	l_u8_wr_OutArraySig
 110              	.LVL20:
 111              	.L2:
  99:main.c        ****         }
 100:main.c        ****         
 101:main.c        ****     	/***************************************************************
 102:main.c        ****     	* Check if the data in "OutFrame" frame is sent to LIN Master
 103:main.c        ****     	***************************************************************/    		
 104:main.c        ****     	if (l_flg_tst_OutFrame()){
 112              		.loc 1 104 0
 113 005c FFF7FEFF 		bl	l_flg_tst_OutFrame
 114              	.LVL21:
 115 0060 0028     		cmp	r0, #0
 116 0062 DAD0     		beq	.L3
 105:main.c        ****     		/* Clear signal flag */
 106:main.c        ****     		l_flg_clr_OutFrame();
 117              		.loc 1 106 0
 118 0064 FFF7FEFF 		bl	l_flg_clr_OutFrame
 119              	.LVL22:
 120 0068 D7E7     		b	.L3
 121              		.cfi_endproc
 122              	.LFE32:
ARM GAS  C:\Users\jagumiel\AppData\Local\Temp\ccNPR0zc.s 			page 5


 123              		.size	main, .-main
 124 006a C046     		.text
 125              	.Letext0:
 126              		.file 2 "c:\\program files (x86)\\cypress\\psoc creator\\4.2\\psoc creator\\import\\gnu\\arm\\5.4.
 127              		.file 3 "c:\\program files (x86)\\cypress\\psoc creator\\4.2\\psoc creator\\import\\gnu\\arm\\5.4.
 128              		.file 4 "Generated_Source\\PSoC4/cytypes.h"
 129              		.file 5 "Generated_Source\\PSoC4/LINS.h"
 130              		.file 6 "Generated_Source\\PSoC4/LIN_Dynamic.h"
 131              		.file 7 "Generated_Source\\PSoC4/PWM_R.h"
 132              		.file 8 "Generated_Source\\PSoC4/PWM_G.h"
 133              		.file 9 "Generated_Source\\PSoC4/PWM_B.h"