ARM GAS  C:\Users\jagumiel\AppData\Local\Temp\ccjOnmC5.s 			page 1


   1              		.syntax unified
   2              		.cpu cortex-m0
   3              		.fpu softvfp
   4              		.eabi_attribute 20, 1
   5              		.eabi_attribute 21, 1
   6              		.eabi_attribute 23, 3
   7              		.eabi_attribute 24, 1
   8              		.eabi_attribute 25, 1
   9              		.eabi_attribute 26, 1
  10              		.eabi_attribute 30, 1
  11              		.eabi_attribute 34, 0
  12              		.eabi_attribute 18, 4
  13              		.thumb
  14              		.syntax unified
  15              		.file	"main.c"
  16              		.text
  17              	.Ltext0:
  18              		.cfi_sections	.debug_frame
  19              		.section	.text.main,"ax",%progbits
  20              		.align	2
  21              		.global	main
  22              		.code	16
  23              		.thumb_func
  24              		.type	main, %function
  25              	main:
  26              	.LFB32:
  27              		.file 1 "main.c"
   1:main.c        **** /*****************************************************************************
   2:main.c        **** * File Name: main.c
   3:main.c        **** *
   4:main.c        **** * Version: 1.0
   5:main.c        **** *
   6:main.c        **** * Description:
   7:main.c        **** 
   8:main.c        **** * This project demonstrates LIN Slave functionality of PSoC 4. If it (LIN slave) 
   9:main.c        **** * receives an unconditional frame from LIN master with Frame ID 0x10 (InFrame),
  10:main.c        **** * then the first byte of data (command) is written to another unconditional 
  11:main.c        **** * frame (OutFrame). This data command controls the RGB LED color as follows:
  12:main.c        **** *
  13:main.c        **** * Command 0x00 --> All LEDs OFF
  14:main.c        **** * Command 0x11 --> Red LED ON
  15:main.c        **** * Command 0x22 --> Green LED ON
  16:main.c        **** * Command 0x33 --> Blue LED ON
  17:main.c        **** * 
  18:main.c        **** * The LIN Master can read the status of the RGB LED by sending the Frame ID 0x11
  19:main.c        **** *
  20:main.c        **** * The master receives the following status from LIN Slave based on the LED 
  21:main.c        **** * status as follows:
  22:main.c        **** * If Red LED ON   --> 0xAA
  23:main.c        **** * If Green LED ON --> 0xBB
  24:main.c        **** * If Blue LED ON  --> 0xCC
  25:main.c        **** * If All LEDs OFF --> 0xDD
  26:main.c        **** *
  27:main.c        **** * Because the LIN Master component is not available with PSoC 4, a LIN Analyzer  
  28:main.c        **** * is required to test this project
  29:main.c        **** * 
  30:main.c        **** *
ARM GAS  C:\Users\jagumiel\AppData\Local\Temp\ccjOnmC5.s 			page 2


  31:main.c        **** * Hardware Dependency:
  32:main.c        **** * This project requires CY8CKIT-026 CAN and LIN Shield Kit, CY8CKIT-042 Pioneer 
  33:main.c        **** * Kit and a third party LIN analyzer
  34:main.c        **** *
  35:main.c        **** * This project needs to be programmed to PSoC 4 of CY8CKIT-042 Pioneer Kit.
  36:main.c        **** *
  37:main.c        **** * CY8CKIT-026 CAN and LIN Shield Kit should be placed on to the Arduino headers 
  38:main.c        **** * of the KIT-042/044. And connect the KIT-026 pins as follows:
  39:main.c        **** * J3_10 to LIN1_RX (J15_1) or LIN2_RX (J6_1)
  40:main.c        **** * J3_9 to LIN1_TX (J15_2) or LIN2_TX (J6_2) 
  41:main.c        **** * A0 (J2_1) to LIN1_NSLP (J15_3) or LIN2_NSLP (J6_3)
  42:main.c        **** * And connect a 12V supply to the 'Vin' pin (J11 or J12) on CY8CKIT-026.
  43:main.c        **** *
  44:main.c        **** * Code Tested With:
  45:main.c        **** * 1. PSoC Creator 3.3 SP1
  46:main.c        **** * 2. Toolchain: ARM GCC 4.9.3
  47:main.c        **** *
  48:main.c        **** ********************************************************************************
  49:main.c        **** * Copyright 2015-2016, Cypress Semiconductor Corporation. All rights reserved.
  50:main.c        **** * This software is owned by Cypress Semiconductor Corporation and is protected
  51:main.c        **** * by and subject to worldwide patent and copyright laws and treaties.
  52:main.c        **** * Therefore, you may use this software only as provided in the license agreement
  53:main.c        **** * accompanying the software package from which you obtained this software.
  54:main.c        **** * CYPRESS AND ITS SUPPLIERS MAKE NO WARRANTY OF ANY KIND, EXPRESS OR IMPLIED,
  55:main.c        **** * WITH REGARD TO THIS SOFTWARE, INCLUDING, BUT NOT LIMITED TO, NONINFRINGEMENT,
  56:main.c        **** * IMPLIED WARRANTIES OF MERCHANTABILITY AND FITNESS FOR A PARTICULAR PURPOSE.
  57:main.c        **** *
  58:main.c        **** * Disclaimer: CYPRESS MAKES NO WARRANTY OF ANY KIND, EXPRESS OR IMPLIED, WITH
  59:main.c        **** * REGARD TO THIS MATERIAL, INCLUDING, BUT NOT LIMITED TO, THE IMPLIED
  60:main.c        **** * WARRANTIES OF MERCHANTABILITY AND FITNESS FOR A PARTICULAR PURPOSE.
  61:main.c        **** * Cypress reserves the right to make changes without further notice to the
  62:main.c        **** * materials described herein. Cypress does not assume any liability arising out
  63:main.c        **** * of the application or use of any product or circuit described herein. Cypress
  64:main.c        **** * does not authorize its products for use as critical components in life-support
  65:main.c        **** * systems where a malfunction or failure may reasonably be expected to result in
  66:main.c        **** * significant injury to the user. The inclusion of Cypress' product in a life-
  67:main.c        **** * support systems application implies that the manufacturer assumes all risk of
  68:main.c        **** * such use and in doing so indemnifies Cypress against all charges. Use may be
  69:main.c        **** * limited by and subject to the applicable Cypress software license agreement.
  70:main.c        **** *****************************************************************************/
  71:main.c        **** 
  72:main.c        **** #include "header.h"
  73:main.c        **** 
  74:main.c        **** /*******************************************************************************
  75:main.c        **** * Function Name: main()
  76:main.c        **** ********************************************************************************
  77:main.c        **** *
  78:main.c        **** * Summary:
  79:main.c        **** *  Initialize LIN slave. If the LIN slave receives an unconditional frame from  
  80:main.c        **** *  master with Frame ID 0x10, then the first byte of data (command to control  
  81:main.c        **** *  the LED) is written to the other unconditional frame (OutFrame). Based on 
  82:main.c        **** *  the received command slave will control the RGB LED color.
  83:main.c        **** *
  84:main.c        **** *  The LIN Master can read the status of the LED by sending the Frame ID 0x11
  85:main.c        **** *
  86:main.c        **** * Parameters:
  87:main.c        **** *  None
ARM GAS  C:\Users\jagumiel\AppData\Local\Temp\ccjOnmC5.s 			page 3


  88:main.c        **** *
  89:main.c        **** * Return:
  90:main.c        **** *  None
  91:main.c        **** *
  92:main.c        **** *******************************************************************************/
  93:main.c        **** int main(void)
  94:main.c        **** {        
  28              		.loc 1 94 0
  29              		.cfi_startproc
  30              		@ args = 0, pretend = 0, frame = 0
  31              		@ frame_needed = 0, uses_anonymous_args = 0
  32 0000 70B5     		push	{r4, r5, r6, lr}
  33              		.cfi_def_cfa_offset 16
  34              		.cfi_offset 4, -16
  35              		.cfi_offset 5, -12
  36              		.cfi_offset 6, -8
  37              		.cfi_offset 14, -4
  38              	.LVL0:
  95:main.c        ****     /* Local Variables */
  96:main.c        ****     uint8 dataArray =  0u ;
  97:main.c        ****     uint8 dataReceived = 0u;
  98:main.c        ****     
  99:main.c        **** 	/* Enable Global Interrupts */
 100:main.c        ****     CyGlobalIntEnable;      
  39              		.loc 1 100 0
  40              		.syntax divided
  41              	@ 100 "main.c" 1
  42 0002 62B6     		CPSIE   i
  43              	@ 0 "" 2
 101:main.c        ****     
 102:main.c        ****     /* Call initialization function */
 103:main.c        ****     l_sys_init();
  44              		.loc 1 103 0
  45              		.thumb
  46              		.syntax unified
  47 0004 FFF7FEFF 		bl	l_sys_init
  48              	.LVL1:
 104:main.c        ****     
 105:main.c        ****     /* Start LINS component */
 106:main.c        ****     if(0u != l_ifc_init(LINS_IFC_HANDLE))
  49              		.loc 1 106 0
  50 0008 0020     		movs	r0, #0
  51 000a FFF7FEFF 		bl	l_ifc_init
  52              	.LVL2:
  53 000e 0028     		cmp	r0, #0
  54 0010 08D0     		beq	.L2
 107:main.c        ****     {
 108:main.c        ****         /* Switch ON the Red LED */
 109:main.c        ****         RGB_LED_ON_RED;
  55              		.loc 1 109 0
  56 0012 0020     		movs	r0, #0
  57 0014 FFF7FEFF 		bl	LED_RED_Write
  58              	.LVL3:
  59 0018 0120     		movs	r0, #1
  60 001a FFF7FEFF 		bl	LED_GREEN_Write
  61              	.LVL4:
  62 001e 0120     		movs	r0, #1
ARM GAS  C:\Users\jagumiel\AppData\Local\Temp\ccjOnmC5.s 			page 4


  63 0020 FFF7FEFF 		bl	LED_BLUE_Write
  64              	.LVL5:
  65              	.L2:
  94:main.c        ****     /* Local Variables */
  66              		.loc 1 94 0
  67 0024 0025     		movs	r5, #0
  68              	.LVL6:
  69              	.L3:
 110:main.c        ****     }
 111:main.c        ****     //RGB_LED_ON_RED;
 112:main.c        **** 	while(1)
 113:main.c        **** 	{
 114:main.c        ****     	/**********************************************************
 115:main.c        ****     	* Check if "InFrame" frame is received from LIN Master
 116:main.c        ****     	**********************************************************/
 117:main.c        ****     	if (1u == l_flg_tst_InFrame())
  70              		.loc 1 117 0
  71 0026 FFF7FEFF 		bl	l_flg_tst_InFrame
  72              	.LVL7:
  73 002a 0128     		cmp	r0, #1
  74 002c 3ED1     		bne	.L4
 118:main.c        ****     	{           
 119:main.c        ****     		/* Clear signal flag */
 120:main.c        ****             l_flg_clr_InFrame();
  75              		.loc 1 120 0
  76 002e FFF7FEFF 		bl	l_flg_clr_InFrame
  77              	.LVL8:
 121:main.c        ****     		    					
 122:main.c        ****     		/* Copy the value in Insig scalar into OutSig scalar using an
 123:main.c        ****              * intermediate variable (dataReceived) */
 124:main.c        ****     		dataReceived = l_u8_rd_InSig();
  78              		.loc 1 124 0
  79 0032 FFF7FEFF 		bl	l_u8_rd_InSig
  80              	.LVL9:
  81 0036 0100     		movs	r1, r0
  82 0038 0400     		movs	r4, r0
  83              	.LVL10:
 125:main.c        ****     		l_u8_wr(OutSig_SIGNAL_HANDLE, dataReceived);
  84              		.loc 1 125 0
  85 003a 0220     		movs	r0, #2
  86 003c FFF7FEFF 		bl	l_u8_wr
  87              	.LVL11:
 126:main.c        ****             /* Scan the dataReceived and switch on the LED as per the command */
 127:main.c        ****             if(CMD_SET_RED == dataReceived)
  88              		.loc 1 127 0
  89 0040 112C     		cmp	r4, #17
  90 0042 0AD1     		bne	.L5
 128:main.c        ****             {
 129:main.c        ****                 /* Switch ON the Red LED */
 130:main.c        ****                 RGB_LED_ON_RED;
  91              		.loc 1 130 0
  92 0044 0020     		movs	r0, #0
  93 0046 FFF7FEFF 		bl	LED_RED_Write
  94              	.LVL12:
  95 004a 0120     		movs	r0, #1
  96 004c FFF7FEFF 		bl	LED_GREEN_Write
  97              	.LVL13:
ARM GAS  C:\Users\jagumiel\AppData\Local\Temp\ccjOnmC5.s 			page 5


  98 0050 0120     		movs	r0, #1
  99 0052 FFF7FEFF 		bl	LED_BLUE_Write
 100              	.LVL14:
 131:main.c        ****                 
 132:main.c        ****                 /* Store the LED status (RED LED is ON = 0xAA)in dataArray */
 133:main.c        ****                 dataArray = CMD_SENT_RED; 
 101              		.loc 1 133 0
 102 0056 AA25     		movs	r5, #170
 103 0058 25E0     		b	.L6
 104              	.LVL15:
 105              	.L5:
 134:main.c        ****             }
 135:main.c        ****             else if(CMD_SET_GREEN == dataReceived)
 106              		.loc 1 135 0
 107 005a 222C     		cmp	r4, #34
 108 005c 0AD1     		bne	.L7
 136:main.c        ****             {
 137:main.c        ****                 /* Switch ON the Green LED */
 138:main.c        ****                 RGB_LED_ON_GREEN;
 109              		.loc 1 138 0
 110 005e 0120     		movs	r0, #1
 111 0060 FFF7FEFF 		bl	LED_RED_Write
 112              	.LVL16:
 113 0064 0020     		movs	r0, #0
 114 0066 FFF7FEFF 		bl	LED_GREEN_Write
 115              	.LVL17:
 116 006a 0120     		movs	r0, #1
 117 006c FFF7FEFF 		bl	LED_BLUE_Write
 118              	.LVL18:
 139:main.c        ****                 
 140:main.c        ****                 /* Store the LED status (GREEN LED is ON = 0xBB)in dataArray */
 141:main.c        ****                 dataArray = CMD_SENT_GREEN; 
 119              		.loc 1 141 0
 120 0070 BB25     		movs	r5, #187
 121 0072 18E0     		b	.L6
 122              	.LVL19:
 123              	.L7:
 142:main.c        ****             }
 143:main.c        ****             else if(CMD_SET_BLUE == dataReceived)
 124              		.loc 1 143 0
 125 0074 332C     		cmp	r4, #51
 126 0076 0AD1     		bne	.L8
 144:main.c        ****             {
 145:main.c        ****                 /* Switch ON the Blue LED */
 146:main.c        ****                 RGB_LED_ON_BLUE;
 127              		.loc 1 146 0
 128 0078 0120     		movs	r0, #1
 129 007a FFF7FEFF 		bl	LED_RED_Write
 130              	.LVL20:
 131 007e 0120     		movs	r0, #1
 132 0080 FFF7FEFF 		bl	LED_GREEN_Write
 133              	.LVL21:
 134 0084 0020     		movs	r0, #0
 135 0086 FFF7FEFF 		bl	LED_BLUE_Write
 136              	.LVL22:
 147:main.c        ****                 
 148:main.c        ****                 /* Store the LED status (BLUE LED is ON = 0xBB)in dataArray */
ARM GAS  C:\Users\jagumiel\AppData\Local\Temp\ccjOnmC5.s 			page 6


 149:main.c        ****                 dataArray = CMD_SENT_BLUE;                    
 137              		.loc 1 149 0
 138 008a CC25     		movs	r5, #204
 139 008c 0BE0     		b	.L6
 140              	.LVL23:
 141              	.L8:
 150:main.c        ****             }
 151:main.c        ****             else if(CMD_SET_OFF == dataReceived)
 142              		.loc 1 151 0
 143 008e 002C     		cmp	r4, #0
 144 0090 09D1     		bne	.L6
 152:main.c        ****             {
 153:main.c        ****                 /* Switch OFF all LEDs */
 154:main.c        ****                 RGB_LED_OFF;
 145              		.loc 1 154 0
 146 0092 0120     		movs	r0, #1
 147 0094 FFF7FEFF 		bl	LED_RED_Write
 148              	.LVL24:
 149 0098 0120     		movs	r0, #1
 150 009a FFF7FEFF 		bl	LED_GREEN_Write
 151              	.LVL25:
 152 009e 0120     		movs	r0, #1
 153 00a0 FFF7FEFF 		bl	LED_BLUE_Write
 154              	.LVL26:
 155:main.c        ****                 
 156:main.c        ****                 /* Store the LED status (LED is OFF = 0xDD)in dataArray */
 157:main.c        ****                 dataArray = CMD_SENT_OFF;         
 155              		.loc 1 157 0
 156 00a4 DD25     		movs	r5, #221
 157              	.LVL27:
 158              	.L6:
 158:main.c        ****             }
 159:main.c        ****                 
 160:main.c        ****         	/* Copy the status of the LED (dataArray) to OutArraySig */
 161:main.c        ****             l_u8_wr_OutArraySig(dataArray);                
 159              		.loc 1 161 0
 160 00a6 2800     		movs	r0, r5
 161 00a8 FFF7FEFF 		bl	l_u8_wr_OutArraySig
 162              	.LVL28:
 163              	.L4:
 162:main.c        ****         }
 163:main.c        ****         
 164:main.c        ****     	/***************************************************************
 165:main.c        ****     	* Check if the data in "OutFrame" frame is sent to LIN Master
 166:main.c        ****     	***************************************************************/    		
 167:main.c        ****     	if (l_flg_tst_OutFrame())
 164              		.loc 1 167 0
 165 00ac FFF7FEFF 		bl	l_flg_tst_OutFrame
 166              	.LVL29:
 167 00b0 0028     		cmp	r0, #0
 168 00b2 B8D0     		beq	.L3
 168:main.c        ****     	{
 169:main.c        ****     		/* Clear signal flag */
 170:main.c        ****     		l_flg_clr_OutFrame();
 169              		.loc 1 170 0
 170 00b4 FFF7FEFF 		bl	l_flg_clr_OutFrame
 171              	.LVL30:
ARM GAS  C:\Users\jagumiel\AppData\Local\Temp\ccjOnmC5.s 			page 7


 172 00b8 B5E7     		b	.L3
 173              		.cfi_endproc
 174              	.LFE32:
 175              		.size	main, .-main
 176 00ba C046     		.text
 177              	.Letext0:
 178              		.file 2 "Generated_Source\\PSoC4/LINS.h"
 179              		.file 3 "Generated_Source\\PSoC4/LIN_Dynamic.h"
 180              		.file 4 "Generated_Source\\PSoC4/LED_RED.h"
 181              		.file 5 "Generated_Source\\PSoC4/LED_GREEN.h"
 182              		.file 6 "Generated_Source\\PSoC4/LED_BLUE.h"
 183              		.file 7 "Generated_Source\\PSoC4/cytypes.h"