ARM GAS  C:\Users\jagumiel\AppData\Local\Temp\ccx5K098.s 			page 1


   1              		.syntax unified
   2              		.cpu cortex-m0
   3              		.fpu softvfp
   4              		.eabi_attribute 20, 1
   5              		.eabi_attribute 21, 1
   6              		.eabi_attribute 23, 3
   7              		.eabi_attribute 24, 1
   8              		.eabi_attribute 25, 1
   9              		.eabi_attribute 26, 1
  10              		.eabi_attribute 30, 1
  11              		.eabi_attribute 34, 0
  12              		.eabi_attribute 18, 4
  13              		.thumb
  14              		.syntax unified
  15              		.file	"main.c"
  16              		.text
  17              	.Ltext0:
  18              		.cfi_sections	.debug_frame
  19              		.section	.text.main,"ax",%progbits
  20              		.align	2
  21              		.global	main
  22              		.code	16
  23              		.thumb_func
  24              		.type	main, %function
  25              	main:
  26              	.LFB32:
  27              		.file 1 "main.c"
   1:main.c        **** /*****************************************************************************
   2:main.c        **** * File Name: main.c
   3:main.c        **** *
   4:main.c        **** * Version: 1.0
   5:main.c        **** *
   6:main.c        **** * Description:
   7:main.c        **** 
   8:main.c        **** * This project demonstrates LIN Slave functionality of PSoC 4. If it (LIN slave) 
   9:main.c        **** * receives an unconditional frame from LIN master with Frame ID 0x10 (InFrame),
  10:main.c        **** * then the first byte of data (command) is written to another unconditional 
  11:main.c        **** * frame (OutFrame). This data command controls the RGB LED color as follows:
  12:main.c        **** *
  13:main.c        **** * Command 0x00 --> All LEDs OFF
  14:main.c        **** * Command 0x11 --> Red LED ON
  15:main.c        **** * Command 0x22 --> Green LED ON
  16:main.c        **** * Command 0x33 --> Blue LED ON
  17:main.c        **** * 
  18:main.c        **** * The LIN Master can read the status of the RGB LED by sending the Frame ID 0x11
  19:main.c        **** *
  20:main.c        **** * The master receives the following status from LIN Slave based on the LED 
  21:main.c        **** * status as follows:
  22:main.c        **** * If Red LED ON   --> 0xAA
  23:main.c        **** * If Green LED ON --> 0xBB
  24:main.c        **** * If Blue LED ON  --> 0xCC
  25:main.c        **** * If All LEDs OFF --> 0xDD
  26:main.c        **** *
  27:main.c        **** * Because the LIN Master component is not available with PSoC 4, a LIN Analyzer  
  28:main.c        **** * is required to test this project
  29:main.c        **** * 
  30:main.c        **** *
ARM GAS  C:\Users\jagumiel\AppData\Local\Temp\ccx5K098.s 			page 2


  31:main.c        **** * Hardware Dependency:
  32:main.c        **** * This project requires CY8CKIT-026 CAN and LIN Shield Kit, CY8CKIT-042 Pioneer 
  33:main.c        **** * Kit and a third party LIN analyzer
  34:main.c        **** *
  35:main.c        **** * This project needs to be programmed to PSoC 4 of CY8CKIT-042 Pioneer Kit.
  36:main.c        **** *
  37:main.c        **** * CY8CKIT-026 CAN and LIN Shield Kit should be placed on to the Arduino headers 
  38:main.c        **** * of the KIT-042/044. And connect the KIT-026 pins as follows:
  39:main.c        **** * J3_10 to LIN1_RX (J15_1) or LIN2_RX (J6_1)
  40:main.c        **** * J3_9 to LIN1_TX (J15_2) or LIN2_TX (J6_2) 
  41:main.c        **** * A0 (J2_1) to LIN1_NSLP (J15_3) or LIN2_NSLP (J6_3)
  42:main.c        **** * And connect a 12V supply to the 'Vin' pin (J11 or J12) on CY8CKIT-026.
  43:main.c        **** *
  44:main.c        **** * Code Tested With:
  45:main.c        **** * 1. PSoC Creator 3.3 SP1
  46:main.c        **** * 2. Toolchain: ARM GCC 4.9.3
  47:main.c        **** *
  48:main.c        **** *******************************************************************************/
  49:main.c        **** 
  50:main.c        **** #include "header.h"
  51:main.c        **** 
  52:main.c        **** /*******************************************************************************
  53:main.c        **** * Function Name: main()
  54:main.c        **** ********************************************************************************
  55:main.c        **** *
  56:main.c        **** * Summary:
  57:main.c        **** *  Initialize LIN slave. If the LIN slave receives an unconditional frame from  
  58:main.c        **** *  master with Frame ID 0x10, then the first byte of data (command to control  
  59:main.c        **** *  the LED) is written to the other unconditional frame (OutFrame). Based on 
  60:main.c        **** *  the received command slave will control the RGB LED color.
  61:main.c        **** *
  62:main.c        **** *  The LIN Master can read the status of the LED by sending the Frame ID 0x11
  63:main.c        **** *
  64:main.c        **** * Parameters:
  65:main.c        **** *  None
  66:main.c        **** *
  67:main.c        **** * Return:
  68:main.c        **** *  None
  69:main.c        **** *
  70:main.c        **** *******************************************************************************/
  71:main.c        **** int main(void)
  72:main.c        **** {        
  28              		.loc 1 72 0
  29              		.cfi_startproc
  30              		@ args = 0, pretend = 0, frame = 0
  31              		@ frame_needed = 0, uses_anonymous_args = 0
  32 0000 70B5     		push	{r4, r5, r6, lr}
  33              		.cfi_def_cfa_offset 16
  34              		.cfi_offset 4, -16
  35              		.cfi_offset 5, -12
  36              		.cfi_offset 6, -8
  37              		.cfi_offset 14, -4
  38              	.LVL0:
  73:main.c        ****     /* Local Variables */
  74:main.c        ****     uint8 dataArray =  0u ;
  75:main.c        ****     uint8 dataReceived = 0u;
  76:main.c        ****     
ARM GAS  C:\Users\jagumiel\AppData\Local\Temp\ccx5K098.s 			page 3


  77:main.c        ****     /* Start PWM components */
  78:main.c        ****     PWM_Left_Start();
  39              		.loc 1 78 0
  40 0002 FFF7FEFF 		bl	PWM_Left_Start
  41              	.LVL1:
  79:main.c        ****     PWM_Right_Start();
  42              		.loc 1 79 0
  43 0006 FFF7FEFF 		bl	PWM_Right_Start
  44              	.LVL2:
  80:main.c        ****     
  81:main.c        **** 	/* Enable Global Interrupts */
  82:main.c        ****     CyGlobalIntEnable;      
  45              		.loc 1 82 0
  46              		.syntax divided
  47              	@ 82 "main.c" 1
  48 000a 62B6     		CPSIE   i
  49              	@ 0 "" 2
  83:main.c        ****     
  84:main.c        ****     /* Call initialization function */
  85:main.c        ****     l_sys_init();
  50              		.loc 1 85 0
  51              		.thumb
  52              		.syntax unified
  53 000c FFF7FEFF 		bl	l_sys_init
  54              	.LVL3:
  86:main.c        ****     
  87:main.c        ****     /* Start LINS component */
  88:main.c        ****     if(0u != l_ifc_init(LINS_IFC_HANDLE))
  55              		.loc 1 88 0
  56 0010 0020     		movs	r0, #0
  57 0012 FFF7FEFF 		bl	l_ifc_init
  58              	.LVL4:
  59 0016 0028     		cmp	r0, #0
  60 0018 02D0     		beq	.L2
  89:main.c        ****     {
  90:main.c        ****         /* Switch ON the Red LED */
  91:main.c        ****         RedLed_Write(1);
  61              		.loc 1 91 0
  62 001a 0120     		movs	r0, #1
  63 001c FFF7FEFF 		bl	RedLed_Write
  64              	.LVL5:
  65              	.L2:
  72:main.c        ****     /* Local Variables */
  66              		.loc 1 72 0
  67 0020 0025     		movs	r5, #0
  68              	.LVL6:
  69              	.L3:
  92:main.c        ****     }
  93:main.c        ****     
  94:main.c        **** 	while(1)
  95:main.c        **** 	{
  96:main.c        ****     	/**********************************************************
  97:main.c        ****     	* Check if "InFrame" frame is received from LIN Master
  98:main.c        ****     	**********************************************************/
  99:main.c        ****     	if (1u == l_flg_tst_InFrame())
  70              		.loc 1 99 0
  71 0022 FFF7FEFF 		bl	l_flg_tst_InFrame
ARM GAS  C:\Users\jagumiel\AppData\Local\Temp\ccx5K098.s 			page 4


  72              	.LVL7:
  73 0026 0128     		cmp	r0, #1
  74 0028 4AD1     		bne	.L4
 100:main.c        ****     	{           
 101:main.c        ****     		/* Clear signal flag */
 102:main.c        ****             l_flg_clr_InFrame();
  75              		.loc 1 102 0
  76 002a FFF7FEFF 		bl	l_flg_clr_InFrame
  77              	.LVL8:
 103:main.c        ****     		    					
 104:main.c        ****     		/* Copy the value in Insig scalar into OutSig scalar using an
 105:main.c        ****              * intermediate variable (dataReceived) */
 106:main.c        ****     		dataReceived = l_u8_rd_InSig();
  78              		.loc 1 106 0
  79 002e FFF7FEFF 		bl	l_u8_rd_InSig
  80              	.LVL9:
  81 0032 0100     		movs	r1, r0
  82 0034 0400     		movs	r4, r0
  83              	.LVL10:
 107:main.c        ****     		l_u8_wr(OutSig_SIGNAL_HANDLE, dataReceived);
  84              		.loc 1 107 0
  85 0036 0220     		movs	r0, #2
  86 0038 FFF7FEFF 		bl	l_u8_wr
  87              	.LVL11:
 108:main.c        ****             
 109:main.c        ****             /* Scan the dataReceived and switch on the LED as per the command */
 110:main.c        ****             if(CMD_TURN_ON_LEFT == dataReceived){
  88              		.loc 1 110 0
  89 003c 012C     		cmp	r4, #1
  90 003e 0DD1     		bne	.L22
  91 0040 07E0     		b	.L18
  92              	.LVL12:
  93              	.L7:
  94              	.LBB2:
 111:main.c        ****                 /* Turn on left led */
 112:main.c        ****                 for(int i=255; i>2; i--){
 113:main.c        ****                     PWM_Left_WriteCompare(i);
  95              		.loc 1 113 0 discriminator 3
  96 0042 E0B2     		uxtb	r0, r4
  97 0044 FFF7FEFF 		bl	PWM_Left_WriteCompare
  98              	.LVL13:
 114:main.c        ****                     CyDelay(5);
  99              		.loc 1 114 0 discriminator 3
 100 0048 0520     		movs	r0, #5
 101 004a FFF7FEFF 		bl	CyDelay
 102              	.LVL14:
 112:main.c        ****                     PWM_Left_WriteCompare(i);
 103              		.loc 1 112 0 discriminator 3
 104 004e 013C     		subs	r4, r4, #1
 105              	.LVL15:
 106 0050 00E0     		b	.L5
 107              	.LVL16:
 108              	.L18:
 109              	.LBE2:
 110 0052 FF24     		movs	r4, #255
 111              	.L5:
 112              	.LVL17:
ARM GAS  C:\Users\jagumiel\AppData\Local\Temp\ccx5K098.s 			page 5


 113              	.LBB3:
 112:main.c        ****                     PWM_Left_WriteCompare(i);
 114              		.loc 1 112 0 is_stmt 0 discriminator 1
 115 0054 022C     		cmp	r4, #2
 116 0056 F4DC     		bgt	.L7
 117              	.LBE3:
 115:main.c        ****                 }
 116:main.c        ****                 
 117:main.c        ****                 /* Store the LED status (RED LED is ON = 0xAA)in dataArray */
 118:main.c        ****                 dataArray = CMD_SENT_LEFT_ON; 
 118              		.loc 1 118 0 is_stmt 1
 119 0058 A125     		movs	r5, #161
 120              	.LVL18:
 121 005a 2EE0     		b	.L8
 122              	.LVL19:
 123              	.L22:
 119:main.c        ****             }else if(CMD_TURN_OFF_LEFT == dataReceived){
 124              		.loc 1 119 0
 125 005c 002C     		cmp	r4, #0
 126 005e 08D0     		beq	.L19
 127 0060 0CE0     		b	.L23
 128              	.LVL20:
 129              	.L11:
 130              	.LBB4:
 120:main.c        ****                 /* Turn off left led */
 121:main.c        ****                 for(int i=1; i<256; i++){
 122:main.c        ****                     PWM_Left_WriteCompare(i);
 131              		.loc 1 122 0 discriminator 3
 132 0062 E0B2     		uxtb	r0, r4
 133 0064 FFF7FEFF 		bl	PWM_Left_WriteCompare
 134              	.LVL21:
 123:main.c        ****                     CyDelay(5);
 135              		.loc 1 123 0 discriminator 3
 136 0068 0520     		movs	r0, #5
 137 006a FFF7FEFF 		bl	CyDelay
 138              	.LVL22:
 121:main.c        ****                     PWM_Left_WriteCompare(i);
 139              		.loc 1 121 0 discriminator 3
 140 006e 0134     		adds	r4, r4, #1
 141              	.LVL23:
 142 0070 00E0     		b	.L9
 143              	.LVL24:
 144              	.L19:
 145              	.LBE4:
 146 0072 0124     		movs	r4, #1
 147              	.L9:
 148              	.LVL25:
 149              	.LBB5:
 121:main.c        ****                     PWM_Left_WriteCompare(i);
 150              		.loc 1 121 0 is_stmt 0 discriminator 1
 151 0074 FF2C     		cmp	r4, #255
 152 0076 F4DD     		ble	.L11
 153              	.LBE5:
 124:main.c        ****                 }
 125:main.c        ****                 
 126:main.c        ****                 /* Store the LED status (GREEN LED is ON = 0xBB)in dataArray */
 127:main.c        ****                 dataArray = CMD_SENT_LEFT_OFF; 
ARM GAS  C:\Users\jagumiel\AppData\Local\Temp\ccx5K098.s 			page 6


 154              		.loc 1 127 0 is_stmt 1
 155 0078 A025     		movs	r5, #160
 156              	.LVL26:
 157 007a 1EE0     		b	.L8
 158              	.LVL27:
 159              	.L23:
 128:main.c        ****             }else if(CMD_TURN_ON_RIGHT == dataReceived){
 160              		.loc 1 128 0
 161 007c 112C     		cmp	r4, #17
 162 007e 0DD1     		bne	.L24
 163 0080 07E0     		b	.L20
 164              	.LVL28:
 165              	.L14:
 166              	.LBB6:
 129:main.c        ****                 /* Turn on right led */
 130:main.c        ****                 for(int i=255; i>2; i--){
 131:main.c        ****                     PWM_Right_WriteCompare(i);
 167              		.loc 1 131 0 discriminator 3
 168 0082 E0B2     		uxtb	r0, r4
 169 0084 FFF7FEFF 		bl	PWM_Right_WriteCompare
 170              	.LVL29:
 132:main.c        ****                     CyDelay(5);
 171              		.loc 1 132 0 discriminator 3
 172 0088 0520     		movs	r0, #5
 173 008a FFF7FEFF 		bl	CyDelay
 174              	.LVL30:
 130:main.c        ****                     PWM_Right_WriteCompare(i);
 175              		.loc 1 130 0 discriminator 3
 176 008e 013C     		subs	r4, r4, #1
 177              	.LVL31:
 178 0090 00E0     		b	.L12
 179              	.LVL32:
 180              	.L20:
 181              	.LBE6:
 182 0092 FF24     		movs	r4, #255
 183              	.L12:
 184              	.LVL33:
 185              	.LBB7:
 130:main.c        ****                     PWM_Right_WriteCompare(i);
 186              		.loc 1 130 0 is_stmt 0 discriminator 1
 187 0094 022C     		cmp	r4, #2
 188 0096 F4DC     		bgt	.L14
 189              	.LBE7:
 133:main.c        ****                 }
 134:main.c        ****                 
 135:main.c        ****                 /* Store the LED status (BLUE LED is ON = 0xBB)in dataArray */
 136:main.c        ****                 dataArray = CMD_SENT_RIGHT_ON;                    
 190              		.loc 1 136 0 is_stmt 1
 191 0098 B125     		movs	r5, #177
 192              	.LVL34:
 193 009a 0EE0     		b	.L8
 194              	.LVL35:
 195              	.L24:
 137:main.c        ****             }else if(CMD_TURN_OFF_RIGHT == dataReceived){
 196              		.loc 1 137 0
 197 009c 102C     		cmp	r4, #16
 198 009e 0CD1     		bne	.L8
ARM GAS  C:\Users\jagumiel\AppData\Local\Temp\ccx5K098.s 			page 7


 199 00a0 07E0     		b	.L21
 200              	.LVL36:
 201              	.L16:
 202              	.LBB8:
 138:main.c        ****                 /* Turn off right led */
 139:main.c        ****                 for(int i=1; i<256; i++){
 140:main.c        ****                     PWM_Right_WriteCompare(i);
 203              		.loc 1 140 0 discriminator 3
 204 00a2 E0B2     		uxtb	r0, r4
 205 00a4 FFF7FEFF 		bl	PWM_Right_WriteCompare
 206              	.LVL37:
 141:main.c        ****                     CyDelay(5);
 207              		.loc 1 141 0 discriminator 3
 208 00a8 0520     		movs	r0, #5
 209 00aa FFF7FEFF 		bl	CyDelay
 210              	.LVL38:
 139:main.c        ****                     PWM_Right_WriteCompare(i);
 211              		.loc 1 139 0 discriminator 3
 212 00ae 0134     		adds	r4, r4, #1
 213              	.LVL39:
 214 00b0 00E0     		b	.L15
 215              	.LVL40:
 216              	.L21:
 217              	.LBE8:
 218 00b2 0124     		movs	r4, #1
 219              	.L15:
 220              	.LVL41:
 221              	.LBB9:
 139:main.c        ****                     PWM_Right_WriteCompare(i);
 222              		.loc 1 139 0 is_stmt 0 discriminator 1
 223 00b4 FF2C     		cmp	r4, #255
 224 00b6 F4DD     		ble	.L16
 225              	.LBE9:
 142:main.c        ****                 }
 143:main.c        ****                 
 144:main.c        ****                 /* Store the LED status (LED is OFF = 0xDD)in dataArray */
 145:main.c        ****                 dataArray = CMD_SENT_RIGHT_OFF;         
 226              		.loc 1 145 0 is_stmt 1
 227 00b8 B025     		movs	r5, #176
 228              	.LVL42:
 229              	.L8:
 146:main.c        ****             }
 147:main.c        ****                 
 148:main.c        ****         	/* Copy the status of the LED (dataArray) to OutArraySig */
 149:main.c        ****             l_u8_wr_OutArraySig(dataArray);                
 230              		.loc 1 149 0
 231 00ba 2800     		movs	r0, r5
 232 00bc FFF7FEFF 		bl	l_u8_wr_OutArraySig
 233              	.LVL43:
 234              	.L4:
 150:main.c        ****         }
 151:main.c        ****         
 152:main.c        ****     	/***************************************************************
 153:main.c        ****     	* Check if the data in "OutFrame" frame is sent to LIN Master
 154:main.c        ****     	***************************************************************/    		
 155:main.c        ****     	if (l_flg_tst_OutFrame())
 235              		.loc 1 155 0
ARM GAS  C:\Users\jagumiel\AppData\Local\Temp\ccx5K098.s 			page 8


 236 00c0 FFF7FEFF 		bl	l_flg_tst_OutFrame
 237              	.LVL44:
 238 00c4 0028     		cmp	r0, #0
 239 00c6 ACD0     		beq	.L3
 156:main.c        ****     	{
 157:main.c        ****     		/* Clear signal flag */
 158:main.c        ****     		l_flg_clr_OutFrame();
 240              		.loc 1 158 0
 241 00c8 FFF7FEFF 		bl	l_flg_clr_OutFrame
 242              	.LVL45:
 243 00cc A9E7     		b	.L3
 244              		.cfi_endproc
 245              	.LFE32:
 246              		.size	main, .-main
 247 00ce C046     		.text
 248              	.Letext0:
 249              		.file 2 "Generated_Source\\PSoC4/PWM_Left.h"
 250              		.file 3 "Generated_Source\\PSoC4/CyLib.h"
 251              		.file 4 "Generated_Source\\PSoC4/PWM_Right.h"
 252              		.file 5 "Generated_Source\\PSoC4/LINS.h"
 253              		.file 6 "Generated_Source\\PSoC4/LIN_Dynamic.h"
 254              		.file 7 "Generated_Source\\PSoC4/RedLed.h"
 255              		.file 8 "Generated_Source\\PSoC4/cytypes.h"